
test_mont_c：     文件格式 elf64-littleriscv


Disassembly of section .plt:

0000000000010670 <_PROCEDURE_LINKAGE_TABLE_>:
   10670:	97 d3 00 00 33 03 c3 41 03 be 03 98 13 03 43 fd     ....3..A......C.
   10680:	93 82 03 98 13 53 13 00 83 b2 82 00 67 00 0e 00     .....S......g...

0000000000010690 <__libc_start_main@plt>:
   10690:	0000de17          	auipc	t3,0xd
   10694:	970e3e03          	ld	t3,-1680(t3) # 1d000 <__libc_start_main@GLIBC_2.34>
   10698:	000e0367          	jalr	t1,0(t3)
   1069c:	00000013          	addi	zero,zero,0

00000000000106a0 <memcmp@plt>:
   106a0:	0000de17          	auipc	t3,0xd
   106a4:	968e3e03          	ld	t3,-1688(t3) # 1d008 <memcmp@GLIBC_2.27>
   106a8:	000e0367          	jalr	t1,0(t3)
   106ac:	00000013          	addi	zero,zero,0

00000000000106b0 <__printf_chk@plt>:
   106b0:	0000de17          	auipc	t3,0xd
   106b4:	960e3e03          	ld	t3,-1696(t3) # 1d010 <__printf_chk@GLIBC_2.27>
   106b8:	000e0367          	jalr	t1,0(t3)
   106bc:	00000013          	addi	zero,zero,0

00000000000106c0 <__stack_chk_fail@plt>:
   106c0:	0000de17          	auipc	t3,0xd
   106c4:	958e3e03          	ld	t3,-1704(t3) # 1d018 <__stack_chk_fail@GLIBC_2.27>
   106c8:	000e0367          	jalr	t1,0(t3)
   106cc:	00000013          	addi	zero,zero,0

00000000000106d0 <__memset_chk@plt>:
   106d0:	0000de17          	auipc	t3,0xd
   106d4:	950e3e03          	ld	t3,-1712(t3) # 1d020 <__memset_chk@GLIBC_2.27>
   106d8:	000e0367          	jalr	t1,0(t3)
   106dc:	00000013          	addi	zero,zero,0

00000000000106e0 <memcpy@plt>:
   106e0:	0000de17          	auipc	t3,0xd
   106e4:	948e3e03          	ld	t3,-1720(t3) # 1d028 <memcpy@GLIBC_2.27>
   106e8:	000e0367          	jalr	t1,0(t3)
   106ec:	00000013          	addi	zero,zero,0

00000000000106f0 <__memcpy_chk@plt>:
   106f0:	0000de17          	auipc	t3,0xd
   106f4:	940e3e03          	ld	t3,-1728(t3) # 1d030 <__memcpy_chk@GLIBC_2.27>
   106f8:	000e0367          	jalr	t1,0(t3)
   106fc:	00000013          	addi	zero,zero,0

0000000000010700 <puts@plt>:
   10700:	0000de17          	auipc	t3,0xd
   10704:	938e3e03          	ld	t3,-1736(t3) # 1d038 <puts@GLIBC_2.27>
   10708:	000e0367          	jalr	t1,0(t3)
   1070c:	00000013          	addi	zero,zero,0

0000000000010710 <memset@plt>:
   10710:	0000de17          	auipc	t3,0xd
   10714:	930e3e03          	ld	t3,-1744(t3) # 1d040 <memset@GLIBC_2.27>
   10718:	000e0367          	jalr	t1,0(t3)
   1071c:	00000013          	addi	zero,zero,0

Disassembly of section .text:

0000000000010720 <main>:
   10720:	b9010113          	addi	sp,sp,-1136
   10724:	0001d737          	lui	a4,0x1d
   10728:	6569                	c.lui	a0,0x1a
   1072a:	e0073783          	ld	a5,-512(a4) # 1ce00 <__stack_chk_guard@GLIBC_2.27>
   1072e:	3ef13c23          	sd	a5,1016(sp)
   10732:	4781                	c.li	a5,0
   10734:	42050513          	addi	a0,a0,1056 # 1a420 <SM2_GY_BYTES+0x70>
   10738:	46113423          	sd	ra,1128(sp)
   1073c:	46813023          	sd	s0,1120(sp)
   10740:	1420                	c.addi4spn	s0,sp,552
   10742:	44913c23          	sd	s1,1112(sp)
   10746:	0da4                	c.addi4spn	s1,sp,728
   10748:	45213823          	sd	s2,1104(sp)
   1074c:	20010913          	addi	s2,sp,512
   10750:	45313423          	sd	s3,1096(sp)
   10754:	89a2                	c.mv	s3,s0
   10756:	43513c23          	sd	s5,1080(sp)
   1075a:	25010a93          	addi	s5,sp,592
   1075e:	43613823          	sd	s6,1072(sp)
   10762:	43713423          	sd	s7,1064(sp)
   10766:	2f810b93          	addi	s7,sp,760
   1076a:	41913c23          	sd	s9,1048(sp)
   1076e:	6ce1                	c.lui	s9,0x18
   10770:	41a13823          	sd	s10,1040(sp)
   10774:	000a8d37          	lui	s10,0xa8
   10778:	45413023          	sd	s4,1088(sp)
   1077c:	c5bd0d13          	addi	s10,s10,-933 # a7c5b <__global_pointer$+0x8a413>
   10780:	43813023          	sd	s8,1056(sp)
   10784:	0d32                	c.slli	s10,0xc
   10786:	41b13423          	sd	s11,1032(sp)
   1078a:	f77ff0ef          	jal	ra,10700 <puts@plt>
   1078e:	6569                	c.lui	a0,0x1a
   10790:	44850513          	addi	a0,a0,1096 # 1a448 <SM2_GY_BYTES+0x98>
   10794:	f6dff0ef          	jal	ra,10700 <puts@plt>
   10798:	c47d0d13          	addi	s10,s10,-953
   1079c:	6661                	c.lui	a2,0x18
   1079e:	65e9                	c.lui	a1,0x1a
   107a0:	6a060613          	addi	a2,a2,1696 # 186a0 <fn_from_be+0x120>
   107a4:	47058593          	addi	a1,a1,1136 # 1a470 <SM2_GY_BYTES+0xc0>
   107a8:	3e800693          	addi	a3,zero,1000
   107ac:	0c800713          	addi	a4,zero,200
   107b0:	4509                	c.li	a0,2
   107b2:	effff0ef          	jal	ra,106b0 <__printf_chk@plt>
   107b6:	6ca030ef          	jal	ra,13e80 <sm2_curve_init_once>
   107ba:	0d36                	c.slli	s10,0xd
   107bc:	63697737          	lui	a4,0x63697
   107c0:	c4170713          	addi	a4,a4,-959 # 63696c41 <__BSS_END__+0x635ea451>
   107c4:	0228                	c.addi4spn	a0,sp,264
   107c6:	28e12823          	sw	a4,656(sp)
   107ca:	006277b7          	lui	a5,0x627
   107ce:	06500713          	addi	a4,zero,101
   107d2:	f4278793          	addi	a5,a5,-190 # 626f42 <__BSS_END__+0x57a752>
   107d6:	28e11a23          	sh	a4,660(sp)
   107da:	28f12423          	sw	a5,648(sp)
   107de:	742030ef          	jal	ra,13f20 <sm2_get_base_affine>
   107e2:	0d28                	c.addi4spn	a0,sp,664
   107e4:	45c5                	c.li	a1,17
   107e6:	37a090ef          	jal	ra,19b60 <fixed_scalar>
   107ea:	369d0d13          	addi	s10,s10,873
   107ee:	1d28                	c.addi4spn	a0,sp,696
   107f0:	02200593          	addi	a1,zero,34
   107f4:	36c090ef          	jal	ra,19b60 <fixed_scalar>
   107f8:	0d3e                	c.slli	s10,0xf
   107fa:	8526                	c.mv	a0,s1
   107fc:	03300593          	addi	a1,zero,51
   10800:	360090ef          	jal	ra,19b60 <fixed_scalar>
   10804:	6a0c8c93          	addi	s9,s9,1696 # 186a0 <fn_from_be+0x120>
   10808:	855e                	c.mv	a0,s7
   1080a:	04400593          	addi	a1,zero,68
   1080e:	352090ef          	jal	ra,19b60 <fixed_scalar>
   10812:	843d0d13          	addi	s10,s10,-1981
   10816:	13a8                	c.addi4spn	a0,sp,488
   10818:	4661                	c.li	a2,24
   1081a:	45c9                	c.li	a1,18
   1081c:	ef5ff0ef          	jal	ra,10710 <memset@plt>
   10820:	009097b7          	lui	a5,0x909
   10824:	09178793          	addi	a5,a5,145 # 909091 <__BSS_END__+0x85c8a1>
   10828:	07b2                	c.slli	a5,0xc
   1082a:	138c                	c.addi4spn	a1,sp,480
   1082c:	90978793          	addi	a5,a5,-1783
   10830:	852e                	c.mv	a0,a1
   10832:	07b6                	c.slli	a5,0xd
   10834:	12178793          	addi	a5,a5,289
   10838:	07b2                	c.slli	a5,0xc
   1083a:	21378793          	addi	a5,a5,531
   1083e:	f3be                	c.sdsp	a5,480(sp)
   10840:	1a0020ef          	jal	ra,129e0 <fp_to_mont>
   10844:	0c800a13          	addi	s4,zero,200
   10848:	1390                	c.addi4spn	a2,sp,480
   1084a:	3a7d                	c.addiw	s4,-1
   1084c:	85b2                	c.mv	a1,a2
   1084e:	8532                	c.mv	a0,a2
   10850:	731010ef          	jal	ra,12780 <fp_mont_mul>
   10854:	fe0a1ae3          	bne	s4,zero,10848 <main+0x128>
   10858:	c0002a73          	csrrs	s4,cycle,zero
   1085c:	4c01                	c.li	s8,0
   1085e:	a021                	c.j	10866 <main+0x146>
   10860:	2c05                	c.addiw	s8,1
   10862:	039c0863          	beq	s8,s9,10892 <main+0x172>
   10866:	1390                	c.addi4spn	a2,sp,480
   10868:	85b2                	c.mv	a1,a2
   1086a:	8532                	c.mv	a0,a2
   1086c:	715010ef          	jal	ra,12780 <fp_mont_mul>
   10870:	07fc7793          	andi	a5,s8,127
   10874:	f7f5                	c.bnez	a5,10860 <main+0x140>
   10876:	139c                	c.addi4spn	a5,sp,480
   10878:	0007c703          	lbu	a4,0(a5)
   1087c:	0785                	c.addi	a5,1
   1087e:	8181c683          	lbu	a3,-2024(gp) # 1d060 <bench_sink>
   10882:	8f35                	c.xor	a4,a3
   10884:	80e18c23          	sb	a4,-2024(gp) # 1d060 <bench_sink>
   10888:	fef918e3          	bne	s2,a5,10878 <main+0x158>
   1088c:	2c05                	c.addiw	s8,1
   1088e:	fd9c1ce3          	bne	s8,s9,10866 <main+0x146>
   10892:	c0002773          	csrrs	a4,cycle,zero
   10896:	41470733          	sub	a4,a4,s4
   1089a:	139c                	c.addi4spn	a5,sp,480
   1089c:	8315                	c.srli	a4,0x5
   1089e:	03a73733          	mulhu	a4,a4,s10
   108a2:	831d                	c.srli	a4,0x7
   108a4:	00e9b023          	sd	a4,0(s3)
   108a8:	0007c703          	lbu	a4,0(a5)
   108ac:	0785                	c.addi	a5,1
   108ae:	8181c683          	lbu	a3,-2024(gp) # 1d060 <bench_sink>
   108b2:	8f35                	c.xor	a4,a3
   108b4:	80e18c23          	sb	a4,-2024(gp) # 1d060 <bench_sink>
   108b8:	fef918e3          	bne	s2,a5,108a8 <main+0x188>
   108bc:	09a1                	c.addi	s3,8
   108be:	f93a93e3          	bne	s5,s3,10844 <main+0x124>
   108c2:	85a2                	c.mv	a1,s0
   108c4:	6569                	c.lui	a0,0x1a
   108c6:	49050513          	addi	a0,a0,1168 # 1a490 <SM2_GY_BYTES+0xe0>
   108ca:	000a8d37          	lui	s10,0xa8
   108ce:	2d2090ef          	jal	ra,19ba0 <print_stats.constprop.0>
   108d2:	c5bd0d13          	addi	s10,s10,-933 # a7c5b <__global_pointer$+0x8a413>
   108d6:	13a8                	c.addi4spn	a0,sp,488
   108d8:	4661                	c.li	a2,24
   108da:	05600593          	addi	a1,zero,86
   108de:	e33ff0ef          	jal	ra,10710 <memset@plt>
   108e2:	02b2b7b7          	lui	a5,0x2b2b
   108e6:	2b378793          	addi	a5,a5,691 # 2b2b2b3 <__BSS_END__+0x2a7eac3>
   108ea:	07b2                	c.slli	a5,0xc
   108ec:	0d32                	c.slli	s10,0xc
   108ee:	b2b78793          	addi	a5,a5,-1237
   108f2:	c47d0d13          	addi	s10,s10,-953
   108f6:	07b6                	c.slli	a5,0xd
   108f8:	0d36                	c.slli	s10,0xd
   108fa:	56578793          	addi	a5,a5,1381
   108fe:	369d0d13          	addi	s10,s10,873
   10902:	138c                	c.addi4spn	a1,sp,480
   10904:	07b2                	c.slli	a5,0xc
   10906:	0d3e                	c.slli	s10,0xf
   10908:	65778793          	addi	a5,a5,1623
   1090c:	852e                	c.mv	a0,a1
   1090e:	6ce1                	c.lui	s9,0x18
   10910:	89a2                	c.mv	s3,s0
   10912:	6a0c8c93          	addi	s9,s9,1696 # 186a0 <fn_from_be+0x120>
   10916:	843d0d13          	addi	s10,s10,-1981
   1091a:	f3be                	c.sdsp	a5,480(sp)
   1091c:	0c4020ef          	jal	ra,129e0 <fp_to_mont>
   10920:	0c800a13          	addi	s4,zero,200
   10924:	138c                	c.addi4spn	a1,sp,480
   10926:	3a7d                	c.addiw	s4,-1
   10928:	852e                	c.mv	a0,a1
   1092a:	6b7010ef          	jal	ra,127e0 <fp_mont_sqr>
   1092e:	fe0a1be3          	bne	s4,zero,10924 <main+0x204>
   10932:	c0002a73          	csrrs	s4,cycle,zero
   10936:	4c01                	c.li	s8,0
   10938:	a021                	c.j	10940 <main+0x220>
   1093a:	2c05                	c.addiw	s8,1
   1093c:	039c0763          	beq	s8,s9,1096a <main+0x24a>
   10940:	138c                	c.addi4spn	a1,sp,480
   10942:	852e                	c.mv	a0,a1
   10944:	69d010ef          	jal	ra,127e0 <fp_mont_sqr>
   10948:	07fc7793          	andi	a5,s8,127
   1094c:	f7fd                	c.bnez	a5,1093a <main+0x21a>
   1094e:	139c                	c.addi4spn	a5,sp,480
   10950:	0007c703          	lbu	a4,0(a5)
   10954:	0785                	c.addi	a5,1
   10956:	8181c683          	lbu	a3,-2024(gp) # 1d060 <bench_sink>
   1095a:	8f35                	c.xor	a4,a3
   1095c:	80e18c23          	sb	a4,-2024(gp) # 1d060 <bench_sink>
   10960:	fef918e3          	bne	s2,a5,10950 <main+0x230>
   10964:	2c05                	c.addiw	s8,1
   10966:	fd9c1de3          	bne	s8,s9,10940 <main+0x220>
   1096a:	c0002773          	csrrs	a4,cycle,zero
   1096e:	41470733          	sub	a4,a4,s4
   10972:	139c                	c.addi4spn	a5,sp,480
   10974:	8315                	c.srli	a4,0x5
   10976:	03a73733          	mulhu	a4,a4,s10
   1097a:	831d                	c.srli	a4,0x7
   1097c:	00e9b023          	sd	a4,0(s3)
   10980:	0007c703          	lbu	a4,0(a5)
   10984:	0785                	c.addi	a5,1
   10986:	8181c683          	lbu	a3,-2024(gp) # 1d060 <bench_sink>
   1098a:	8f35                	c.xor	a4,a3
   1098c:	80e18c23          	sb	a4,-2024(gp) # 1d060 <bench_sink>
   10990:	fef918e3          	bne	s2,a5,10980 <main+0x260>
   10994:	09a1                	c.addi	s3,8
   10996:	f93a95e3          	bne	s5,s3,10920 <main+0x200>
   1099a:	85a2                	c.mv	a1,s0
   1099c:	6569                	c.lui	a0,0x1a
   1099e:	4a050513          	addi	a0,a0,1184 # 1a4a0 <SM2_GY_BYTES+0xf0>
   109a2:	0051fdb7          	lui	s11,0x51f
   109a6:	1fa090ef          	jal	ra,19ba0 <print_stats.constprop.0>
   109aa:	b85d8d93          	addi	s11,s11,-1147 # 51eb85 <__BSS_END__+0x472395>
   109ae:	1308                	c.addi4spn	a0,sp,416
   109b0:	4661                	c.li	a2,24
   109b2:	09a00593          	addi	a1,zero,154
   109b6:	d5bff0ef          	jal	ra,10710 <memset@plt>
   109ba:	fcd4d7b7          	lui	a5,0xfcd4d
   109be:	4d578793          	addi	a5,a5,1237 # fffffffffcd4d4d5 <__BSS_END__+0xfffffffffcca0ce5>
   109c2:	07b2                	c.slli	a5,0xc
   109c4:	0db6                	c.slli	s11,0xd
   109c6:	d4d78793          	addi	a5,a5,-691
   109ca:	3d7d8d93          	addi	s11,s11,983
   109ce:	07b2                	c.slli	a5,0xc
   109d0:	0dba                	c.slli	s11,0xe
   109d2:	4d578793          	addi	a5,a5,1237
   109d6:	28fd8d93          	addi	s11,s11,655
   109da:	0b2c                	c.addi4spn	a1,sp,408
   109dc:	07b6                	c.slli	a5,0xd
   109de:	0db2                	c.slli	s11,0xc
   109e0:	a9b78793          	addi	a5,a5,-1381
   109e4:	852e                	c.mv	a0,a1
   109e6:	8c22                	c.mv	s8,s0
   109e8:	1b810993          	addi	s3,sp,440
   109ec:	5c3d8d93          	addi	s11,s11,1475
   109f0:	ef3e                	c.sdsp	a5,408(sp)
   109f2:	7ef010ef          	jal	ra,129e0 <fp_to_mont>
   109f6:	4ca9                	c.li	s9,10
   109f8:	0b2c                	c.addi4spn	a1,sp,408
   109fa:	1388                	c.addi4spn	a0,sp,480
   109fc:	1e010a13          	addi	s4,sp,480
   10a00:	0e0020ef          	jal	ra,12ae0 <fp_mont_inv>
   10a04:	87d2                	c.mv	a5,s4
   10a06:	0007c703          	lbu	a4,0(a5)
   10a0a:	0785                	c.addi	a5,1
   10a0c:	8181c683          	lbu	a3,-2024(gp) # 1d060 <bench_sink>
   10a10:	8f35                	c.xor	a4,a3
   10a12:	80e18c23          	sb	a4,-2024(gp) # 1d060 <bench_sink>
   10a16:	fef918e3          	bne	s2,a5,10a06 <main+0x2e6>
   10a1a:	3cfd                	c.addiw	s9,-1
   10a1c:	fc0c9ee3          	bne	s9,zero,109f8 <main+0x2d8>
   10a20:	c0002d73          	csrrs	s10,cycle,zero
   10a24:	0c800c93          	addi	s9,zero,200
   10a28:	0b2c                	c.addi4spn	a1,sp,408
   10a2a:	1388                	c.addi4spn	a0,sp,480
   10a2c:	0b4020ef          	jal	ra,12ae0 <fp_mont_inv>
   10a30:	3cfd                	c.addiw	s9,-1
   10a32:	0b2c                	c.addi4spn	a1,sp,408
   10a34:	1390                	c.addi4spn	a2,sp,480
   10a36:	852e                	c.mv	a0,a1
   10a38:	7c8010ef          	jal	ra,12200 <fp_mont_add>
   10a3c:	fe0c96e3          	bne	s9,zero,10a28 <main+0x308>
   10a40:	c00027f3          	csrrs	a5,cycle,zero
   10a44:	41a787b3          	sub	a5,a5,s10
   10a48:	838d                	c.srli	a5,0x3
   10a4a:	03b7b7b3          	mulhu	a5,a5,s11
   10a4e:	8389                	c.srli	a5,0x2
   10a50:	00fc3023          	sd	a5,0(s8)
   10a54:	000a4783          	lbu	a5,0(s4)
   10a58:	0a05                	c.addi	s4,1
   10a5a:	8181c703          	lbu	a4,-2024(gp) # 1d060 <bench_sink>
   10a5e:	8fb9                	c.xor	a5,a4
   10a60:	80f18c23          	sb	a5,-2024(gp) # 1d060 <bench_sink>
   10a64:	ff2a18e3          	bne	s4,s2,10a54 <main+0x334>
   10a68:	0b3c                	c.addi4spn	a5,sp,408
   10a6a:	0007c703          	lbu	a4,0(a5)
   10a6e:	0785                	c.addi	a5,1
   10a70:	8181c683          	lbu	a3,-2024(gp) # 1d060 <bench_sink>
   10a74:	8f35                	c.xor	a4,a3
   10a76:	80e18c23          	sb	a4,-2024(gp) # 1d060 <bench_sink>
   10a7a:	fef998e3          	bne	s3,a5,10a6a <main+0x34a>
   10a7e:	0c21                	c.addi	s8,8
   10a80:	f78a9be3          	bne	s5,s8,109f6 <main+0x2d6>
   10a84:	85a2                	c.mv	a1,s0
   10a86:	6569                	c.lui	a0,0x1a
   10a88:	4b050513          	addi	a0,a0,1200 # 1a4b0 <SM2_GY_BYTES+0x100>
   10a8c:	000a8db7          	lui	s11,0xa8
   10a90:	110090ef          	jal	ra,19ba0 <print_stats.constprop.0>
   10a94:	c5bd8d93          	addi	s11,s11,-933 # a7c5b <__global_pointer$+0x8a413>
   10a98:	0b28                	c.addi4spn	a0,sp,408
   10a9a:	02000613          	addi	a2,zero,32
   10a9e:	45c5                	c.li	a1,17
   10aa0:	c71ff0ef          	jal	ra,10710 <memset@plt>
   10aa4:	13a8                	c.addi4spn	a0,sp,488
   10aa6:	4661                	c.li	a2,24
   10aa8:	0aa00593          	addi	a1,zero,170
   10aac:	c65ff0ef          	jal	ra,10710 <memset@plt>
   10ab0:	faaab7b7          	lui	a5,0xfaaab
   10ab4:	aab78793          	addi	a5,a5,-1365 # fffffffffaaaaaab <__BSS_END__+0xfffffffffa9fe2bb>
   10ab8:	07b2                	c.slli	a5,0xc
   10aba:	0db2                	c.slli	s11,0xc
   10abc:	aab78793          	addi	a5,a5,-1365
   10ac0:	0b2c                	c.addi4spn	a1,sp,408
   10ac2:	07b2                	c.slli	a5,0xc
   10ac4:	c47d8d93          	addi	s11,s11,-953
   10ac8:	aab78793          	addi	a5,a5,-1365
   10acc:	852e                	c.mv	a0,a1
   10ace:	07b2                	c.slli	a5,0xc
   10ad0:	0db6                	c.slli	s11,0xd
   10ad2:	aab78793          	addi	a5,a5,-1365
   10ad6:	369d8d93          	addi	s11,s11,873
   10ada:	f3be                	c.sdsp	a5,480(sp)
   10adc:	705010ef          	jal	ra,129e0 <fp_to_mont>
   10ae0:	138c                	c.addi4spn	a1,sp,480
   10ae2:	0dbe                	c.slli	s11,0xf
   10ae4:	852e                	c.mv	a0,a1
   10ae6:	6d61                	c.lui	s10,0x18
   10ae8:	8a22                	c.mv	s4,s0
   10aea:	6a0d0d13          	addi	s10,s10,1696 # 186a0 <fn_from_be+0x120>
   10aee:	843d8d93          	addi	s11,s11,-1981
   10af2:	6ef010ef          	jal	ra,129e0 <fp_to_mont>
   10af6:	0c800c13          	addi	s8,zero,200
   10afa:	0b2c                	c.addi4spn	a1,sp,408
   10afc:	1390                	c.addi4spn	a2,sp,480
   10afe:	852e                	c.mv	a0,a1
   10b00:	3c7d                	c.addiw	s8,-1
   10b02:	6fe010ef          	jal	ra,12200 <fp_mont_add>
   10b06:	fe0c1ae3          	bne	s8,zero,10afa <main+0x3da>
   10b0a:	c0002c73          	csrrs	s8,cycle,zero
   10b0e:	4c81                	c.li	s9,0
   10b10:	a021                	c.j	10b18 <main+0x3f8>
   10b12:	2c85                	c.addiw	s9,1
   10b14:	03ac8863          	beq	s9,s10,10b44 <main+0x424>
   10b18:	0b2c                	c.addi4spn	a1,sp,408
   10b1a:	1390                	c.addi4spn	a2,sp,480
   10b1c:	852e                	c.mv	a0,a1
   10b1e:	6e2010ef          	jal	ra,12200 <fp_mont_add>
   10b22:	07fcf793          	andi	a5,s9,127
   10b26:	f7f5                	c.bnez	a5,10b12 <main+0x3f2>
   10b28:	0b3c                	c.addi4spn	a5,sp,408
   10b2a:	0007c703          	lbu	a4,0(a5)
   10b2e:	0785                	c.addi	a5,1
   10b30:	8181c683          	lbu	a3,-2024(gp) # 1d060 <bench_sink>
   10b34:	8f35                	c.xor	a4,a3
   10b36:	80e18c23          	sb	a4,-2024(gp) # 1d060 <bench_sink>
   10b3a:	fef998e3          	bne	s3,a5,10b2a <main+0x40a>
   10b3e:	2c85                	c.addiw	s9,1
   10b40:	fdac9ce3          	bne	s9,s10,10b18 <main+0x3f8>
   10b44:	c0002773          	csrrs	a4,cycle,zero
   10b48:	41870733          	sub	a4,a4,s8
   10b4c:	0b3c                	c.addi4spn	a5,sp,408
   10b4e:	8315                	c.srli	a4,0x5
   10b50:	03b73733          	mulhu	a4,a4,s11
   10b54:	831d                	c.srli	a4,0x7
   10b56:	00ea3023          	sd	a4,0(s4)
   10b5a:	0007c703          	lbu	a4,0(a5)
   10b5e:	0785                	c.addi	a5,1
   10b60:	8181c683          	lbu	a3,-2024(gp) # 1d060 <bench_sink>
   10b64:	8f35                	c.xor	a4,a3
   10b66:	80e18c23          	sb	a4,-2024(gp) # 1d060 <bench_sink>
   10b6a:	fef998e3          	bne	s3,a5,10b5a <main+0x43a>
   10b6e:	0a21                	c.addi	s4,8
   10b70:	f94a93e3          	bne	s5,s4,10af6 <main+0x3d6>
   10b74:	85a2                	c.mv	a1,s0
   10b76:	6569                	c.lui	a0,0x1a
   10b78:	4c050513          	addi	a0,a0,1216 # 1a4c0 <SM2_GY_BYTES+0x110>
   10b7c:	000a8db7          	lui	s11,0xa8
   10b80:	020090ef          	jal	ra,19ba0 <print_stats.constprop.0>
   10b84:	c5bd8d93          	addi	s11,s11,-933 # a7c5b <__global_pointer$+0x8a413>
   10b88:	0b28                	c.addi4spn	a0,sp,408
   10b8a:	02000613          	addi	a2,zero,32
   10b8e:	05500593          	addi	a1,zero,85
   10b92:	b7fff0ef          	jal	ra,10710 <memset@plt>
   10b96:	13a8                	c.addi4spn	a0,sp,488
   10b98:	4661                	c.li	a2,24
   10b9a:	02200593          	addi	a1,zero,34
   10b9e:	b73ff0ef          	jal	ra,10710 <memset@plt>
   10ba2:	011117b7          	lui	a5,0x1111
   10ba6:	11178793          	addi	a5,a5,273 # 1111111 <__BSS_END__+0x1064921>
   10baa:	07b2                	c.slli	a5,0xc
   10bac:	0db2                	c.slli	s11,0xc
   10bae:	11178793          	addi	a5,a5,273
   10bb2:	0b2c                	c.addi4spn	a1,sp,408
   10bb4:	07b2                	c.slli	a5,0xc
   10bb6:	c47d8d93          	addi	s11,s11,-953
   10bba:	11178793          	addi	a5,a5,273
   10bbe:	852e                	c.mv	a0,a1
   10bc0:	07b6                	c.slli	a5,0xd
   10bc2:	0db6                	c.slli	s11,0xd
   10bc4:	22378793          	addi	a5,a5,547
   10bc8:	369d8d93          	addi	s11,s11,873
   10bcc:	f3be                	c.sdsp	a5,480(sp)
   10bce:	613010ef          	jal	ra,129e0 <fp_to_mont>
   10bd2:	138c                	c.addi4spn	a1,sp,480
   10bd4:	0dbe                	c.slli	s11,0xf
   10bd6:	852e                	c.mv	a0,a1
   10bd8:	6d61                	c.lui	s10,0x18
   10bda:	8a22                	c.mv	s4,s0
   10bdc:	6a0d0d13          	addi	s10,s10,1696 # 186a0 <fn_from_be+0x120>
   10be0:	843d8d93          	addi	s11,s11,-1981
   10be4:	5fd010ef          	jal	ra,129e0 <fp_to_mont>
   10be8:	0c800c13          	addi	s8,zero,200
   10bec:	0b2c                	c.addi4spn	a1,sp,408
   10bee:	1390                	c.addi4spn	a2,sp,480
   10bf0:	852e                	c.mv	a0,a1
   10bf2:	3c7d                	c.addiw	s8,-1
   10bf4:	72c010ef          	jal	ra,12320 <fp_mont_sub>
   10bf8:	fe0c1ae3          	bne	s8,zero,10bec <main+0x4cc>
   10bfc:	c0002c73          	csrrs	s8,cycle,zero
   10c00:	4c81                	c.li	s9,0
   10c02:	a021                	c.j	10c0a <main+0x4ea>
   10c04:	2c85                	c.addiw	s9,1
   10c06:	03ac8863          	beq	s9,s10,10c36 <main+0x516>
   10c0a:	0b2c                	c.addi4spn	a1,sp,408
   10c0c:	1390                	c.addi4spn	a2,sp,480
   10c0e:	852e                	c.mv	a0,a1
   10c10:	710010ef          	jal	ra,12320 <fp_mont_sub>
   10c14:	07fcf793          	andi	a5,s9,127
   10c18:	f7f5                	c.bnez	a5,10c04 <main+0x4e4>
   10c1a:	0b3c                	c.addi4spn	a5,sp,408
   10c1c:	0007c703          	lbu	a4,0(a5)
   10c20:	0785                	c.addi	a5,1
   10c22:	8181c683          	lbu	a3,-2024(gp) # 1d060 <bench_sink>
   10c26:	8f35                	c.xor	a4,a3
   10c28:	80e18c23          	sb	a4,-2024(gp) # 1d060 <bench_sink>
   10c2c:	fef998e3          	bne	s3,a5,10c1c <main+0x4fc>
   10c30:	2c85                	c.addiw	s9,1
   10c32:	fdac9ce3          	bne	s9,s10,10c0a <main+0x4ea>
   10c36:	c0002773          	csrrs	a4,cycle,zero
   10c3a:	41870733          	sub	a4,a4,s8
   10c3e:	0b3c                	c.addi4spn	a5,sp,408
   10c40:	8315                	c.srli	a4,0x5
   10c42:	03b73733          	mulhu	a4,a4,s11
   10c46:	831d                	c.srli	a4,0x7
   10c48:	00ea3023          	sd	a4,0(s4)
   10c4c:	0007c703          	lbu	a4,0(a5)
   10c50:	0785                	c.addi	a5,1
   10c52:	8181c683          	lbu	a3,-2024(gp) # 1d060 <bench_sink>
   10c56:	8f35                	c.xor	a4,a3
   10c58:	80e18c23          	sb	a4,-2024(gp) # 1d060 <bench_sink>
   10c5c:	ff3798e3          	bne	a5,s3,10c4c <main+0x52c>
   10c60:	0a21                	c.addi	s4,8
   10c62:	f94a93e3          	bne	s5,s4,10be8 <main+0x4c8>
   10c66:	000a8d37          	lui	s10,0xa8
   10c6a:	c5bd0d13          	addi	s10,s10,-933 # a7c5b <__global_pointer$+0x8a413>
   10c6e:	0d32                	c.slli	s10,0xc
   10c70:	85a2                	c.mv	a1,s0
   10c72:	c47d0d13          	addi	s10,s10,-953
   10c76:	6569                	c.lui	a0,0x1a
   10c78:	0d36                	c.slli	s10,0xd
   10c7a:	4d050513          	addi	a0,a0,1232 # 1a4d0 <SM2_GY_BYTES+0x120>
   10c7e:	369d0d13          	addi	s10,s10,873
   10c82:	71f080ef          	jal	ra,19ba0 <print_stats.constprop.0>
   10c86:	0d3e                	c.slli	s10,0xf
   10c88:	0b28                	c.addi4spn	a0,sp,408
   10c8a:	6ce1                	c.lui	s9,0x18
   10c8c:	89a2                	c.mv	s3,s0
   10c8e:	6a0c8c93          	addi	s9,s9,1696 # 186a0 <fn_from_be+0x120>
   10c92:	843d0d13          	addi	s10,s10,-1981
   10c96:	02000613          	addi	a2,zero,32
   10c9a:	03300593          	addi	a1,zero,51
   10c9e:	a73ff0ef          	jal	ra,10710 <memset@plt>
   10ca2:	0c800a13          	addi	s4,zero,200
   10ca6:	0b2c                	c.addi4spn	a1,sp,408
   10ca8:	1388                	c.addi4spn	a0,sp,480
   10caa:	3a7d                	c.addiw	s4,-1
   10cac:	535010ef          	jal	ra,129e0 <fp_to_mont>
   10cb0:	fe0a1be3          	bne	s4,zero,10ca6 <main+0x586>
   10cb4:	c0002a73          	csrrs	s4,cycle,zero
   10cb8:	4c01                	c.li	s8,0
   10cba:	a021                	c.j	10cc2 <main+0x5a2>
   10cbc:	2c05                	c.addiw	s8,1
   10cbe:	039c0763          	beq	s8,s9,10cec <main+0x5cc>
   10cc2:	0b2c                	c.addi4spn	a1,sp,408
   10cc4:	1388                	c.addi4spn	a0,sp,480
   10cc6:	51b010ef          	jal	ra,129e0 <fp_to_mont>
   10cca:	07fc7793          	andi	a5,s8,127
   10cce:	f7fd                	c.bnez	a5,10cbc <main+0x59c>
   10cd0:	139c                	c.addi4spn	a5,sp,480
   10cd2:	0007c703          	lbu	a4,0(a5)
   10cd6:	0785                	c.addi	a5,1
   10cd8:	8181c683          	lbu	a3,-2024(gp) # 1d060 <bench_sink>
   10cdc:	8f35                	c.xor	a4,a3
   10cde:	80e18c23          	sb	a4,-2024(gp) # 1d060 <bench_sink>
   10ce2:	ff2798e3          	bne	a5,s2,10cd2 <main+0x5b2>
   10ce6:	2c05                	c.addiw	s8,1
   10ce8:	fd9c1de3          	bne	s8,s9,10cc2 <main+0x5a2>
   10cec:	c0002773          	csrrs	a4,cycle,zero
   10cf0:	41470733          	sub	a4,a4,s4
   10cf4:	139c                	c.addi4spn	a5,sp,480
   10cf6:	8315                	c.srli	a4,0x5
   10cf8:	03a73733          	mulhu	a4,a4,s10
   10cfc:	831d                	c.srli	a4,0x7
   10cfe:	00e9b023          	sd	a4,0(s3)
   10d02:	0007c703          	lbu	a4,0(a5)
   10d06:	0785                	c.addi	a5,1
   10d08:	8181c683          	lbu	a3,-2024(gp) # 1d060 <bench_sink>
   10d0c:	8f35                	c.xor	a4,a3
   10d0e:	80e18c23          	sb	a4,-2024(gp) # 1d060 <bench_sink>
   10d12:	ff2798e3          	bne	a5,s2,10d02 <main+0x5e2>
   10d16:	09a1                	c.addi	s3,8
   10d18:	f93a95e3          	bne	s5,s3,10ca2 <main+0x582>
   10d1c:	000a8d37          	lui	s10,0xa8
   10d20:	c5bd0d13          	addi	s10,s10,-933 # a7c5b <__global_pointer$+0x8a413>
   10d24:	85a2                	c.mv	a1,s0
   10d26:	0d32                	c.slli	s10,0xc
   10d28:	6569                	c.lui	a0,0x1a
   10d2a:	4e050513          	addi	a0,a0,1248 # 1a4e0 <SM2_GY_BYTES+0x130>
   10d2e:	673080ef          	jal	ra,19ba0 <print_stats.constprop.0>
   10d32:	c47d0d13          	addi	s10,s10,-953
   10d36:	0b28                	c.addi4spn	a0,sp,408
   10d38:	0d36                	c.slli	s10,0xd
   10d3a:	02000613          	addi	a2,zero,32
   10d3e:	07700593          	addi	a1,zero,119
   10d42:	369d0d13          	addi	s10,s10,873
   10d46:	9cbff0ef          	jal	ra,10710 <memset@plt>
   10d4a:	0b2c                	c.addi4spn	a1,sp,408
   10d4c:	0d3e                	c.slli	s10,0xf
   10d4e:	852e                	c.mv	a0,a1
   10d50:	6ce1                	c.lui	s9,0x18
   10d52:	89a2                	c.mv	s3,s0
   10d54:	6a0c8c93          	addi	s9,s9,1696 # 186a0 <fn_from_be+0x120>
   10d58:	843d0d13          	addi	s10,s10,-1981
   10d5c:	485010ef          	jal	ra,129e0 <fp_to_mont>
   10d60:	0c800a13          	addi	s4,zero,200
   10d64:	0b2c                	c.addi4spn	a1,sp,408
   10d66:	1388                	c.addi4spn	a0,sp,480
   10d68:	3a7d                	c.addiw	s4,-1
   10d6a:	4f7010ef          	jal	ra,12a60 <fp_from_mont>
   10d6e:	fe0a1be3          	bne	s4,zero,10d64 <main+0x644>
   10d72:	c0002a73          	csrrs	s4,cycle,zero
   10d76:	4c01                	c.li	s8,0
   10d78:	a021                	c.j	10d80 <main+0x660>
   10d7a:	2c05                	c.addiw	s8,1
   10d7c:	039c0763          	beq	s8,s9,10daa <main+0x68a>
   10d80:	0b2c                	c.addi4spn	a1,sp,408
   10d82:	1388                	c.addi4spn	a0,sp,480
   10d84:	4dd010ef          	jal	ra,12a60 <fp_from_mont>
   10d88:	07fc7793          	andi	a5,s8,127
   10d8c:	f7fd                	c.bnez	a5,10d7a <main+0x65a>
   10d8e:	139c                	c.addi4spn	a5,sp,480
   10d90:	0007c703          	lbu	a4,0(a5)
   10d94:	0785                	c.addi	a5,1
   10d96:	8181c683          	lbu	a3,-2024(gp) # 1d060 <bench_sink>
   10d9a:	8f35                	c.xor	a4,a3
   10d9c:	80e18c23          	sb	a4,-2024(gp) # 1d060 <bench_sink>
   10da0:	fef918e3          	bne	s2,a5,10d90 <main+0x670>
   10da4:	2c05                	c.addiw	s8,1
   10da6:	fd9c1de3          	bne	s8,s9,10d80 <main+0x660>
   10daa:	c0002773          	csrrs	a4,cycle,zero
   10dae:	41470733          	sub	a4,a4,s4
   10db2:	139c                	c.addi4spn	a5,sp,480
   10db4:	8315                	c.srli	a4,0x5
   10db6:	03a73733          	mulhu	a4,a4,s10
   10dba:	831d                	c.srli	a4,0x7
   10dbc:	00e9b023          	sd	a4,0(s3)
   10dc0:	0007c703          	lbu	a4,0(a5)
   10dc4:	0785                	c.addi	a5,1
   10dc6:	8181c683          	lbu	a3,-2024(gp) # 1d060 <bench_sink>
   10dca:	8f35                	c.xor	a4,a3
   10dcc:	80e18c23          	sb	a4,-2024(gp) # 1d060 <bench_sink>
   10dd0:	fef918e3          	bne	s2,a5,10dc0 <main+0x6a0>
   10dd4:	09a1                	c.addi	s3,8
   10dd6:	f93a95e3          	bne	s5,s3,10d60 <main+0x640>
   10dda:	001a3d37          	lui	s10,0x1a3
   10dde:	6e3d0d13          	addi	s10,s10,1763 # 1a36e3 <__BSS_END__+0xf6ef3>
   10de2:	0d3a                	c.slli	s10,0xe
   10de4:	85a2                	c.mv	a1,s0
   10de6:	ac7d0d13          	addi	s10,s10,-1337
   10dea:	6569                	c.lui	a0,0x1a
   10dec:	4f050513          	addi	a0,a0,1264 # 1a4f0 <SM2_GY_BYTES+0x140>
   10df0:	0d3a                	c.slli	s10,0xe
   10df2:	5af080ef          	jal	ra,19ba0 <print_stats.constprop.0>
   10df6:	433d0d13          	addi	s10,s10,1075
   10dfa:	0a88                	c.addi4spn	a0,sp,336
   10dfc:	02000613          	addi	a2,zero,32
   10e00:	02100593          	addi	a1,zero,33
   10e04:	0d36                	c.slli	s10,0xd
   10e06:	90bff0ef          	jal	ra,10710 <memset@plt>
   10e0a:	6c95                	c.lui	s9,0x5
   10e0c:	0b28                	c.addi4spn	a0,sp,408
   10e0e:	89a2                	c.mv	s3,s0
   10e10:	e20c8c93          	addi	s9,s9,-480 # 4e20 <__abi_tag-0xb498>
   10e14:	94bd0d13          	addi	s10,s10,-1717
   10e18:	02000613          	addi	a2,zero,32
   10e1c:	04300593          	addi	a1,zero,67
   10e20:	8f1ff0ef          	jal	ra,10710 <memset@plt>
   10e24:	06400a13          	addi	s4,zero,100
   10e28:	0b30                	c.addi4spn	a2,sp,408
   10e2a:	0a8c                	c.addi4spn	a1,sp,336
   10e2c:	1388                	c.addi4spn	a0,sp,480
   10e2e:	3a7d                	c.addiw	s4,-1
   10e30:	5e5080ef          	jal	ra,19c14 <fn_mont_mul_ct>
   10e34:	779e                	c.ldsp	a5,480(sp)
   10e36:	eabe                	c.sdsp	a5,336(sp)
   10e38:	77be                	c.ldsp	a5,488(sp)
   10e3a:	eebe                	c.sdsp	a5,344(sp)
   10e3c:	77de                	c.ldsp	a5,496(sp)
   10e3e:	f2be                	c.sdsp	a5,352(sp)
   10e40:	77fe                	c.ldsp	a5,504(sp)
   10e42:	f6be                	c.sdsp	a5,360(sp)
   10e44:	fe0a12e3          	bne	s4,zero,10e28 <main+0x708>
   10e48:	c0002a73          	csrrs	s4,cycle,zero
   10e4c:	4c01                	c.li	s8,0
   10e4e:	a021                	c.j	10e56 <main+0x736>
   10e50:	2c05                	c.addiw	s8,1
   10e52:	059c0063          	beq	s8,s9,10e92 <main+0x772>
   10e56:	0b30                	c.addi4spn	a2,sp,408
   10e58:	0a8c                	c.addi4spn	a1,sp,336
   10e5a:	1388                	c.addi4spn	a0,sp,480
   10e5c:	5b9080ef          	jal	ra,19c14 <fn_mont_mul_ct>
   10e60:	771e                	c.ldsp	a4,480(sp)
   10e62:	0ffc7793          	andi	a5,s8,255
   10e66:	eaba                	c.sdsp	a4,336(sp)
   10e68:	773e                	c.ldsp	a4,488(sp)
   10e6a:	eeba                	c.sdsp	a4,344(sp)
   10e6c:	775e                	c.ldsp	a4,496(sp)
   10e6e:	f2ba                	c.sdsp	a4,352(sp)
   10e70:	777e                	c.ldsp	a4,504(sp)
   10e72:	f6ba                	c.sdsp	a4,360(sp)
   10e74:	fff1                	c.bnez	a5,10e50 <main+0x730>
   10e76:	139c                	c.addi4spn	a5,sp,480
   10e78:	0007c703          	lbu	a4,0(a5)
   10e7c:	0785                	c.addi	a5,1
   10e7e:	8181c683          	lbu	a3,-2024(gp) # 1d060 <bench_sink>
   10e82:	8f35                	c.xor	a4,a3
   10e84:	80e18c23          	sb	a4,-2024(gp) # 1d060 <bench_sink>
   10e88:	fef918e3          	bne	s2,a5,10e78 <main+0x758>
   10e8c:	2c05                	c.addiw	s8,1
   10e8e:	fd9c14e3          	bne	s8,s9,10e56 <main+0x736>
   10e92:	c0002773          	csrrs	a4,cycle,zero
   10e96:	41470733          	sub	a4,a4,s4
   10e9a:	139c                	c.addi4spn	a5,sp,480
   10e9c:	03a73733          	mulhu	a4,a4,s10
   10ea0:	8331                	c.srli	a4,0xc
   10ea2:	00e9b023          	sd	a4,0(s3)
   10ea6:	0007c703          	lbu	a4,0(a5)
   10eaa:	0785                	c.addi	a5,1
   10eac:	8181c683          	lbu	a3,-2024(gp) # 1d060 <bench_sink>
   10eb0:	8f35                	c.xor	a4,a3
   10eb2:	80e18c23          	sb	a4,-2024(gp) # 1d060 <bench_sink>
   10eb6:	fef918e3          	bne	s2,a5,10ea6 <main+0x786>
   10eba:	09a1                	c.addi	s3,8
   10ebc:	f73a94e3          	bne	s5,s3,10e24 <main+0x704>
   10ec0:	001a3d37          	lui	s10,0x1a3
   10ec4:	6e3d0d13          	addi	s10,s10,1763 # 1a36e3 <__BSS_END__+0xf6ef3>
   10ec8:	0d3a                	c.slli	s10,0xe
   10eca:	85a2                	c.mv	a1,s0
   10ecc:	ac7d0d13          	addi	s10,s10,-1337
   10ed0:	6569                	c.lui	a0,0x1a
   10ed2:	50050513          	addi	a0,a0,1280 # 1a500 <SM2_GY_BYTES+0x150>
   10ed6:	0d3a                	c.slli	s10,0xe
   10ed8:	4c9080ef          	jal	ra,19ba0 <print_stats.constprop.0>
   10edc:	433d0d13          	addi	s10,s10,1075
   10ee0:	0a88                	c.addi4spn	a0,sp,336
   10ee2:	02000613          	addi	a2,zero,32
   10ee6:	02100593          	addi	a1,zero,33
   10eea:	0d36                	c.slli	s10,0xd
   10eec:	825ff0ef          	jal	ra,10710 <memset@plt>
   10ef0:	6c95                	c.lui	s9,0x5
   10ef2:	0b28                	c.addi4spn	a0,sp,408
   10ef4:	89a2                	c.mv	s3,s0
   10ef6:	e20c8c93          	addi	s9,s9,-480 # 4e20 <__abi_tag-0xb498>
   10efa:	94bd0d13          	addi	s10,s10,-1717
   10efe:	02000613          	addi	a2,zero,32
   10f02:	04300593          	addi	a1,zero,67
   10f06:	80bff0ef          	jal	ra,10710 <memset@plt>
   10f0a:	06400a13          	addi	s4,zero,100
   10f0e:	0b30                	c.addi4spn	a2,sp,408
   10f10:	0a8c                	c.addi4spn	a1,sp,336
   10f12:	1388                	c.addi4spn	a0,sp,480
   10f14:	3a7d                	c.addiw	s4,-1
   10f16:	3ab070ef          	jal	ra,18ac0 <fn_mul>
   10f1a:	779e                	c.ldsp	a5,480(sp)
   10f1c:	eabe                	c.sdsp	a5,336(sp)
   10f1e:	77be                	c.ldsp	a5,488(sp)
   10f20:	eebe                	c.sdsp	a5,344(sp)
   10f22:	77de                	c.ldsp	a5,496(sp)
   10f24:	f2be                	c.sdsp	a5,352(sp)
   10f26:	77fe                	c.ldsp	a5,504(sp)
   10f28:	f6be                	c.sdsp	a5,360(sp)
   10f2a:	fe0a12e3          	bne	s4,zero,10f0e <main+0x7ee>
   10f2e:	c0002a73          	csrrs	s4,cycle,zero
   10f32:	4c01                	c.li	s8,0
   10f34:	a021                	c.j	10f3c <main+0x81c>
   10f36:	2c05                	c.addiw	s8,1
   10f38:	059c0063          	beq	s8,s9,10f78 <main+0x858>
   10f3c:	0b30                	c.addi4spn	a2,sp,408
   10f3e:	0a8c                	c.addi4spn	a1,sp,336
   10f40:	1388                	c.addi4spn	a0,sp,480
   10f42:	37f070ef          	jal	ra,18ac0 <fn_mul>
   10f46:	771e                	c.ldsp	a4,480(sp)
   10f48:	0ffc7793          	andi	a5,s8,255
   10f4c:	eaba                	c.sdsp	a4,336(sp)
   10f4e:	773e                	c.ldsp	a4,488(sp)
   10f50:	eeba                	c.sdsp	a4,344(sp)
   10f52:	775e                	c.ldsp	a4,496(sp)
   10f54:	f2ba                	c.sdsp	a4,352(sp)
   10f56:	777e                	c.ldsp	a4,504(sp)
   10f58:	f6ba                	c.sdsp	a4,360(sp)
   10f5a:	fff1                	c.bnez	a5,10f36 <main+0x816>
   10f5c:	139c                	c.addi4spn	a5,sp,480
   10f5e:	0007c703          	lbu	a4,0(a5)
   10f62:	0785                	c.addi	a5,1
   10f64:	8181c683          	lbu	a3,-2024(gp) # 1d060 <bench_sink>
   10f68:	8f35                	c.xor	a4,a3
   10f6a:	80e18c23          	sb	a4,-2024(gp) # 1d060 <bench_sink>
   10f6e:	fef918e3          	bne	s2,a5,10f5e <main+0x83e>
   10f72:	2c05                	c.addiw	s8,1
   10f74:	fd9c14e3          	bne	s8,s9,10f3c <main+0x81c>
   10f78:	c0002773          	csrrs	a4,cycle,zero
   10f7c:	41470733          	sub	a4,a4,s4
   10f80:	139c                	c.addi4spn	a5,sp,480
   10f82:	03a73733          	mulhu	a4,a4,s10
   10f86:	8331                	c.srli	a4,0xc
   10f88:	00e9b023          	sd	a4,0(s3)
   10f8c:	0007c703          	lbu	a4,0(a5)
   10f90:	0785                	c.addi	a5,1
   10f92:	8181c683          	lbu	a3,-2024(gp) # 1d060 <bench_sink>
   10f96:	8f35                	c.xor	a4,a3
   10f98:	80e18c23          	sb	a4,-2024(gp) # 1d060 <bench_sink>
   10f9c:	fef918e3          	bne	s2,a5,10f8c <main+0x86c>
   10fa0:	09a1                	c.addi	s3,8
   10fa2:	f73a94e3          	bne	s5,s3,10f0a <main+0x7ea>
   10fa6:	01062cb7          	lui	s9,0x1062
   10faa:	4ddc8c93          	addi	s9,s9,1245 # 10624dd <__BSS_END__+0xfb5ced>
   10fae:	0cb6                	c.slli	s9,0xd
   10fb0:	85a2                	c.mv	a1,s0
   10fb2:	5e3c8c93          	addi	s9,s9,1507
   10fb6:	6569                	c.lui	a0,0x1a
   10fb8:	0cb2                	c.slli	s9,0xc
   10fba:	51850513          	addi	a0,a0,1304 # 1a518 <SM2_GY_BYTES+0x168>
   10fbe:	53fc8c93          	addi	s9,s9,1343
   10fc2:	3df080ef          	jal	ra,19ba0 <print_stats.constprop.0>
   10fc6:	0cb2                	c.slli	s9,0xc
   10fc8:	022c                	c.addi4spn	a1,sp,264
   10fca:	1388                	c.addi4spn	a0,sp,480
   10fcc:	19810913          	addi	s2,sp,408
   10fd0:	1c010993          	addi	s3,sp,448
   10fd4:	28810c13          	addi	s8,sp,648
   10fd8:	7cfc8c93          	addi	s9,s9,1999
   10fdc:	104030ef          	jal	ra,140e0 <sm2_affine_to_mont>
   10fe0:	0001dd37          	lui	s10,0x1d
   10fe4:	050d3703          	ld	a4,80(s10) # 1d050 <g_state>
   10fe8:	0fac                	c.addi4spn	a1,sp,984
   10fea:	0a88                	c.addi4spn	a0,sp,336
   10fec:	00d71793          	slli	a5,a4,0xd
   10ff0:	8fb9                	c.xor	a5,a4
   10ff2:	0077d713          	srli	a4,a5,0x7
   10ff6:	8fb9                	c.xor	a5,a4
   10ff8:	01179713          	slli	a4,a5,0x11
   10ffc:	8fb9                	c.xor	a5,a4
   10ffe:	00d79693          	slli	a3,a5,0xd
   11002:	6b87d713          	rev8	a4,a5
   11006:	8fb5                	c.xor	a5,a3
   11008:	3ce13c23          	sd	a4,984(sp)
   1100c:	0077d713          	srli	a4,a5,0x7
   11010:	8fb9                	c.xor	a5,a4
   11012:	01179713          	slli	a4,a5,0x11
   11016:	8fb9                	c.xor	a5,a4
   11018:	00d79693          	slli	a3,a5,0xd
   1101c:	6b87d713          	rev8	a4,a5
   11020:	8fb5                	c.xor	a5,a3
   11022:	3ee13023          	sd	a4,992(sp)
   11026:	0077d713          	srli	a4,a5,0x7
   1102a:	8fb9                	c.xor	a5,a4
   1102c:	01179713          	slli	a4,a5,0x11
   11030:	8fb9                	c.xor	a5,a4
   11032:	00d79713          	slli	a4,a5,0xd
   11036:	6b87d693          	rev8	a3,a5
   1103a:	8fb9                	c.xor	a5,a4
   1103c:	3ed13423          	sd	a3,1000(sp)
   11040:	0077d713          	srli	a4,a5,0x7
   11044:	8fb9                	c.xor	a5,a4
   11046:	01179713          	slli	a4,a5,0x11
   1104a:	8fb9                	c.xor	a5,a4
   1104c:	6b87d713          	rev8	a4,a5
   11050:	04fd3823          	sd	a5,80(s10)
   11054:	3ee13823          	sd	a4,1008(sp)
   11058:	528070ef          	jal	ra,18580 <fn_from_be>
   1105c:	0a8c                	c.addi4spn	a1,sp,336
   1105e:	1f28                	c.addi4spn	a0,sp,952
   11060:	760070ef          	jal	ra,187c0 <fn_to_be>
   11064:	1f3c                	c.addi4spn	a5,sp,952
   11066:	0007c703          	lbu	a4,0(a5)
   1106a:	0785                	c.addi	a5,1
   1106c:	8181c683          	lbu	a3,-2024(gp) # 1d060 <bench_sink>
   11070:	8f35                	c.xor	a4,a3
   11072:	80e18c23          	sb	a4,-2024(gp) # 1d060 <bench_sink>
   11076:	0fb8                	c.addi4spn	a4,sp,984
   11078:	fef717e3          	bne	a4,a5,11066 <main+0x946>
   1107c:	3c013783          	ld	a5,960(sp)
   11080:	3b813703          	ld	a4,952(sp)
   11084:	8f5d                	c.or	a4,a5
   11086:	3c813783          	ld	a5,968(sp)
   1108a:	8f5d                	c.or	a4,a5
   1108c:	3d013783          	ld	a5,976(sp)
   11090:	8f5d                	c.or	a4,a5
   11092:	00875793          	srli	a5,a4,0x8
   11096:	01075693          	srli	a3,a4,0x10
   1109a:	8fd9                	c.or	a5,a4
   1109c:	01875613          	srli	a2,a4,0x18
   110a0:	8fd5                	c.or	a5,a3
   110a2:	02075693          	srli	a3,a4,0x20
   110a6:	8fd1                	c.or	a5,a2
   110a8:	02875613          	srli	a2,a4,0x28
   110ac:	8fd5                	c.or	a5,a3
   110ae:	03075693          	srli	a3,a4,0x30
   110b2:	8fd1                	c.or	a5,a2
   110b4:	9361                	c.srli	a4,0x38
   110b6:	8fd5                	c.or	a5,a3
   110b8:	8fd9                	c.or	a5,a4
   110ba:	0ff7f793          	andi	a5,a5,255
   110be:	d39d                	c.beqz	a5,10fe4 <main+0x8c4>
   110c0:	4a29                	c.li	s4,10
   110c2:	1f30                	c.addi4spn	a2,sp,952
   110c4:	138c                	c.addi4spn	a1,sp,480
   110c6:	8522                	c.mv	a0,s0
   110c8:	3a7d                	c.addiw	s4,-1
   110ca:	5d6050ef          	jal	ra,166a0 <sm2_scalar_mul_window_ct_schemeB_mont_affine_to_jacobian_mont>
   110ce:	fe0a1ae3          	bne	s4,zero,110c2 <main+0x9a2>
   110d2:	c0002a73          	csrrs	s4,cycle,zero
   110d6:	3e800a93          	addi	s5,zero,1000
   110da:	1f30                	c.addi4spn	a2,sp,952
   110dc:	138c                	c.addi4spn	a1,sp,480
   110de:	8522                	c.mv	a0,s0
   110e0:	5c0050ef          	jal	ra,166a0 <sm2_scalar_mul_window_ct_schemeB_mont_affine_to_jacobian_mont>
   110e4:	87a2                	c.mv	a5,s0
   110e6:	0007c703          	lbu	a4,0(a5)
   110ea:	0785                	c.addi	a5,1
   110ec:	8181c683          	lbu	a3,-2024(gp) # 1d060 <bench_sink>
   110f0:	8f35                	c.xor	a4,a3
   110f2:	80e18c23          	sb	a4,-2024(gp) # 1d060 <bench_sink>
   110f6:	fefc18e3          	bne	s8,a5,110e6 <main+0x9c6>
   110fa:	3afd                	c.addiw	s5,-1
   110fc:	fc0a9fe3          	bne	s5,zero,110da <main+0x9ba>
   11100:	c00027f3          	csrrs	a5,cycle,zero
   11104:	414787b3          	sub	a5,a5,s4
   11108:	0921                	c.addi	s2,8
   1110a:	838d                	c.srli	a5,0x3
   1110c:	0397b7b3          	mulhu	a5,a5,s9
   11110:	8391                	c.srli	a5,0x4
   11112:	fef93c23          	sd	a5,-8(s2)
   11116:	ed2997e3          	bne	s3,s2,10fe4 <main+0x8c4>
   1111a:	0b2c                	c.addi4spn	a1,sp,408
   1111c:	6569                	c.lui	a0,0x1a
   1111e:	53050513          	addi	a0,a0,1328 # 1a530 <SM2_GY_BYTES+0x180>
   11122:	31810913          	addi	s2,sp,792
   11126:	27b080ef          	jal	ra,19ba0 <print_stats.constprop.0>
   1112a:	29010a93          	addi	s5,sp,656
   1112e:	0051f737          	lui	a4,0x51f
   11132:	b8570713          	addi	a4,a4,-1147 # 51eb85 <__BSS_END__+0x472395>
   11136:	0736                	c.slli	a4,0xd
   11138:	119c                	c.addi4spn	a5,sp,224
   1113a:	3d770713          	addi	a4,a4,983
   1113e:	e4be                	c.sdsp	a5,72(sp)
   11140:	073a                	c.slli	a4,0xe
   11142:	193c                	c.addi4spn	a5,sp,184
   11144:	28f70713          	addi	a4,a4,655
   11148:	ecbe                	c.sdsp	a5,88(sp)
   1114a:	0732                	c.slli	a4,0xc
   1114c:	091c                	c.addi4spn	a5,sp,144
   1114e:	5c370713          	addi	a4,a4,1475
   11152:	e8be                	c.sdsp	a5,80(sp)
   11154:	35810993          	addi	s3,sp,856
   11158:	33810c93          	addi	s9,sp,824
   1115c:	f0ba                	c.sdsp	a4,96(sp)
   1115e:	4a15                	c.li	s4,5
   11160:	050d3703          	ld	a4,80(s10)
   11164:	0fac                	c.addi4spn	a1,sp,984
   11166:	1888                	c.addi4spn	a0,sp,112
   11168:	00d71793          	slli	a5,a4,0xd
   1116c:	8fb9                	c.xor	a5,a4
   1116e:	0077d713          	srli	a4,a5,0x7
   11172:	8fb9                	c.xor	a5,a4
   11174:	01179713          	slli	a4,a5,0x11
   11178:	8fb9                	c.xor	a5,a4
   1117a:	00d79693          	slli	a3,a5,0xd
   1117e:	6b87d713          	rev8	a4,a5
   11182:	8fb5                	c.xor	a5,a3
   11184:	3ce13c23          	sd	a4,984(sp)
   11188:	0077d713          	srli	a4,a5,0x7
   1118c:	8fb9                	c.xor	a5,a4
   1118e:	01179713          	slli	a4,a5,0x11
   11192:	8fb9                	c.xor	a5,a4
   11194:	00d79693          	slli	a3,a5,0xd
   11198:	6b87d713          	rev8	a4,a5
   1119c:	8fb5                	c.xor	a5,a3
   1119e:	3ee13023          	sd	a4,992(sp)
   111a2:	0077d713          	srli	a4,a5,0x7
   111a6:	8fb9                	c.xor	a5,a4
   111a8:	01179713          	slli	a4,a5,0x11
   111ac:	8fb9                	c.xor	a5,a4
   111ae:	00d79713          	slli	a4,a5,0xd
   111b2:	6b87d693          	rev8	a3,a5
   111b6:	8fb9                	c.xor	a5,a4
   111b8:	3ed13423          	sd	a3,1000(sp)
   111bc:	0077d713          	srli	a4,a5,0x7
   111c0:	8fb9                	c.xor	a5,a4
   111c2:	01179713          	slli	a4,a5,0x11
   111c6:	8fb9                	c.xor	a5,a4
   111c8:	6b87d713          	rev8	a4,a5
   111cc:	04fd3823          	sd	a5,80(s10)
   111d0:	3ee13823          	sd	a4,1008(sp)
   111d4:	3ac070ef          	jal	ra,18580 <fn_from_be>
   111d8:	188c                	c.addi4spn	a1,sp,112
   111da:	0d28                	c.addi4spn	a0,sp,664
   111dc:	5e4070ef          	jal	ra,187c0 <fn_to_be>
   111e0:	0d3c                	c.addi4spn	a5,sp,664
   111e2:	0007c703          	lbu	a4,0(a5)
   111e6:	0785                	c.addi	a5,1
   111e8:	8181c683          	lbu	a3,-2024(gp) # 1d060 <bench_sink>
   111ec:	8f35                	c.xor	a4,a3
   111ee:	80e18c23          	sb	a4,-2024(gp) # 1d060 <bench_sink>
   111f2:	1d38                	c.addi4spn	a4,sp,696
   111f4:	fef717e3          	bne	a4,a5,111e2 <main+0xac2>
   111f8:	29813783          	ld	a5,664(sp)
   111fc:	2a013703          	ld	a4,672(sp)
   11200:	8f5d                	c.or	a4,a5
   11202:	2a813783          	ld	a5,680(sp)
   11206:	8f5d                	c.or	a4,a5
   11208:	2b013783          	ld	a5,688(sp)
   1120c:	8f5d                	c.or	a4,a5
   1120e:	00875793          	srli	a5,a4,0x8
   11212:	01075693          	srli	a3,a4,0x10
   11216:	8fd9                	c.or	a5,a4
   11218:	01875613          	srli	a2,a4,0x18
   1121c:	8fd5                	c.or	a5,a3
   1121e:	02075693          	srli	a3,a4,0x20
   11222:	8fd1                	c.or	a5,a2
   11224:	02875613          	srli	a2,a4,0x28
   11228:	8fd5                	c.or	a5,a3
   1122a:	03075693          	srli	a3,a4,0x30
   1122e:	8fd1                	c.or	a5,a2
   11230:	9361                	c.srli	a4,0x38
   11232:	8fd5                	c.or	a5,a3
   11234:	8fd9                	c.or	a5,a4
   11236:	0ff7f793          	andi	a5,a5,255
   1123a:	d39d                	c.beqz	a5,11160 <main+0xa40>
   1123c:	050d3703          	ld	a4,80(s10)
   11240:	0fac                	c.addi4spn	a1,sp,984
   11242:	1888                	c.addi4spn	a0,sp,112
   11244:	00d71793          	slli	a5,a4,0xd
   11248:	8fb9                	c.xor	a5,a4
   1124a:	0077d713          	srli	a4,a5,0x7
   1124e:	8fb9                	c.xor	a5,a4
   11250:	01179713          	slli	a4,a5,0x11
   11254:	8fb9                	c.xor	a5,a4
   11256:	00d79693          	slli	a3,a5,0xd
   1125a:	6b87d713          	rev8	a4,a5
   1125e:	8fb5                	c.xor	a5,a3
   11260:	3ce13c23          	sd	a4,984(sp)
   11264:	0077d713          	srli	a4,a5,0x7
   11268:	8fb9                	c.xor	a5,a4
   1126a:	01179713          	slli	a4,a5,0x11
   1126e:	8fb9                	c.xor	a5,a4
   11270:	00d79693          	slli	a3,a5,0xd
   11274:	6b87d713          	rev8	a4,a5
   11278:	8fb5                	c.xor	a5,a3
   1127a:	3ee13023          	sd	a4,992(sp)
   1127e:	0077d713          	srli	a4,a5,0x7
   11282:	8fb9                	c.xor	a5,a4
   11284:	01179713          	slli	a4,a5,0x11
   11288:	8fb9                	c.xor	a5,a4
   1128a:	00d79713          	slli	a4,a5,0xd
   1128e:	6b87d693          	rev8	a3,a5
   11292:	8fb9                	c.xor	a5,a4
   11294:	3ed13423          	sd	a3,1000(sp)
   11298:	0077d713          	srli	a4,a5,0x7
   1129c:	8fb9                	c.xor	a5,a4
   1129e:	01179713          	slli	a4,a5,0x11
   112a2:	8fb9                	c.xor	a5,a4
   112a4:	6b87d713          	rev8	a4,a5
   112a8:	04fd3823          	sd	a5,80(s10)
   112ac:	3ee13823          	sd	a4,1008(sp)
   112b0:	2d0070ef          	jal	ra,18580 <fn_from_be>
   112b4:	188c                	c.addi4spn	a1,sp,112
   112b6:	1d28                	c.addi4spn	a0,sp,696
   112b8:	508070ef          	jal	ra,187c0 <fn_to_be>
   112bc:	1d3c                	c.addi4spn	a5,sp,696
   112be:	0007c703          	lbu	a4,0(a5)
   112c2:	0785                	c.addi	a5,1
   112c4:	8181c683          	lbu	a3,-2024(gp) # 1d060 <bench_sink>
   112c8:	8f35                	c.xor	a4,a3
   112ca:	80e18c23          	sb	a4,-2024(gp) # 1d060 <bench_sink>
   112ce:	fef498e3          	bne	s1,a5,112be <main+0xb9e>
   112d2:	2b813783          	ld	a5,696(sp)
   112d6:	2c013703          	ld	a4,704(sp)
   112da:	8f5d                	c.or	a4,a5
   112dc:	2c813783          	ld	a5,712(sp)
   112e0:	8f5d                	c.or	a4,a5
   112e2:	2d013783          	ld	a5,720(sp)
   112e6:	8f5d                	c.or	a4,a5
   112e8:	00875793          	srli	a5,a4,0x8
   112ec:	01075693          	srli	a3,a4,0x10
   112f0:	8fd9                	c.or	a5,a4
   112f2:	01875613          	srli	a2,a4,0x18
   112f6:	8fd5                	c.or	a5,a3
   112f8:	02075693          	srli	a3,a4,0x20
   112fc:	8fd1                	c.or	a5,a2
   112fe:	02875613          	srli	a2,a4,0x28
   11302:	8fd5                	c.or	a5,a3
   11304:	03075693          	srli	a3,a4,0x30
   11308:	8fd1                	c.or	a5,a2
   1130a:	9361                	c.srli	a4,0x38
   1130c:	8fd5                	c.or	a5,a3
   1130e:	8fd9                	c.or	a5,a4
   11310:	0ff7f793          	andi	a5,a5,255
   11314:	d785                	c.beqz	a5,1123c <main+0xb1c>
   11316:	050d3703          	ld	a4,80(s10)
   1131a:	0fac                	c.addi4spn	a1,sp,984
   1131c:	1888                	c.addi4spn	a0,sp,112
   1131e:	00d71793          	slli	a5,a4,0xd
   11322:	8fb9                	c.xor	a5,a4
   11324:	0077d713          	srli	a4,a5,0x7
   11328:	8fb9                	c.xor	a5,a4
   1132a:	01179713          	slli	a4,a5,0x11
   1132e:	8fb9                	c.xor	a5,a4
   11330:	00d79693          	slli	a3,a5,0xd
   11334:	6b87d713          	rev8	a4,a5
   11338:	8fb5                	c.xor	a5,a3
   1133a:	3ce13c23          	sd	a4,984(sp)
   1133e:	0077d713          	srli	a4,a5,0x7
   11342:	8fb9                	c.xor	a5,a4
   11344:	01179713          	slli	a4,a5,0x11
   11348:	8fb9                	c.xor	a5,a4
   1134a:	00d79693          	slli	a3,a5,0xd
   1134e:	6b87d713          	rev8	a4,a5
   11352:	8fb5                	c.xor	a5,a3
   11354:	3ee13023          	sd	a4,992(sp)
   11358:	0077d713          	srli	a4,a5,0x7
   1135c:	8fb9                	c.xor	a5,a4
   1135e:	01179713          	slli	a4,a5,0x11
   11362:	8fb9                	c.xor	a5,a4
   11364:	00d79713          	slli	a4,a5,0xd
   11368:	6b87d693          	rev8	a3,a5
   1136c:	8fb9                	c.xor	a5,a4
   1136e:	3ed13423          	sd	a3,1000(sp)
   11372:	0077d713          	srli	a4,a5,0x7
   11376:	8fb9                	c.xor	a5,a4
   11378:	01179713          	slli	a4,a5,0x11
   1137c:	8fb9                	c.xor	a5,a4
   1137e:	6b87d713          	rev8	a4,a5
   11382:	04fd3823          	sd	a5,80(s10)
   11386:	3ee13823          	sd	a4,1008(sp)
   1138a:	1f6070ef          	jal	ra,18580 <fn_from_be>
   1138e:	188c                	c.addi4spn	a1,sp,112
   11390:	8526                	c.mv	a0,s1
   11392:	42e070ef          	jal	ra,187c0 <fn_to_be>
   11396:	87a6                	c.mv	a5,s1
   11398:	0007c703          	lbu	a4,0(a5)
   1139c:	0785                	c.addi	a5,1
   1139e:	8181c683          	lbu	a3,-2024(gp) # 1d060 <bench_sink>
   113a2:	8f35                	c.xor	a4,a3
   113a4:	80e18c23          	sb	a4,-2024(gp) # 1d060 <bench_sink>
   113a8:	fefb98e3          	bne	s7,a5,11398 <main+0xc78>
   113ac:	2e013783          	ld	a5,736(sp)
   113b0:	2d813703          	ld	a4,728(sp)
   113b4:	8f5d                	c.or	a4,a5
   113b6:	2e813783          	ld	a5,744(sp)
   113ba:	8f5d                	c.or	a4,a5
   113bc:	2f013783          	ld	a5,752(sp)
   113c0:	8f5d                	c.or	a4,a5
   113c2:	00875793          	srli	a5,a4,0x8
   113c6:	01075693          	srli	a3,a4,0x10
   113ca:	8fd9                	c.or	a5,a4
   113cc:	01875613          	srli	a2,a4,0x18
   113d0:	8fd5                	c.or	a5,a3
   113d2:	02075693          	srli	a3,a4,0x20
   113d6:	8fd1                	c.or	a5,a2
   113d8:	02875613          	srli	a2,a4,0x28
   113dc:	8fd5                	c.or	a5,a3
   113de:	03075693          	srli	a3,a4,0x30
   113e2:	8fd1                	c.or	a5,a2
   113e4:	9361                	c.srli	a4,0x38
   113e6:	8fd5                	c.or	a5,a3
   113e8:	8fd9                	c.or	a5,a4
   113ea:	0ff7f793          	andi	a5,a5,255
   113ee:	d785                	c.beqz	a5,11316 <main+0xbf6>
   113f0:	050d3703          	ld	a4,80(s10)
   113f4:	0fac                	c.addi4spn	a1,sp,984
   113f6:	1888                	c.addi4spn	a0,sp,112
   113f8:	00d71793          	slli	a5,a4,0xd
   113fc:	8fb9                	c.xor	a5,a4
   113fe:	0077d713          	srli	a4,a5,0x7
   11402:	8fb9                	c.xor	a5,a4
   11404:	01179713          	slli	a4,a5,0x11
   11408:	8fb9                	c.xor	a5,a4
   1140a:	00d79713          	slli	a4,a5,0xd
   1140e:	6b87d693          	rev8	a3,a5
   11412:	8f3d                	c.xor	a4,a5
   11414:	3cd13c23          	sd	a3,984(sp)
   11418:	00775793          	srli	a5,a4,0x7
   1141c:	8fb9                	c.xor	a5,a4
   1141e:	01179713          	slli	a4,a5,0x11
   11422:	8f3d                	c.xor	a4,a5
   11424:	00d71793          	slli	a5,a4,0xd
   11428:	6b875693          	rev8	a3,a4
   1142c:	8fb9                	c.xor	a5,a4
   1142e:	3ed13023          	sd	a3,992(sp)
   11432:	0077d713          	srli	a4,a5,0x7
   11436:	8fb9                	c.xor	a5,a4
   11438:	01179713          	slli	a4,a5,0x11
   1143c:	8fb9                	c.xor	a5,a4
   1143e:	00d79693          	slli	a3,a5,0xd
   11442:	6b87d713          	rev8	a4,a5
   11446:	8fb5                	c.xor	a5,a3
   11448:	3ee13423          	sd	a4,1000(sp)
   1144c:	0077d713          	srli	a4,a5,0x7
   11450:	8fb9                	c.xor	a5,a4
   11452:	01179713          	slli	a4,a5,0x11
   11456:	8fb9                	c.xor	a5,a4
   11458:	6b87d713          	rev8	a4,a5
   1145c:	04fd3823          	sd	a5,80(s10)
   11460:	3ee13823          	sd	a4,1008(sp)
   11464:	11c070ef          	jal	ra,18580 <fn_from_be>
   11468:	188c                	c.addi4spn	a1,sp,112
   1146a:	855e                	c.mv	a0,s7
   1146c:	354070ef          	jal	ra,187c0 <fn_to_be>
   11470:	87de                	c.mv	a5,s7
   11472:	0007c703          	lbu	a4,0(a5)
   11476:	0785                	c.addi	a5,1
   11478:	8181c683          	lbu	a3,-2024(gp) # 1d060 <bench_sink>
   1147c:	8f35                	c.xor	a4,a3
   1147e:	80e18c23          	sb	a4,-2024(gp) # 1d060 <bench_sink>
   11482:	fef918e3          	bne	s2,a5,11472 <main+0xd52>
   11486:	30013783          	ld	a5,768(sp)
   1148a:	2f813703          	ld	a4,760(sp)
   1148e:	8f5d                	c.or	a4,a5
   11490:	30813783          	ld	a5,776(sp)
   11494:	8f5d                	c.or	a4,a5
   11496:	31013783          	ld	a5,784(sp)
   1149a:	8f5d                	c.or	a4,a5
   1149c:	00875793          	srli	a5,a4,0x8
   114a0:	01075693          	srli	a3,a4,0x10
   114a4:	8fd9                	c.or	a5,a4
   114a6:	01875613          	srli	a2,a4,0x18
   114aa:	8fd5                	c.or	a5,a3
   114ac:	02075693          	srli	a3,a4,0x20
   114b0:	8fd1                	c.or	a5,a2
   114b2:	02875613          	srli	a2,a4,0x28
   114b6:	8fd5                	c.or	a5,a3
   114b8:	03075693          	srli	a3,a4,0x30
   114bc:	8fd1                	c.or	a5,a2
   114be:	9361                	c.srli	a4,0x38
   114c0:	8fd5                	c.or	a5,a3
   114c2:	8fd9                	c.or	a5,a4
   114c4:	0ff7f793          	andi	a5,a5,255
   114c8:	d785                	c.beqz	a5,113f0 <main+0xcd0>
   114ca:	0d30                	c.addi4spn	a2,sp,664
   114cc:	022c                	c.addi4spn	a1,sp,264
   114ce:	0a88                	c.addi4spn	a0,sp,336
   114d0:	4d95                	c.li	s11,5
   114d2:	7ef040ef          	jal	ra,164c0 <sm2_scalar_mul_window_ct_schemeB_mont_to_affine>
   114d6:	1d30                	c.addi4spn	a2,sp,696
   114d8:	022c                	c.addi4spn	a1,sp,264
   114da:	0b28                	c.addi4spn	a0,sp,408
   114dc:	7e5040ef          	jal	ra,164c0 <sm2_scalar_mul_window_ct_schemeB_mont_to_affine>
   114e0:	85a6                	c.mv	a1,s1
   114e2:	1388                	c.addi4spn	a0,sp,480
   114e4:	3dfd                	c.addiw	s11,-1
   114e6:	21b060ef          	jal	ra,17f00 <sm2_kex_initiator_gen_RA_mont>
   114ea:	fe0d9be3          	bne	s11,zero,114e0 <main+0xdc0>
   114ee:	c0002773          	csrrs	a4,cycle,zero
   114f2:	f4ba                	c.sdsp	a4,104(sp)
   114f4:	0c800d93          	addi	s11,zero,200
   114f8:	85a6                	c.mv	a1,s1
   114fa:	1388                	c.addi4spn	a0,sp,480
   114fc:	205060ef          	jal	ra,17f00 <sm2_kex_initiator_gen_RA_mont>
   11500:	139c                	c.addi4spn	a5,sp,480
   11502:	0007c703          	lbu	a4,0(a5)
   11506:	0785                	c.addi	a5,1
   11508:	8181c683          	lbu	a3,-2024(gp) # 1d060 <bench_sink>
   1150c:	8f35                	c.xor	a4,a3
   1150e:	80e18c23          	sb	a4,-2024(gp) # 1d060 <bench_sink>
   11512:	fef418e3          	bne	s0,a5,11502 <main+0xde2>
   11516:	3dfd                	c.addiw	s11,-1
   11518:	fe0d90e3          	bne	s11,zero,114f8 <main+0xdd8>
   1151c:	7726                	c.ldsp	a4,104(sp)
   1151e:	c00027f3          	csrrs	a5,cycle,zero
   11522:	8f99                	c.sub	a5,a4
   11524:	7706                	c.ldsp	a4,96(sp)
   11526:	838d                	c.srli	a5,0x3
   11528:	85a6                	c.mv	a1,s1
   1152a:	1388                	c.addi4spn	a0,sp,480
   1152c:	02e7b7b3          	mulhu	a5,a5,a4
   11530:	6746                	c.ldsp	a4,80(sp)
   11532:	8389                	c.srli	a5,0x2
   11534:	e31c                	c.sd	a5,0(a4)
   11536:	1cb060ef          	jal	ra,17f00 <sm2_kex_initiator_gen_RA_mont>
   1153a:	24050363          	beq	a0,zero,11780 <main+0x1060>
   1153e:	85de                	c.mv	a1,s7
   11540:	8522                	c.mv	a0,s0
   11542:	1bf060ef          	jal	ra,17f00 <sm2_kex_initiator_gen_RA_mont>
   11546:	22050d63          	beq	a0,zero,11780 <main+0x1060>
   1154a:	478d                	c.li	a5,3
   1154c:	1398                	c.addi4spn	a4,sp,480
   1154e:	f43e                	c.sdsp	a5,40(sp)
   11550:	0b3c                	c.addi4spn	a5,sp,408
   11552:	ec3e                	c.sdsp	a5,24(sp)
   11554:	88d6                	c.mv	a7,s5
   11556:	e83a                	c.sdsp	a4,16(sp)
   11558:	15010813          	addi	a6,sp,336
   1155c:	f822                	c.sdsp	s0,48(sp)
   1155e:	0d3c                	c.addi4spn	a5,sp,664
   11560:	f062                	c.sdsp	s8,32(sp)
   11562:	0f34                	c.addi4spn	a3,sp,920
   11564:	e426                	c.sdsp	s1,8(sp)
   11566:	864e                	c.mv	a2,s3
   11568:	e052                	c.sdsp	s4,0(sp)
   1156a:	854a                	c.mv	a0,s2
   1156c:	4701                	c.li	a4,0
   1156e:	02000593          	addi	a1,zero,32
   11572:	20f060ef          	jal	ra,17f80 <sm2_kex_initiator_compute_key_mont>
   11576:	20050563          	beq	a0,zero,11780 <main+0x1060>
   1157a:	4d8d                	c.li	s11,3
   1157c:	0a9c                	c.addi4spn	a5,sp,336
   1157e:	1398                	c.addi4spn	a4,sp,480
   11580:	f03e                	c.sdsp	a5,32(sp)
   11582:	460d                	c.li	a2,3
   11584:	ec3a                	c.sdsp	a4,24(sp)
   11586:	19810893          	addi	a7,sp,408
   1158a:	e432                	c.sdsp	a2,8(sp)
   1158c:	2b810813          	addi	a6,sp,696
   11590:	f852                	c.sdsp	s4,48(sp)
   11592:	87ce                	c.mv	a5,s3
   11594:	f456                	c.sdsp	s5,40(sp)
   11596:	1f38                	c.addi4spn	a4,sp,952
   11598:	e85e                	c.sdsp	s7,16(sp)
   1159a:	1eb4                	c.addi4spn	a3,sp,888
   1159c:	85e6                	c.mv	a1,s9
   1159e:	e062                	c.sdsp	s8,0(sp)
   115a0:	8522                	c.mv	a0,s0
   115a2:	3dfd                	c.addiw	s11,-1
   115a4:	02000613          	addi	a2,zero,32
   115a8:	479060ef          	jal	ra,18220 <sm2_kex_responder_compute_key_mont>
   115ac:	fc0d98e3          	bne	s11,zero,1157c <main+0xe5c>
   115b0:	c0002773          	csrrs	a4,cycle,zero
   115b4:	f4ba                	c.sdsp	a4,104(sp)
   115b6:	0c800d93          	addi	s11,zero,200
   115ba:	0a9c                	c.addi4spn	a5,sp,336
   115bc:	1398                	c.addi4spn	a4,sp,480
   115be:	f03e                	c.sdsp	a5,32(sp)
   115c0:	460d                	c.li	a2,3
   115c2:	87ce                	c.mv	a5,s3
   115c4:	ec3a                	c.sdsp	a4,24(sp)
   115c6:	e432                	c.sdsp	a2,8(sp)
   115c8:	19810893          	addi	a7,sp,408
   115cc:	f852                	c.sdsp	s4,48(sp)
   115ce:	2b810813          	addi	a6,sp,696
   115d2:	f456                	c.sdsp	s5,40(sp)
   115d4:	1f38                	c.addi4spn	a4,sp,952
   115d6:	e85e                	c.sdsp	s7,16(sp)
   115d8:	1eb4                	c.addi4spn	a3,sp,888
   115da:	85e6                	c.mv	a1,s9
   115dc:	e062                	c.sdsp	s8,0(sp)
   115de:	8522                	c.mv	a0,s0
   115e0:	02000613          	addi	a2,zero,32
   115e4:	43d060ef          	jal	ra,18220 <sm2_kex_responder_compute_key_mont>
   115e8:	87e6                	c.mv	a5,s9
   115ea:	0007c703          	lbu	a4,0(a5)
   115ee:	0785                	c.addi	a5,1
   115f0:	8181c683          	lbu	a3,-2024(gp) # 1d060 <bench_sink>
   115f4:	8f35                	c.xor	a4,a3
   115f6:	80e18c23          	sb	a4,-2024(gp) # 1d060 <bench_sink>
   115fa:	ff3798e3          	bne	a5,s3,115ea <main+0xeca>
   115fe:	3dfd                	c.addiw	s11,-1
   11600:	fa0d9de3          	bne	s11,zero,115ba <main+0xe9a>
   11604:	7726                	c.ldsp	a4,104(sp)
   11606:	c00027f3          	csrrs	a5,cycle,zero
   1160a:	8f99                	c.sub	a5,a4
   1160c:	7706                	c.ldsp	a4,96(sp)
   1160e:	838d                	c.srli	a5,0x3
   11610:	4d8d                	c.li	s11,3
   11612:	02e7b7b3          	mulhu	a5,a5,a4
   11616:	6766                	c.ldsp	a4,88(sp)
   11618:	8389                	c.srli	a5,0x2
   1161a:	e31c                	c.sd	a5,0(a4)
   1161c:	0b38                	c.addi4spn	a4,sp,408
   1161e:	1394                	c.addi4spn	a3,sp,480
   11620:	478d                	c.li	a5,3
   11622:	ec3a                	c.sdsp	a4,24(sp)
   11624:	f43e                	c.sdsp	a5,40(sp)
   11626:	88d6                	c.mv	a7,s5
   11628:	e836                	c.sdsp	a3,16(sp)
   1162a:	15010813          	addi	a6,sp,336
   1162e:	f822                	c.sdsp	s0,48(sp)
   11630:	0d3c                	c.addi4spn	a5,sp,664
   11632:	f062                	c.sdsp	s8,32(sp)
   11634:	1eb8                	c.addi4spn	a4,sp,888
   11636:	0f34                	c.addi4spn	a3,sp,920
   11638:	e426                	c.sdsp	s1,8(sp)
   1163a:	864e                	c.mv	a2,s3
   1163c:	e052                	c.sdsp	s4,0(sp)
   1163e:	854a                	c.mv	a0,s2
   11640:	3dfd                	c.addiw	s11,-1
   11642:	02000593          	addi	a1,zero,32
   11646:	13b060ef          	jal	ra,17f80 <sm2_kex_initiator_compute_key_mont>
   1164a:	fc0d99e3          	bne	s11,zero,1161c <main+0xefc>
   1164e:	c00026f3          	csrrs	a3,cycle,zero
   11652:	f4b6                	c.sdsp	a3,104(sp)
   11654:	0c800d93          	addi	s11,zero,200
   11658:	0b38                	c.addi4spn	a4,sp,408
   1165a:	1394                	c.addi4spn	a3,sp,480
   1165c:	478d                	c.li	a5,3
   1165e:	ec3a                	c.sdsp	a4,24(sp)
   11660:	f43e                	c.sdsp	a5,40(sp)
   11662:	88d6                	c.mv	a7,s5
   11664:	0d3c                	c.addi4spn	a5,sp,664
   11666:	e836                	c.sdsp	a3,16(sp)
   11668:	f822                	c.sdsp	s0,48(sp)
   1166a:	15010813          	addi	a6,sp,336
   1166e:	f062                	c.sdsp	s8,32(sp)
   11670:	1eb8                	c.addi4spn	a4,sp,888
   11672:	0f34                	c.addi4spn	a3,sp,920
   11674:	e426                	c.sdsp	s1,8(sp)
   11676:	864e                	c.mv	a2,s3
   11678:	e052                	c.sdsp	s4,0(sp)
   1167a:	854a                	c.mv	a0,s2
   1167c:	02000593          	addi	a1,zero,32
   11680:	101060ef          	jal	ra,17f80 <sm2_kex_initiator_compute_key_mont>
   11684:	87ca                	c.mv	a5,s2
   11686:	0007c703          	lbu	a4,0(a5)
   1168a:	0785                	c.addi	a5,1
   1168c:	8181c683          	lbu	a3,-2024(gp) # 1d060 <bench_sink>
   11690:	8f35                	c.xor	a4,a3
   11692:	80e18c23          	sb	a4,-2024(gp) # 1d060 <bench_sink>
   11696:	fefc98e3          	bne	s9,a5,11686 <main+0xf66>
   1169a:	3dfd                	c.addiw	s11,-1
   1169c:	fa0d9ee3          	bne	s11,zero,11658 <main+0xf38>
   116a0:	76a6                	c.ldsp	a3,104(sp)
   116a2:	c0002773          	csrrs	a4,cycle,zero
   116a6:	8f15                	c.sub	a4,a3
   116a8:	7686                	c.ldsp	a3,96(sp)
   116aa:	830d                	c.srli	a4,0x3
   116ac:	87ce                	c.mv	a5,s3
   116ae:	02d73733          	mulhu	a4,a4,a3
   116b2:	66a6                	c.ldsp	a3,72(sp)
   116b4:	8309                	c.srli	a4,0x2
   116b6:	e298                	c.sd	a4,0(a3)
   116b8:	0007c703          	lbu	a4,0(a5)
   116bc:	0785                	c.addi	a5,1
   116be:	8181c683          	lbu	a3,-2024(gp) # 1d060 <bench_sink>
   116c2:	8f35                	c.xor	a4,a3
   116c4:	80e18c23          	sb	a4,-2024(gp) # 1d060 <bench_sink>
   116c8:	1eb8                	c.addi4spn	a4,sp,888
   116ca:	fef717e3          	bne	a4,a5,116b8 <main+0xf98>
   116ce:	87ba                	c.mv	a5,a4
   116d0:	0007c703          	lbu	a4,0(a5)
   116d4:	0785                	c.addi	a5,1
   116d6:	8181c683          	lbu	a3,-2024(gp) # 1d060 <bench_sink>
   116da:	8f35                	c.xor	a4,a3
   116dc:	80e18c23          	sb	a4,-2024(gp) # 1d060 <bench_sink>
   116e0:	0f38                	c.addi4spn	a4,sp,920
   116e2:	fef717e3          	bne	a4,a5,116d0 <main+0xfb0>
   116e6:	6766                	c.ldsp	a4,88(sp)
   116e8:	67a6                	c.ldsp	a5,72(sp)
   116ea:	0721                	c.addi	a4,8
   116ec:	ecba                	c.sdsp	a4,88(sp)
   116ee:	6746                	c.ldsp	a4,80(sp)
   116f0:	07a1                	c.addi	a5,8
   116f2:	e4be                	c.sdsp	a5,72(sp)
   116f4:	0721                	c.addi	a4,8
   116f6:	e8ba                	c.sdsp	a4,80(sp)
   116f8:	0238                	c.addi4spn	a4,sp,264
   116fa:	a6f713e3          	bne	a4,a5,11160 <main+0xa40>
   116fe:	090c                	c.addi4spn	a1,sp,144
   11700:	6569                	c.lui	a0,0x1a
   11702:	55850513          	addi	a0,a0,1368 # 1a558 <SM2_GY_BYTES+0x1a8>
   11706:	49a080ef          	jal	ra,19ba0 <print_stats.constprop.0>
   1170a:	192c                	c.addi4spn	a1,sp,184
   1170c:	6569                	c.lui	a0,0x1a
   1170e:	57850513          	addi	a0,a0,1400 # 1a578 <SM2_GY_BYTES+0x1c8>
   11712:	48e080ef          	jal	ra,19ba0 <print_stats.constprop.0>
   11716:	118c                	c.addi4spn	a1,sp,224
   11718:	6569                	c.lui	a0,0x1a
   1171a:	59850513          	addi	a0,a0,1432 # 1a598 <SM2_GY_BYTES+0x1e8>
   1171e:	482080ef          	jal	ra,19ba0 <print_stats.constprop.0>
   11722:	8181c603          	lbu	a2,-2024(gp) # 1d060 <bench_sink>
   11726:	65e9                	c.lui	a1,0x1a
   11728:	5b858593          	addi	a1,a1,1464 # 1a5b8 <SM2_GY_BYTES+0x208>
   1172c:	4509                	c.li	a0,2
   1172e:	f83fe0ef          	jal	ra,106b0 <__printf_chk@plt>
   11732:	4501                	c.li	a0,0
   11734:	0001d7b7          	lui	a5,0x1d
   11738:	3f813703          	ld	a4,1016(sp)
   1173c:	e007b783          	ld	a5,-512(a5) # 1ce00 <__stack_chk_guard@GLIBC_2.27>
   11740:	8fb9                	c.xor	a5,a4
   11742:	4701                	c.li	a4,0
   11744:	e3a1                	c.bnez	a5,11784 <main+0x1064>
   11746:	46813083          	ld	ra,1128(sp)
   1174a:	46013403          	ld	s0,1120(sp)
   1174e:	45813483          	ld	s1,1112(sp)
   11752:	45013903          	ld	s2,1104(sp)
   11756:	44813983          	ld	s3,1096(sp)
   1175a:	44013a03          	ld	s4,1088(sp)
   1175e:	43813a83          	ld	s5,1080(sp)
   11762:	43013b03          	ld	s6,1072(sp)
   11766:	42813b83          	ld	s7,1064(sp)
   1176a:	42013c03          	ld	s8,1056(sp)
   1176e:	41813c83          	ld	s9,1048(sp)
   11772:	41013d03          	ld	s10,1040(sp)
   11776:	40813d83          	ld	s11,1032(sp)
   1177a:	47010113          	addi	sp,sp,1136
   1177e:	8082                	c.jr	ra
   11780:	4505                	c.li	a0,1
   11782:	bf4d                	c.j	11734 <main+0x1014>
   11784:	f3dfe0ef          	jal	ra,106c0 <__stack_chk_fail@plt>
	...

000000000001179c <_start>:
   1179c:	026000ef          	jal	ra,117c2 <load_gp>
   117a0:	87aa                	c.mv	a5,a0
   117a2:	00000517          	auipc	a0,0x0
   117a6:	01c50513          	addi	a0,a0,28 # 117be <__wrap_main>
   117aa:	6582                	c.ldsp	a1,0(sp)
   117ac:	0030                	c.addi4spn	a2,sp,8
   117ae:	ff017113          	andi	sp,sp,-16
   117b2:	4681                	c.li	a3,0
   117b4:	4701                	c.li	a4,0
   117b6:	880a                	c.mv	a6,sp
   117b8:	ed9fe0ef          	jal	ra,10690 <__libc_start_main@plt>
   117bc:	9002                	c.ebreak

00000000000117be <__wrap_main>:
   117be:	f63fe06f          	jal	zero,10720 <main>

00000000000117c2 <load_gp>:
   117c2:	0000c197          	auipc	gp,0xc
   117c6:	08618193          	addi	gp,gp,134 # 1d848 <__global_pointer$>
   117ca:	8082                	c.jr	ra
	...

00000000000117ce <deregister_tm_clones>:
   117ce:	6575                	c.lui	a0,0x1d
   117d0:	04850793          	addi	a5,a0,72 # 1d048 <__TMC_END__>
   117d4:	6775                	c.lui	a4,0x1d
   117d6:	04870713          	addi	a4,a4,72 # 1d048 <__TMC_END__>
   117da:	00f70863          	beq	a4,a5,117ea <deregister_tm_clones+0x1c>
   117de:	00000793          	addi	a5,zero,0
   117e2:	c781                	c.beqz	a5,117ea <deregister_tm_clones+0x1c>
   117e4:	04850513          	addi	a0,a0,72
   117e8:	8782                	c.jr	a5
   117ea:	8082                	c.jr	ra

00000000000117ec <register_tm_clones>:
   117ec:	6575                	c.lui	a0,0x1d
   117ee:	04850793          	addi	a5,a0,72 # 1d048 <__TMC_END__>
   117f2:	6775                	c.lui	a4,0x1d
   117f4:	04870593          	addi	a1,a4,72 # 1d048 <__TMC_END__>
   117f8:	8d9d                	c.sub	a1,a5
   117fa:	4035d793          	srai	a5,a1,0x3
   117fe:	91fd                	c.srli	a1,0x3f
   11800:	95be                	c.add	a1,a5
   11802:	8585                	c.srai	a1,0x1
   11804:	c599                	c.beqz	a1,11812 <register_tm_clones+0x26>
   11806:	00000793          	addi	a5,zero,0
   1180a:	c781                	c.beqz	a5,11812 <register_tm_clones+0x26>
   1180c:	04850513          	addi	a0,a0,72
   11810:	8782                	c.jr	a5
   11812:	8082                	c.jr	ra

0000000000011814 <__do_global_dtors_aux>:
   11814:	1141                	c.addi	sp,-16
   11816:	e022                	c.sdsp	s0,0(sp)
   11818:	8201c783          	lbu	a5,-2016(gp) # 1d068 <completed.0>
   1181c:	e406                	c.sdsp	ra,8(sp)
   1181e:	e791                	c.bnez	a5,1182a <__do_global_dtors_aux+0x16>
   11820:	fafff0ef          	jal	ra,117ce <deregister_tm_clones>
   11824:	4785                	c.li	a5,1
   11826:	82f18023          	sb	a5,-2016(gp) # 1d068 <completed.0>
   1182a:	60a2                	c.ldsp	ra,8(sp)
   1182c:	6402                	c.ldsp	s0,0(sp)
   1182e:	0141                	c.addi	sp,16
   11830:	8082                	c.jr	ra

0000000000011832 <frame_dummy>:
   11832:	bf6d                	c.j	117ec <register_tm_clones>
	...

0000000000011840 <fp_mont_reduce>:
   11840:	1101                	c.addi	sp,-32
   11842:	587d                	c.li	a6,-1
   11844:	ec22                	c.sdsp	s0,24(sp)
   11846:	02081e13          	slli	t3,a6,0x20
   1184a:	e826                	c.sdsp	s1,16(sp)
   1184c:	2a001893          	bseti	a7,zero,0x20
   11850:	e44a                	c.sdsp	s2,8(sp)
   11852:	fff8c893          	xori	a7,a7,-1
   11856:	6198                	c.ld	a4,0(a1)
   11858:	0005b023          	sd	zero,0(a1)
   1185c:	659c                	c.ld	a5,8(a1)
   1185e:	6990                	c.ld	a2,16(a1)
   11860:	03c70333          	mul	t1,a4,t3
   11864:	6d94                	c.ld	a3,24(a1)
   11866:	03c73f33          	mulhu	t5,a4,t3
   1186a:	40e00e33          	sub	t3,zero,a4
   1186e:	8e19                	c.sub	a2,a4
   11870:	03073eb3          	mulhu	t4,a4,a6
   11874:	03170833          	mul	a6,a4,a7
   11878:	01c63e33          	sltu	t3,a2,t3
   1187c:	979a                	c.add	a5,t1
   1187e:	031738b3          	mulhu	a7,a4,a7
   11882:	0067b333          	sltu	t1,a5,t1
   11886:	973e                	c.add	a4,a5
   11888:	937a                	c.add	t1,t5
   1188a:	00f737b3          	sltu	a5,a4,a5
   1188e:	979a                	c.add	a5,t1
   11890:	01de0333          	add	t1,t3,t4
   11894:	97b2                	c.add	a5,a2
   11896:	96c2                	c.add	a3,a6
   11898:	00c7b633          	sltu	a2,a5,a2
   1189c:	0106b833          	sltu	a6,a3,a6
   118a0:	961a                	c.add	a2,t1
   118a2:	9846                	c.add	a6,a7
   118a4:	9636                	c.add	a2,a3
   118a6:	e598                	c.sd	a4,8(a1)
   118a8:	00d636b3          	sltu	a3,a2,a3
   118ac:	e99c                	c.sd	a5,16(a1)
   118ae:	96c2                	c.add	a3,a6
   118b0:	ed90                	c.sd	a2,24(a1)
   118b2:	c2a1                	c.beqz	a3,118f2 <fp_mont_reduce+0xb2>
   118b4:	0205b803          	ld	a6,32(a1)
   118b8:	9836                	c.add	a6,a3
   118ba:	0305b023          	sd	a6,32(a1)
   118be:	02d87a63          	bgeu	a6,a3,118f2 <fp_mont_reduce+0xb2>
   118c2:	7594                	c.ld	a3,40(a1)
   118c4:	00168813          	addi	a6,a3,1
   118c8:	0305b423          	sd	a6,40(a1)
   118cc:	02d87363          	bgeu	a6,a3,118f2 <fp_mont_reduce+0xb2>
   118d0:	7994                	c.ld	a3,48(a1)
   118d2:	00168813          	addi	a6,a3,1
   118d6:	0305b823          	sd	a6,48(a1)
   118da:	00d87c63          	bgeu	a6,a3,118f2 <fp_mont_reduce+0xb2>
   118de:	7d94                	c.ld	a3,56(a1)
   118e0:	00168813          	addi	a6,a3,1
   118e4:	0305bc23          	sd	a6,56(a1)
   118e8:	00d87563          	bgeu	a6,a3,118f2 <fp_mont_reduce+0xb2>
   118ec:	61b4                	c.ld	a3,64(a1)
   118ee:	0685                	c.addi	a3,1
   118f0:	e1b4                	c.sd	a3,64(a1)
   118f2:	587d                	c.li	a6,-1
   118f4:	02081893          	slli	a7,a6,0x20
   118f8:	03170333          	mul	t1,a4,a7
   118fc:	00f706b3          	add	a3,a4,a5
   11900:	03173f33          	mulhu	t5,a4,a7
   11904:	00e6bfb3          	sltu	t6,a3,a4
   11908:	02e838b3          	mulhu	a7,a6,a4
   1190c:	2a001e93          	bseti	t4,zero,0x20
   11910:	fffece93          	xori	t4,t4,-1
   11914:	40e607b3          	sub	a5,a2,a4
   11918:	9336                	c.add	t1,a3
   1191a:	03d70e33          	mul	t3,a4,t4
   1191e:	00d336b3          	sltu	a3,t1,a3
   11922:	9f7e                	c.add	t5,t6
   11924:	0205b803          	ld	a6,32(a1)
   11928:	96fa                	c.add	a3,t5
   1192a:	96be                	c.add	a3,a5
   1192c:	00c7b633          	sltu	a2,a5,a2
   11930:	03d73733          	mulhu	a4,a4,t4
   11934:	00f6b7b3          	sltu	a5,a3,a5
   11938:	98b2                	c.add	a7,a2
   1193a:	9872                	c.add	a6,t3
   1193c:	97c6                	c.add	a5,a7
   1193e:	01c83e33          	sltu	t3,a6,t3
   11942:	97c2                	c.add	a5,a6
   11944:	0005b423          	sd	zero,8(a1)
   11948:	9e3a                	c.add	t3,a4
   1194a:	0107b833          	sltu	a6,a5,a6
   1194e:	0065b823          	sd	t1,16(a1)
   11952:	9872                	c.add	a6,t3
   11954:	ed94                	c.sd	a3,24(a1)
   11956:	f19c                	c.sd	a5,32(a1)
   11958:	02080663          	beq	a6,zero,11984 <fp_mont_reduce+0x144>
   1195c:	7598                	c.ld	a4,40(a1)
   1195e:	9742                	c.add	a4,a6
   11960:	f598                	c.sd	a4,40(a1)
   11962:	03077163          	bgeu	a4,a6,11984 <fp_mont_reduce+0x144>
   11966:	7998                	c.ld	a4,48(a1)
   11968:	00170613          	addi	a2,a4,1
   1196c:	f990                	c.sd	a2,48(a1)
   1196e:	00e67b63          	bgeu	a2,a4,11984 <fp_mont_reduce+0x144>
   11972:	7d98                	c.ld	a4,56(a1)
   11974:	00170613          	addi	a2,a4,1
   11978:	fd90                	c.sd	a2,56(a1)
   1197a:	00e67563          	bgeu	a2,a4,11984 <fp_mont_reduce+0x144>
   1197e:	61b8                	c.ld	a4,64(a1)
   11980:	0705                	c.addi	a4,1
   11982:	e1b8                	c.sd	a4,64(a1)
   11984:	577d                	c.li	a4,-1
   11986:	02071813          	slli	a6,a4,0x20
   1198a:	03030633          	mul	a2,t1,a6
   1198e:	2a001f13          	bseti	t5,zero,0x20
   11992:	03033fb3          	mulhu	t6,t1,a6
   11996:	ffff4f13          	xori	t5,t5,-1
   1199a:	02673eb3          	mulhu	t4,a4,t1
   1199e:	406787b3          	sub	a5,a5,t1
   119a2:	03e308b3          	mul	a7,t1,t5
   119a6:	0285b803          	ld	a6,40(a1)
   119aa:	00d60733          	add	a4,a2,a3
   119ae:	40600e33          	sub	t3,zero,t1
   119b2:	006706b3          	add	a3,a4,t1
   119b6:	00c73633          	sltu	a2,a4,a2
   119ba:	967e                	c.add	a2,t6
   119bc:	00e6b733          	sltu	a4,a3,a4
   119c0:	9732                	c.add	a4,a2
   119c2:	03e33633          	mulhu	a2,t1,t5
   119c6:	973e                	c.add	a4,a5
   119c8:	01c7b333          	sltu	t1,a5,t3
   119cc:	9376                	c.add	t1,t4
   119ce:	00f737b3          	sltu	a5,a4,a5
   119d2:	9846                	c.add	a6,a7
   119d4:	979a                	c.add	a5,t1
   119d6:	97c2                	c.add	a5,a6
   119d8:	011838b3          	sltu	a7,a6,a7
   119dc:	98b2                	c.add	a7,a2
   119de:	0107b833          	sltu	a6,a5,a6
   119e2:	0005b823          	sd	zero,16(a1)
   119e6:	9846                	c.add	a6,a7
   119e8:	ed94                	c.sd	a3,24(a1)
   119ea:	f198                	c.sd	a4,32(a1)
   119ec:	f59c                	c.sd	a5,40(a1)
   119ee:	02080163          	beq	a6,zero,11a10 <fp_mont_reduce+0x1d0>
   119f2:	7990                	c.ld	a2,48(a1)
   119f4:	9642                	c.add	a2,a6
   119f6:	f990                	c.sd	a2,48(a1)
   119f8:	01067c63          	bgeu	a2,a6,11a10 <fp_mont_reduce+0x1d0>
   119fc:	7d90                	c.ld	a2,56(a1)
   119fe:	00160813          	addi	a6,a2,1
   11a02:	0305bc23          	sd	a6,56(a1)
   11a06:	00c87563          	bgeu	a6,a2,11a10 <fp_mont_reduce+0x1d0>
   11a0a:	61b0                	c.ld	a2,64(a1)
   11a0c:	0605                	c.addi	a2,1
   11a0e:	e1b0                	c.sd	a2,64(a1)
   11a10:	567d                	c.li	a2,-1
   11a12:	02061813          	slli	a6,a2,0x20
   11a16:	03068333          	mul	t1,a3,a6
   11a1a:	2a001f13          	bseti	t5,zero,0x20
   11a1e:	0306bfb3          	mulhu	t6,a3,a6
   11a22:	ffff4f13          	xori	t5,t5,-1
   11a26:	02d63eb3          	mulhu	t4,a2,a3
   11a2a:	8f95                	c.sub	a5,a3
   11a2c:	03e68833          	mul	a6,a3,t5
   11a30:	7990                	c.ld	a2,48(a1)
   11a32:	971a                	c.add	a4,t1
   11a34:	40d00e33          	sub	t3,zero,a3
   11a38:	00d708b3          	add	a7,a4,a3
   11a3c:	00673333          	sltu	t1,a4,t1
   11a40:	937e                	c.add	t1,t6
   11a42:	00e8b733          	sltu	a4,a7,a4
   11a46:	971a                	c.add	a4,t1
   11a48:	03e6b6b3          	mulhu	a3,a3,t5
   11a4c:	973e                	c.add	a4,a5
   11a4e:	01c7b333          	sltu	t1,a5,t3
   11a52:	9376                	c.add	t1,t4
   11a54:	00f737b3          	sltu	a5,a4,a5
   11a58:	9642                	c.add	a2,a6
   11a5a:	979a                	c.add	a5,t1
   11a5c:	97b2                	c.add	a5,a2
   11a5e:	01063833          	sltu	a6,a2,a6
   11a62:	9836                	c.add	a6,a3
   11a64:	00c7b633          	sltu	a2,a5,a2
   11a68:	0005bc23          	sd	zero,24(a1)
   11a6c:	9642                	c.add	a2,a6
   11a6e:	0315b023          	sd	a7,32(a1)
   11a72:	f598                	c.sd	a4,40(a1)
   11a74:	f99c                	c.sd	a5,48(a1)
   11a76:	ca09                	c.beqz	a2,11a88 <fp_mont_reduce+0x248>
   11a78:	7d9c                	c.ld	a5,56(a1)
   11a7a:	97b2                	c.add	a5,a2
   11a7c:	fd9c                	c.sd	a5,56(a1)
   11a7e:	00c7f563          	bgeu	a5,a2,11a88 <fp_mont_reduce+0x248>
   11a82:	61bc                	c.ld	a5,64(a1)
   11a84:	0785                	c.addi	a5,1
   11a86:	e1bc                	c.sd	a5,64(a1)
   11a88:	01153023          	sd	a7,0(a0)
   11a8c:	2a001813          	bseti	a6,zero,0x20
   11a90:	7590                	c.ld	a2,40(a1)
   11a92:	5efd                	c.li	t4,-1
   11a94:	1e82                	c.slli	t4,0x20
   11a96:	2a001713          	bseti	a4,zero,0x20
   11a9a:	0705                	c.addi	a4,1
   11a9c:	2a001793          	bseti	a5,zero,0x20
   11aa0:	e510                	c.sd	a2,8(a0)
   11aa2:	fff7c793          	xori	a5,a5,-1
   11aa6:	0305b283          	ld	t0,48(a1)
   11aaa:	00553823          	sd	t0,16(a0)
   11aae:	0385b383          	ld	t2,56(a1)
   11ab2:	00753c23          	sd	t2,24(a0)
   11ab6:	61b4                	c.ld	a3,64(a1)
   11ab8:	8a85                	c.andi	a3,1
   11aba:	00d88fb3          	add	t6,a7,a3
   11abe:	40d006b3          	sub	a3,zero,a3
   11ac2:	08c6833b          	add.uw	t1,a3,a2
   11ac6:	011fb8b3          	sltu	a7,t6,a7
   11aca:	011305b3          	add	a1,t1,a7
   11ace:	001f8f13          	addi	t5,t6,1
   11ad2:	00c33633          	sltu	a2,t1,a2
   11ad6:	0065b333          	sltu	t1,a1,t1
   11ada:	01e03433          	sltu	s0,zero,t5
   11ade:	01058e33          	add	t3,a1,a6
   11ae2:	00666633          	or	a2,a2,t1
   11ae6:	008e38b3          	sltu	a7,t3,s0
   11aea:	01d5b333          	sltu	t1,a1,t4
   11aee:	0ff67613          	andi	a2,a2,255
   11af2:	9616                	c.add	a2,t0
   11af4:	011368b3          	or	a7,t1,a7
   11af8:	00160493          	addi	s1,a2,1
   11afc:	0ff8f313          	andi	t1,a7,255
   11b00:	0106f6b3          	and	a3,a3,a6
   11b04:	0064b8b3          	sltu	a7,s1,t1
   11b08:	005632b3          	sltu	t0,a2,t0
   11b0c:	969e                	c.add	a3,t2
   11b0e:	009033b3          	sltu	t2,zero,s1
   11b12:	9696                	c.add	a3,t0
   11b14:	0113e3b3          	or	t2,t2,a7
   11b18:	00e682b3          	add	t0,a3,a4
   11b1c:	0ff3f393          	andi	t2,t2,255
   11b20:	00f6b8b3          	sltu	a7,a3,a5
   11b24:	0072b933          	sltu	s2,t0,t2
   11b28:	407282b3          	sub	t0,t0,t2
   11b2c:	0128e8b3          	or	a7,a7,s2
   11b30:	408e0e33          	sub	t3,t3,s0
   11b34:	0018c893          	xori	a7,a7,1
   11b38:	40648333          	sub	t1,s1,t1
   11b3c:	0ff8f893          	andi	a7,a7,255
   11b40:	64c2                	c.ldsp	s1,16(sp)
   11b42:	411003b3          	sub	t2,zero,a7
   11b46:	18fd                	c.addi	a7,-1
   11b48:	011fffb3          	and	t6,t6,a7
   11b4c:	007f7f33          	and	t5,t5,t2
   11b50:	0115f5b3          	and	a1,a1,a7
   11b54:	01ff6f33          	or	t5,t5,t6
   11b58:	007e7e33          	and	t3,t3,t2
   11b5c:	001f0f93          	addi	t6,t5,1
   11b60:	00be6e33          	or	t3,t3,a1
   11b64:	01f03433          	sltu	s0,zero,t6
   11b68:	9872                	c.add	a6,t3
   11b6a:	01167633          	and	a2,a2,a7
   11b6e:	01de35b3          	sltu	a1,t3,t4
   11b72:	00737333          	and	t1,t1,t2
   11b76:	00883eb3          	sltu	t4,a6,s0
   11b7a:	00c36333          	or	t1,t1,a2
   11b7e:	01d5e5b3          	or	a1,a1,t4
   11b82:	00130613          	addi	a2,t1,1
   11b86:	0ff5f593          	andi	a1,a1,255
   11b8a:	0072f2b3          	and	t0,t0,t2
   11b8e:	0116f6b3          	and	a3,a3,a7
   11b92:	00b633b3          	sltu	t2,a2,a1
   11b96:	00c03eb3          	sltu	t4,zero,a2
   11b9a:	00d2e8b3          	or	a7,t0,a3
   11b9e:	007eeeb3          	or	t4,t4,t2
   11ba2:	9746                	c.add	a4,a7
   11ba4:	0ffefe93          	andi	t4,t4,255
   11ba8:	00f8b7b3          	sltu	a5,a7,a5
   11bac:	01d736b3          	sltu	a3,a4,t4
   11bb0:	40880833          	sub	a6,a6,s0
   11bb4:	8fd5                	c.or	a5,a3
   11bb6:	41d70733          	sub	a4,a4,t4
   11bba:	0017c793          	xori	a5,a5,1
   11bbe:	40b606b3          	sub	a3,a2,a1
   11bc2:	0ff7f793          	andi	a5,a5,255
   11bc6:	6462                	c.ldsp	s0,24(sp)
   11bc8:	40f005b3          	sub	a1,zero,a5
   11bcc:	17fd                	c.addi	a5,-1
   11bce:	01e7ff33          	and	t5,a5,t5
   11bd2:	01c7fe33          	and	t3,a5,t3
   11bd6:	0067f333          	and	t1,a5,t1
   11bda:	00bfffb3          	and	t6,t6,a1
   11bde:	00b87633          	and	a2,a6,a1
   11be2:	8eed                	c.and	a3,a1
   11be4:	8f6d                	c.and	a4,a1
   11be6:	0117f7b3          	and	a5,a5,a7
   11bea:	01efefb3          	or	t6,t6,t5
   11bee:	01c66633          	or	a2,a2,t3
   11bf2:	0066e6b3          	or	a3,a3,t1
   11bf6:	8fd9                	c.or	a5,a4
   11bf8:	01f53023          	sd	t6,0(a0)
   11bfc:	6922                	c.ldsp	s2,8(sp)
   11bfe:	e510                	c.sd	a2,8(a0)
   11c00:	e914                	c.sd	a3,16(a0)
   11c02:	ed1c                	c.sd	a5,24(a0)
   11c04:	6105                	c.addi16sp	sp,32
   11c06:	8082                	c.jr	ra
   11c08:	00000013          	addi	zero,zero,0
   11c0c:	00000013          	addi	zero,zero,0
   11c10:	00000013          	addi	zero,zero,0
   11c14:	00000013          	addi	zero,zero,0
   11c18:	00000013          	addi	zero,zero,0
   11c1c:	00000013          	addi	zero,zero,0

0000000000011c20 <fp_cmp>:
   11c20:	01853303          	ld	t1,24(a0)
   11c24:	6d9c                	c.ld	a5,24(a1)
   11c26:	6998                	c.ld	a4,16(a1)
   11c28:	01053803          	ld	a6,16(a0)
   11c2c:	406786b3          	sub	a3,a5,t1
   11c30:	6510                	c.ld	a2,8(a0)
   11c32:	0016b693          	sltiu	a3,a3,1
   11c36:	0085be03          	ld	t3,8(a1)
   11c3a:	010738b3          	sltu	a7,a4,a6
   11c3e:	00e83833          	sltu	a6,a6,a4
   11c42:	0116f8b3          	and	a7,a3,a7
   11c46:	0067b733          	sltu	a4,a5,t1
   11c4a:	0106f6b3          	and	a3,a3,a6
   11c4e:	00f337b3          	sltu	a5,t1,a5
   11c52:	01176733          	or	a4,a4,a7
   11c56:	8fd5                	c.or	a5,a3
   11c58:	00e7e6b3          	or	a3,a5,a4
   11c5c:	00ce38b3          	sltu	a7,t3,a2
   11c60:	01c63833          	sltu	a6,a2,t3
   11c64:	0016c693          	xori	a3,a3,1
   11c68:	6110                	c.ld	a2,0(a0)
   11c6a:	0116f533          	and	a0,a3,a7
   11c6e:	618c                	c.ld	a1,0(a1)
   11c70:	0106f6b3          	and	a3,a3,a6
   11c74:	8fd5                	c.or	a5,a3
   11c76:	8d59                	c.or	a0,a4
   11c78:	00a7e733          	or	a4,a5,a0
   11c7c:	00c5b6b3          	sltu	a3,a1,a2
   11c80:	00174713          	xori	a4,a4,1
   11c84:	00b63633          	sltu	a2,a2,a1
   11c88:	8ef9                	c.and	a3,a4
   11c8a:	8f71                	c.and	a4,a2
   11c8c:	8d55                	c.or	a0,a3
   11c8e:	8fd9                	c.or	a5,a4
   11c90:	9d1d                	c.subw	a0,a5
   11c92:	8082                	c.jr	ra
   11c94:	00000013          	addi	zero,zero,0
   11c98:	00000013          	addi	zero,zero,0
   11c9c:	00000013          	addi	zero,zero,0

0000000000011ca0 <fp_copy>:
   11ca0:	6190                	c.ld	a2,0(a1)
   11ca2:	6594                	c.ld	a3,8(a1)
   11ca4:	6998                	c.ld	a4,16(a1)
   11ca6:	6d9c                	c.ld	a5,24(a1)
   11ca8:	e110                	c.sd	a2,0(a0)
   11caa:	e514                	c.sd	a3,8(a0)
   11cac:	e918                	c.sd	a4,16(a0)
   11cae:	ed1c                	c.sd	a5,24(a0)
   11cb0:	8082                	c.jr	ra
   11cb2:	00000013          	addi	zero,zero,0
   11cb6:	00000013          	addi	zero,zero,0
   11cba:	00000013          	addi	zero,zero,0
   11cbe:	0001                	c.addi	zero,0

0000000000011cc0 <fp_set_zero>:
   11cc0:	00053023          	sd	zero,0(a0)
   11cc4:	00053423          	sd	zero,8(a0)
   11cc8:	00053823          	sd	zero,16(a0)
   11ccc:	00053c23          	sd	zero,24(a0)
   11cd0:	8082                	c.jr	ra
   11cd2:	00000013          	addi	zero,zero,0
   11cd6:	00000013          	addi	zero,zero,0
   11cda:	00000013          	addi	zero,zero,0
   11cde:	0001                	c.addi	zero,0

0000000000011ce0 <fp_set_one>:
   11ce0:	4785                	c.li	a5,1
   11ce2:	00053423          	sd	zero,8(a0)
   11ce6:	e11c                	c.sd	a5,0(a0)
   11ce8:	00053823          	sd	zero,16(a0)
   11cec:	00053c23          	sd	zero,24(a0)
   11cf0:	8082                	c.jr	ra
   11cf2:	00000013          	addi	zero,zero,0
   11cf6:	00000013          	addi	zero,zero,0
   11cfa:	00000013          	addi	zero,zero,0
   11cfe:	0001                	c.addi	zero,0

0000000000011d00 <fp_is_zero>:
   11d00:	611c                	c.ld	a5,0(a0)
   11d02:	6510                	c.ld	a2,8(a0)
   11d04:	6914                	c.ld	a3,16(a0)
   11d06:	6d18                	c.ld	a4,24(a0)
   11d08:	00c7e533          	or	a0,a5,a2
   11d0c:	8d55                	c.or	a0,a3
   11d0e:	8d59                	c.or	a0,a4
   11d10:	00153513          	sltiu	a0,a0,1
   11d14:	8082                	c.jr	ra
   11d16:	00000013          	addi	zero,zero,0
   11d1a:	00000013          	addi	zero,zero,0
   11d1e:	0001                	c.addi	zero,0

0000000000011d20 <fp_is_equal>:
   11d20:	6198                	c.ld	a4,0(a1)
   11d22:	611c                	c.ld	a5,0(a0)
   11d24:	6510                	c.ld	a2,8(a0)
   11d26:	0085b883          	ld	a7,8(a1)
   11d2a:	6914                	c.ld	a3,16(a0)
   11d2c:	8fb9                	c.xor	a5,a4
   11d2e:	0105b803          	ld	a6,16(a1)
   11d32:	6d18                	c.ld	a4,24(a0)
   11d34:	01164633          	xor	a2,a2,a7
   11d38:	6d8c                	c.ld	a1,24(a1)
   11d3a:	00c7e533          	or	a0,a5,a2
   11d3e:	0106c7b3          	xor	a5,a3,a6
   11d42:	8d5d                	c.or	a0,a5
   11d44:	00b747b3          	xor	a5,a4,a1
   11d48:	8d5d                	c.or	a0,a5
   11d4a:	00153513          	sltiu	a0,a0,1
   11d4e:	8082                	c.jr	ra
   11d50:	00000013          	addi	zero,zero,0
   11d54:	00000013          	addi	zero,zero,0
   11d58:	00000013          	addi	zero,zero,0
   11d5c:	00000013          	addi	zero,zero,0

0000000000011d60 <fp_from_bytes>:
   11d60:	711d                	c.addi16sp	sp,-96
   11d62:	0001d837          	lui	a6,0x1d
   11d66:	e8a2                	c.sdsp	s0,80(sp)
   11d68:	e0083783          	ld	a5,-512(a6) # 1ce00 <__stack_chk_guard@GLIBC_2.27>
   11d6c:	f43e                	c.sdsp	a5,40(sp)
   11d6e:	4781                	c.li	a5,0
   11d70:	fc4e                	c.sdsp	s3,56(sp)
   11d72:	ec86                	c.sdsp	ra,88(sp)
   11d74:	e4a6                	c.sdsp	s1,72(sp)
   11d76:	e0ca                	c.sdsp	s2,64(sp)
   11d78:	f852                	c.sdsp	s4,48(sp)
   11d7a:	0185c783          	lbu	a5,24(a1)
   11d7e:	0195c883          	lbu	a7,25(a1)
   11d82:	0105c683          	lbu	a3,16(a1)
   11d86:	0115c603          	lbu	a2,17(a1)
   11d8a:	07a2                	c.slli	a5,0x8
   11d8c:	0085c703          	lbu	a4,8(a1)
   11d90:	0117e7b3          	or	a5,a5,a7
   11d94:	06a2                	c.slli	a3,0x8
   11d96:	0125c883          	lbu	a7,18(a1)
   11d9a:	0095c283          	lbu	t0,9(a1)
   11d9e:	8ed1                	c.or	a3,a2
   11da0:	01a5cf03          	lbu	t5,26(a1)
   11da4:	06a2                	c.slli	a3,0x8
   11da6:	0135c303          	lbu	t1,19(a1)
   11daa:	07a2                	c.slli	a5,0x8
   11dac:	01b5ce83          	lbu	t4,27(a1)
   11db0:	00d8e6b3          	or	a3,a7,a3
   11db4:	00a5c603          	lbu	a2,10(a1)
   11db8:	0722                	c.slli	a4,0x8
   11dba:	0145c883          	lbu	a7,20(a1)
   11dbe:	00ff6f33          	or	t5,t5,a5
   11dc2:	00576733          	or	a4,a4,t0
   11dc6:	0005c783          	lbu	a5,0(a1)
   11dca:	06a2                	c.slli	a3,0x8
   11dcc:	0015cf83          	lbu	t6,1(a1)
   11dd0:	01c5ce03          	lbu	t3,28(a1)
   11dd4:	00d366b3          	or	a3,t1,a3
   11dd8:	0f22                	c.slli	t5,0x8
   11dda:	0722                	c.slli	a4,0x8
   11ddc:	01eeeeb3          	or	t4,t4,t5
   11de0:	8e59                	c.or	a2,a4
   11de2:	0155cf03          	lbu	t5,21(a1)
   11de6:	00869713          	slli	a4,a3,0x8
   11dea:	00b5ca03          	lbu	s4,11(a1)
   11dee:	008e9313          	slli	t1,t4,0x8
   11df2:	01d5c903          	lbu	s2,29(a1)
   11df6:	00e8e8b3          	or	a7,a7,a4
   11dfa:	0025c483          	lbu	s1,2(a1)
   11dfe:	07a2                	c.slli	a5,0x8
   11e00:	006e6e33          	or	t3,t3,t1
   11e04:	01f7e7b3          	or	a5,a5,t6
   11e08:	08a2                	c.slli	a7,0x8
   11e0a:	0035c283          	lbu	t0,3(a1)
   11e0e:	0045c683          	lbu	a3,4(a1)
   11e12:	0622                	c.slli	a2,0x8
   11e14:	0065c703          	lbu	a4,6(a1)
   11e18:	0e22                	c.slli	t3,0x8
   11e1a:	0055cf83          	lbu	t6,5(a1)
   11e1e:	07a2                	c.slli	a5,0x8
   11e20:	0075ce83          	lbu	t4,7(a1)
   11e24:	011f6f33          	or	t5,t5,a7
   11e28:	00c5c383          	lbu	t2,12(a1)
   11e2c:	00ca6a33          	or	s4,s4,a2
   11e30:	01e5c883          	lbu	a7,30(a1)
   11e34:	01c96933          	or	s2,s2,t3
   11e38:	8cdd                	c.or	s1,a5
   11e3a:	0165c783          	lbu	a5,22(a1)
   11e3e:	00d5c303          	lbu	t1,13(a1)
   11e42:	0a22                	c.slli	s4,0x8
   11e44:	01f5c983          	lbu	s3,31(a1)
   11e48:	0922                	c.slli	s2,0x8
   11e4a:	00e5c603          	lbu	a2,14(a1)
   11e4e:	0f22                	c.slli	t5,0x8
   11e50:	00f5ce03          	lbu	t3,15(a1)
   11e54:	0128e8b3          	or	a7,a7,s2
   11e58:	0175c403          	lbu	s0,23(a1)
   11e5c:	0143e3b3          	or	t2,t2,s4
   11e60:	00849593          	slli	a1,s1,0x8
   11e64:	03a2                	c.slli	t2,0x8
   11e66:	00b2e5b3          	or	a1,t0,a1
   11e6a:	01e7e2b3          	or	t0,a5,t5
   11e6e:	00889793          	slli	a5,a7,0x8
   11e72:	02a2                	c.slli	t0,0x8
   11e74:	00f9ef33          	or	t5,s3,a5
   11e78:	05a2                	c.slli	a1,0x8
   11e7a:	007367b3          	or	a5,t1,t2
   11e7e:	005468b3          	or	a7,s0,t0
   11e82:	001f0313          	addi	t1,t5,1
   11e86:	8dd5                	c.or	a1,a3
   11e88:	07a2                	c.slli	a5,0x8
   11e8a:	006032b3          	sltu	t0,zero,t1
   11e8e:	05a2                	c.slli	a1,0x8
   11e90:	8fd1                	c.or	a5,a2
   11e92:	2a001693          	bseti	a3,zero,0x20
   11e96:	567d                	c.li	a2,-1
   11e98:	96c6                	c.add	a3,a7
   11e9a:	1602                	c.slli	a2,0x20
   11e9c:	00c8b633          	sltu	a2,a7,a2
   11ea0:	00bfefb3          	or	t6,t6,a1
   11ea4:	07a2                	c.slli	a5,0x8
   11ea6:	0056b5b3          	sltu	a1,a3,t0
   11eaa:	00fe6e33          	or	t3,t3,a5
   11eae:	0fa2                	c.slli	t6,0x8
   11eb0:	00b667b3          	or	a5,a2,a1
   11eb4:	001e0593          	addi	a1,t3,1
   11eb8:	0ff7f613          	andi	a2,a5,255
   11ebc:	01f767b3          	or	a5,a4,t6
   11ec0:	07a2                	c.slli	a5,0x8
   11ec2:	00c5b733          	sltu	a4,a1,a2
   11ec6:	00b03fb3          	sltu	t6,zero,a1
   11eca:	00feeeb3          	or	t4,t4,a5
   11ece:	00efefb3          	or	t6,t6,a4
   11ed2:	2a001793          	bseti	a5,zero,0x20
   11ed6:	0785                	c.addi	a5,1
   11ed8:	0fffff93          	andi	t6,t6,255
   11edc:	00fe8733          	add	a4,t4,a5
   11ee0:	2a001793          	bseti	a5,zero,0x20
   11ee4:	fff7c793          	xori	a5,a5,-1
   11ee8:	01f733b3          	sltu	t2,a4,t6
   11eec:	00feb7b3          	sltu	a5,t4,a5
   11ef0:	40c58633          	sub	a2,a1,a2
   11ef4:	0077e7b3          	or	a5,a5,t2
   11ef8:	405686b3          	sub	a3,a3,t0
   11efc:	0017c793          	xori	a5,a5,1
   11f00:	41f70733          	sub	a4,a4,t6
   11f04:	0ff7f793          	andi	a5,a5,255
   11f08:	40f005b3          	sub	a1,zero,a5
   11f0c:	17fd                	c.addi	a5,-1
   11f0e:	01e7ff33          	and	t5,a5,t5
   11f12:	00b37333          	and	t1,t1,a1
   11f16:	0117f8b3          	and	a7,a5,a7
   11f1a:	01c7fe33          	and	t3,a5,t3
   11f1e:	01e36333          	or	t1,t1,t5
   11f22:	01d7f7b3          	and	a5,a5,t4
   11f26:	8eed                	c.and	a3,a1
   11f28:	8e6d                	c.and	a2,a1
   11f2a:	8f6d                	c.and	a4,a1
   11f2c:	0116e6b3          	or	a3,a3,a7
   11f30:	8f5d                	c.or	a4,a5
   11f32:	01c66633          	or	a2,a2,t3
   11f36:	00653023          	sd	t1,0(a0)
   11f3a:	e514                	c.sd	a3,8(a0)
   11f3c:	76a2                	c.ldsp	a3,40(sp)
   11f3e:	e0083783          	ld	a5,-512(a6)
   11f42:	8fb5                	c.xor	a5,a3
   11f44:	4681                	c.li	a3,0
   11f46:	e910                	c.sd	a2,16(a0)
   11f48:	ed18                	c.sd	a4,24(a0)
   11f4a:	eb89                	c.bnez	a5,11f5c <fp_from_bytes+0x1fc>
   11f4c:	60e6                	c.ldsp	ra,88(sp)
   11f4e:	6446                	c.ldsp	s0,80(sp)
   11f50:	64a6                	c.ldsp	s1,72(sp)
   11f52:	6906                	c.ldsp	s2,64(sp)
   11f54:	79e2                	c.ldsp	s3,56(sp)
   11f56:	7a42                	c.ldsp	s4,48(sp)
   11f58:	6125                	c.addi16sp	sp,96
   11f5a:	8082                	c.jr	ra
   11f5c:	f64fe0ef          	jal	ra,106c0 <__stack_chk_fail@plt>

0000000000011f60 <fp_to_bytes>:
   11f60:	6d9c                	c.ld	a5,24(a1)
   11f62:	6b87d793          	rev8	a5,a5
   11f66:	e11c                	c.sd	a5,0(a0)
   11f68:	699c                	c.ld	a5,16(a1)
   11f6a:	6b87d793          	rev8	a5,a5
   11f6e:	e51c                	c.sd	a5,8(a0)
   11f70:	659c                	c.ld	a5,8(a1)
   11f72:	6b87d793          	rev8	a5,a5
   11f76:	e91c                	c.sd	a5,16(a0)
   11f78:	619c                	c.ld	a5,0(a1)
   11f7a:	6b87d793          	rev8	a5,a5
   11f7e:	ed1c                	c.sd	a5,24(a0)
   11f80:	8082                	c.jr	ra
   11f82:	0001                	c.addi	zero,0
   11f84:	00000013          	addi	zero,zero,0
   11f88:	00000013          	addi	zero,zero,0
   11f8c:	00000013          	addi	zero,zero,0
   11f90:	00000013          	addi	zero,zero,0
   11f94:	00000013          	addi	zero,zero,0
   11f98:	00000013          	addi	zero,zero,0
   11f9c:	00000013          	addi	zero,zero,0

0000000000011fa0 <fp_add>:
   11fa0:	1141                	c.addi	sp,-16
   11fa2:	2a001693          	bseti	a3,zero,0x20
   11fa6:	e422                	c.sdsp	s0,8(sp)
   11fa8:	0685                	c.addi	a3,1
   11faa:	0005b303          	ld	t1,0(a1)
   11fae:	00063e03          	ld	t3,0(a2)
   11fb2:	0085b803          	ld	a6,8(a1)
   11fb6:	00863883          	ld	a7,8(a2)
   11fba:	9e1a                	c.add	t3,t1
   11fbc:	6998                	c.ld	a4,16(a1)
   11fbe:	006e3333          	sltu	t1,t3,t1
   11fc2:	6a1c                	c.ld	a5,16(a2)
   11fc4:	98c2                	c.add	a7,a6
   11fc6:	001e0e93          	addi	t4,t3,1
   11fca:	9346                	c.add	t1,a7
   11fcc:	0108b833          	sltu	a6,a7,a6
   11fd0:	011338b3          	sltu	a7,t1,a7
   11fd4:	0185bf83          	ld	t6,24(a1)
   11fd8:	01186833          	or	a6,a6,a7
   11fdc:	6e0c                	c.ld	a1,24(a2)
   11fde:	97ba                	c.add	a5,a4
   11fe0:	01d03f33          	sltu	t5,zero,t4
   11fe4:	0ff87813          	andi	a6,a6,255
   11fe8:	2a001893          	bseti	a7,zero,0x20
   11fec:	567d                	c.li	a2,-1
   11fee:	989a                	c.add	a7,t1
   11ff0:	1602                	c.slli	a2,0x20
   11ff2:	983e                	c.add	a6,a5
   11ff4:	01e8b2b3          	sltu	t0,a7,t5
   11ff8:	00c33633          	sltu	a2,t1,a2
   11ffc:	00e7b733          	sltu	a4,a5,a4
   12000:	00566633          	or	a2,a2,t0
   12004:	00f837b3          	sltu	a5,a6,a5
   12008:	00180293          	addi	t0,a6,1
   1200c:	0ff67613          	andi	a2,a2,255
   12010:	8f5d                	c.or	a4,a5
   12012:	95fe                	c.add	a1,t6
   12014:	00c2b7b3          	sltu	a5,t0,a2
   12018:	0ff77713          	andi	a4,a4,255
   1201c:	005033b3          	sltu	t2,zero,t0
   12020:	972e                	c.add	a4,a1
   12022:	00f3e3b3          	or	t2,t2,a5
   12026:	96ba                	c.add	a3,a4
   12028:	0ff3f393          	andi	t2,t2,255
   1202c:	2a001793          	bseti	a5,zero,0x20
   12030:	fff7c793          	xori	a5,a5,-1
   12034:	0076b433          	sltu	s0,a3,t2
   12038:	00f737b3          	sltu	a5,a4,a5
   1203c:	8fc1                	c.or	a5,s0
   1203e:	01f5bfb3          	sltu	t6,a1,t6
   12042:	00b735b3          	sltu	a1,a4,a1
   12046:	0017c793          	xori	a5,a5,1
   1204a:	00bfefb3          	or	t6,t6,a1
   1204e:	40c28633          	sub	a2,t0,a2
   12052:	01f7e7b3          	or	a5,a5,t6
   12056:	41e885b3          	sub	a1,a7,t5
   1205a:	0ff7f793          	andi	a5,a5,255
   1205e:	407686b3          	sub	a3,a3,t2
   12062:	40f008b3          	sub	a7,zero,a5
   12066:	17fd                	c.addi	a5,-1
   12068:	6422                	c.ldsp	s0,8(sp)
   1206a:	011efeb3          	and	t4,t4,a7
   1206e:	00fe7e33          	and	t3,t3,a5
   12072:	0115f5b3          	and	a1,a1,a7
   12076:	00f37333          	and	t1,t1,a5
   1207a:	01167633          	and	a2,a2,a7
   1207e:	00f87833          	and	a6,a6,a5
   12082:	0116f6b3          	and	a3,a3,a7
   12086:	8f7d                	c.and	a4,a5
   12088:	01ceeeb3          	or	t4,t4,t3
   1208c:	0065e5b3          	or	a1,a1,t1
   12090:	01066633          	or	a2,a2,a6
   12094:	8ed9                	c.or	a3,a4
   12096:	01d53023          	sd	t4,0(a0)
   1209a:	e50c                	c.sd	a1,8(a0)
   1209c:	e910                	c.sd	a2,16(a0)
   1209e:	ed14                	c.sd	a3,24(a0)
   120a0:	0141                	c.addi	sp,16
   120a2:	8082                	c.jr	ra
   120a4:	00000013          	addi	zero,zero,0
   120a8:	00000013          	addi	zero,zero,0
   120ac:	00000013          	addi	zero,zero,0
   120b0:	00000013          	addi	zero,zero,0
   120b4:	00000013          	addi	zero,zero,0
   120b8:	00000013          	addi	zero,zero,0
   120bc:	00000013          	addi	zero,zero,0

00000000000120c0 <fp_sub>:
   120c0:	6218                	c.ld	a4,0(a2)
   120c2:	2a001e93          	bseti	t4,zero,0x20
   120c6:	00863883          	ld	a7,8(a2)
   120ca:	fffece93          	xori	t4,t4,-1
   120ce:	0005b303          	ld	t1,0(a1)
   120d2:	659c                	c.ld	a5,8(a1)
   120d4:	6994                	c.ld	a3,16(a1)
   120d6:	00e33833          	sltu	a6,t1,a4
   120da:	40e30333          	sub	t1,t1,a4
   120de:	41178733          	sub	a4,a5,a7
   120e2:	01063383          	ld	t2,16(a2)
   120e6:	41070e33          	sub	t3,a4,a6
   120ea:	01073733          	sltu	a4,a4,a6
   120ee:	587d                	c.li	a6,-1
   120f0:	1802                	c.slli	a6,0x20
   120f2:	9872                	c.add	a6,t3
   120f4:	0117b7b3          	sltu	a5,a5,a7
   120f8:	006038b3          	sltu	a7,zero,t1
   120fc:	8f5d                	c.or	a4,a5
   120fe:	98c2                	c.add	a7,a6
   12100:	6d9c                	c.ld	a5,24(a1)
   12102:	01863283          	ld	t0,24(a2)
   12106:	0ff77593          	andi	a1,a4,255
   1210a:	40768fb3          	sub	t6,a3,t2
   1210e:	01c83733          	sltu	a4,a6,t3
   12112:	0108b833          	sltu	a6,a7,a6
   12116:	40bf8f33          	sub	t5,t6,a1
   1211a:	0076b633          	sltu	a2,a3,t2
   1211e:	00bfbfb3          	sltu	t6,t6,a1
   12122:	01076733          	or	a4,a4,a6
   12126:	ffff0593          	addi	a1,t5,-1
   1212a:	01f66633          	or	a2,a2,t6
   1212e:	0ff77713          	andi	a4,a4,255
   12132:	40578833          	sub	a6,a5,t0
   12136:	0ff67613          	andi	a2,a2,255
   1213a:	972e                	c.add	a4,a1
   1213c:	00c83fb3          	sltu	t6,a6,a2
   12140:	00b735b3          	sltu	a1,a4,a1
   12144:	01e036b3          	sltu	a3,zero,t5
   12148:	0057b7b3          	sltu	a5,a5,t0
   1214c:	40c80633          	sub	a2,a6,a2
   12150:	8ecd                	c.or	a3,a1
   12152:	01f7e7b3          	or	a5,a5,t6
   12156:	0ff7f793          	andi	a5,a5,255
   1215a:	9eb2                	c.add	t4,a2
   1215c:	0ff6f693          	andi	a3,a3,255
   12160:	40f00833          	sub	a6,zero,a5
   12164:	fff30593          	addi	a1,t1,-1
   12168:	17fd                	c.addi	a5,-1
   1216a:	96f6                	c.add	a3,t4
   1216c:	0105f5b3          	and	a1,a1,a6
   12170:	00f37333          	and	t1,t1,a5
   12174:	0108f8b3          	and	a7,a7,a6
   12178:	00fe7e33          	and	t3,t3,a5
   1217c:	01077733          	and	a4,a4,a6
   12180:	00ff7f33          	and	t5,t5,a5
   12184:	0106f6b3          	and	a3,a3,a6
   12188:	8e7d                	c.and	a2,a5
   1218a:	0065e5b3          	or	a1,a1,t1
   1218e:	01c8e8b3          	or	a7,a7,t3
   12192:	01e76733          	or	a4,a4,t5
   12196:	8ed1                	c.or	a3,a2
   12198:	e10c                	c.sd	a1,0(a0)
   1219a:	01153423          	sd	a7,8(a0)
   1219e:	e918                	c.sd	a4,16(a0)
   121a0:	ed14                	c.sd	a3,24(a0)
   121a2:	8082                	c.jr	ra
   121a4:	00000013          	addi	zero,zero,0
   121a8:	00000013          	addi	zero,zero,0
   121ac:	00000013          	addi	zero,zero,0
   121b0:	00000013          	addi	zero,zero,0
   121b4:	00000013          	addi	zero,zero,0
   121b8:	00000013          	addi	zero,zero,0
   121bc:	00000013          	addi	zero,zero,0

00000000000121c0 <fp_mont_set_zero>:
   121c0:	00053023          	sd	zero,0(a0)
   121c4:	00053423          	sd	zero,8(a0)
   121c8:	00053823          	sd	zero,16(a0)
   121cc:	00053c23          	sd	zero,24(a0)
   121d0:	8082                	c.jr	ra
   121d2:	00000013          	addi	zero,zero,0
   121d6:	00000013          	addi	zero,zero,0
   121da:	00000013          	addi	zero,zero,0
   121de:	0001                	c.addi	zero,0

00000000000121e0 <fp_mont_set_one>:
   121e0:	67e9                	c.lui	a5,0x1a
   121e2:	2b078793          	addi	a5,a5,688 # 1a2b0 <FP_MONT_ONE>
   121e6:	6390                	c.ld	a2,0(a5)
   121e8:	6794                	c.ld	a3,8(a5)
   121ea:	6b98                	c.ld	a4,16(a5)
   121ec:	6f9c                	c.ld	a5,24(a5)
   121ee:	e110                	c.sd	a2,0(a0)
   121f0:	e514                	c.sd	a3,8(a0)
   121f2:	e918                	c.sd	a4,16(a0)
   121f4:	ed1c                	c.sd	a5,24(a0)
   121f6:	8082                	c.jr	ra
   121f8:	00000013          	addi	zero,zero,0
   121fc:	00000013          	addi	zero,zero,0

0000000000012200 <fp_mont_add>:
   12200:	1141                	c.addi	sp,-16
   12202:	2a001693          	bseti	a3,zero,0x20
   12206:	e422                	c.sdsp	s0,8(sp)
   12208:	0685                	c.addi	a3,1
   1220a:	e026                	c.sdsp	s1,0(sp)
   1220c:	0005b803          	ld	a6,0(a1)
   12210:	00063883          	ld	a7,0(a2)
   12214:	0085be83          	ld	t4,8(a1)
   12218:	661c                	c.ld	a5,8(a2)
   1221a:	98c2                	c.add	a7,a6
   1221c:	0105bf83          	ld	t6,16(a1)
   12220:	0108b833          	sltu	a6,a7,a6
   12224:	6a18                	c.ld	a4,16(a2)
   12226:	97f6                	c.add	a5,t4
   12228:	00188313          	addi	t1,a7,1
   1222c:	00f80e33          	add	t3,a6,a5
   12230:	01d7b7b3          	sltu	a5,a5,t4
   12234:	010e3833          	sltu	a6,t3,a6
   12238:	01863f03          	ld	t5,24(a2)
   1223c:	0107e7b3          	or	a5,a5,a6
   12240:	977e                	c.add	a4,t6
   12242:	006032b3          	sltu	t0,zero,t1
   12246:	0ff7f793          	andi	a5,a5,255
   1224a:	2a001813          	bseti	a6,zero,0x20
   1224e:	567d                	c.li	a2,-1
   12250:	9872                	c.add	a6,t3
   12252:	1602                	c.slli	a2,0x20
   12254:	0185b383          	ld	t2,24(a1)
   12258:	00e78eb3          	add	t4,a5,a4
   1225c:	005835b3          	sltu	a1,a6,t0
   12260:	00ce3633          	sltu	a2,t3,a2
   12264:	00feb7b3          	sltu	a5,t4,a5
   12268:	01f73733          	sltu	a4,a4,t6
   1226c:	8e4d                	c.or	a2,a1
   1226e:	8f5d                	c.or	a4,a5
   12270:	001e8593          	addi	a1,t4,1
   12274:	0ff67613          	andi	a2,a2,255
   12278:	00c5b7b3          	sltu	a5,a1,a2
   1227c:	9f1e                	c.add	t5,t2
   1227e:	0ff77713          	andi	a4,a4,255
   12282:	00b03433          	sltu	s0,zero,a1
   12286:	01e70fb3          	add	t6,a4,t5
   1228a:	8c5d                	c.or	s0,a5
   1228c:	0ff47413          	andi	s0,s0,255
   12290:	96fe                	c.add	a3,t6
   12292:	2a001793          	bseti	a5,zero,0x20
   12296:	fff7c793          	xori	a5,a5,-1
   1229a:	0086b4b3          	sltu	s1,a3,s0
   1229e:	00ffb7b3          	sltu	a5,t6,a5
   122a2:	00efb733          	sltu	a4,t6,a4
   122a6:	8fc5                	c.or	a5,s1
   122a8:	007f3f33          	sltu	t5,t5,t2
   122ac:	0017c793          	xori	a5,a5,1
   122b0:	00ef6f33          	or	t5,t5,a4
   122b4:	8e81                	c.sub	a3,s0
   122b6:	01e7e7b3          	or	a5,a5,t5
   122ba:	40580833          	sub	a6,a6,t0
   122be:	0ff7f793          	andi	a5,a5,255
   122c2:	8d91                	c.sub	a1,a2
   122c4:	40f00733          	sub	a4,zero,a5
   122c8:	17fd                	c.addi	a5,-1
   122ca:	6422                	c.ldsp	s0,8(sp)
   122cc:	00e37333          	and	t1,t1,a4
   122d0:	00f8f8b3          	and	a7,a7,a5
   122d4:	00e87833          	and	a6,a6,a4
   122d8:	00fe7e33          	and	t3,t3,a5
   122dc:	8df9                	c.and	a1,a4
   122de:	00fefeb3          	and	t4,t4,a5
   122e2:	8ef9                	c.and	a3,a4
   122e4:	00ffffb3          	and	t6,t6,a5
   122e8:	01136333          	or	t1,t1,a7
   122ec:	01c86833          	or	a6,a6,t3
   122f0:	01d5e5b3          	or	a1,a1,t4
   122f4:	01f6e6b3          	or	a3,a3,t6
   122f8:	00653023          	sd	t1,0(a0)
   122fc:	01053423          	sd	a6,8(a0)
   12300:	6482                	c.ldsp	s1,0(sp)
   12302:	e90c                	c.sd	a1,16(a0)
   12304:	ed14                	c.sd	a3,24(a0)
   12306:	0141                	c.addi	sp,16
   12308:	8082                	c.jr	ra
   1230a:	00000013          	addi	zero,zero,0
   1230e:	00000013          	addi	zero,zero,0
   12312:	00000013          	addi	zero,zero,0
   12316:	00000013          	addi	zero,zero,0
   1231a:	00000013          	addi	zero,zero,0
   1231e:	0001                	c.addi	zero,0

0000000000012320 <fp_mont_sub>:
   12320:	00063303          	ld	t1,0(a2)
   12324:	2a001e13          	bseti	t3,zero,0x20
   12328:	661c                	c.ld	a5,8(a2)
   1232a:	fffe4e13          	xori	t3,t3,-1
   1232e:	0005b883          	ld	a7,0(a1)
   12332:	6594                	c.ld	a3,8(a1)
   12334:	0105b803          	ld	a6,16(a1)
   12338:	0068b733          	sltu	a4,a7,t1
   1233c:	01063383          	ld	t2,16(a2)
   12340:	40f68eb3          	sub	t4,a3,a5
   12344:	406888b3          	sub	a7,a7,t1
   12348:	00f6b6b3          	sltu	a3,a3,a5
   1234c:	40ee8333          	sub	t1,t4,a4
   12350:	57fd                	c.li	a5,-1
   12352:	1782                	c.slli	a5,0x20
   12354:	01103f33          	sltu	t5,zero,a7
   12358:	979a                	c.add	a5,t1
   1235a:	00eeb733          	sltu	a4,t4,a4
   1235e:	00ff0eb3          	add	t4,t5,a5
   12362:	8ed9                	c.or	a3,a4
   12364:	01863f83          	ld	t6,24(a2)
   12368:	6d98                	c.ld	a4,24(a1)
   1236a:	407802b3          	sub	t0,a6,t2
   1236e:	01eeb5b3          	sltu	a1,t4,t5
   12372:	0ff6f693          	andi	a3,a3,255
   12376:	0067b7b3          	sltu	a5,a5,t1
   1237a:	40d28f33          	sub	t5,t0,a3
   1237e:	00783633          	sltu	a2,a6,t2
   12382:	00d2b6b3          	sltu	a3,t0,a3
   12386:	8fcd                	c.or	a5,a1
   12388:	8e55                	c.or	a2,a3
   1238a:	0ff7f793          	andi	a5,a5,255
   1238e:	ffff0593          	addi	a1,t5,-1
   12392:	41f70833          	sub	a6,a4,t6
   12396:	0ff67613          	andi	a2,a2,255
   1239a:	95be                	c.add	a1,a5
   1239c:	01f73733          	sltu	a4,a4,t6
   123a0:	00f5b7b3          	sltu	a5,a1,a5
   123a4:	00c83fb3          	sltu	t6,a6,a2
   123a8:	01e036b3          	sltu	a3,zero,t5
   123ac:	40c80633          	sub	a2,a6,a2
   123b0:	8edd                	c.or	a3,a5
   123b2:	01f76733          	or	a4,a4,t6
   123b6:	0ff77793          	andi	a5,a4,255
   123ba:	9e32                	c.add	t3,a2
   123bc:	0ff6f713          	andi	a4,a3,255
   123c0:	40f00833          	sub	a6,zero,a5
   123c4:	fff88693          	addi	a3,a7,-1
   123c8:	17fd                	c.addi	a5,-1
   123ca:	9772                	c.add	a4,t3
   123cc:	0106f6b3          	and	a3,a3,a6
   123d0:	00f8f8b3          	and	a7,a7,a5
   123d4:	010efeb3          	and	t4,t4,a6
   123d8:	00f37333          	and	t1,t1,a5
   123dc:	0105f5b3          	and	a1,a1,a6
   123e0:	00ff7f33          	and	t5,t5,a5
   123e4:	01077733          	and	a4,a4,a6
   123e8:	8e7d                	c.and	a2,a5
   123ea:	0116e6b3          	or	a3,a3,a7
   123ee:	006eeeb3          	or	t4,t4,t1
   123f2:	01e5e5b3          	or	a1,a1,t5
   123f6:	8f51                	c.or	a4,a2
   123f8:	e114                	c.sd	a3,0(a0)
   123fa:	01d53423          	sd	t4,8(a0)
   123fe:	e90c                	c.sd	a1,16(a0)
   12400:	ed18                	c.sd	a4,24(a0)
   12402:	8082                	c.jr	ra
   12404:	00000013          	addi	zero,zero,0
   12408:	00000013          	addi	zero,zero,0
   1240c:	00000013          	addi	zero,zero,0
   12410:	00000013          	addi	zero,zero,0
   12414:	00000013          	addi	zero,zero,0
   12418:	00000013          	addi	zero,zero,0
   1241c:	00000013          	addi	zero,zero,0

0000000000012420 <fp_mont_neg>:
   12420:	0085b883          	ld	a7,8(a1)
   12424:	57fd                	c.li	a5,-1
   12426:	0005b803          	ld	a6,0(a1)
   1242a:	1782                	c.slli	a5,0x20
   1242c:	6990                	c.ld	a2,16(a1)
   1242e:	0785                	c.addi	a5,1
   12430:	6d8c                	c.ld	a1,24(a1)
   12432:	00f8b733          	sltu	a4,a7,a5
   12436:	011867b3          	or	a5,a6,a7
   1243a:	00174713          	xori	a4,a4,1
   1243e:	8fd1                	c.or	a5,a2
   12440:	2a001693          	bseti	a3,zero,0x20
   12444:	fff64613          	xori	a2,a2,-1
   12448:	8fcd                	c.or	a5,a1
   1244a:	fff6c693          	xori	a3,a3,-1
   1244e:	00e63333          	sltu	t1,a2,a4
   12452:	8e8d                	c.sub	a3,a1
   12454:	0017b793          	sltiu	a5,a5,1
   12458:	55fd                	c.li	a1,-1
   1245a:	1582                	c.slli	a1,0x20
   1245c:	17fd                	c.addi	a5,-1
   1245e:	411585b3          	sub	a1,a1,a7
   12462:	8e19                	c.sub	a2,a4
   12464:	406686b3          	sub	a3,a3,t1
   12468:	4107f833          	andn	a6,a5,a6
   1246c:	8dfd                	c.and	a1,a5
   1246e:	8e7d                	c.and	a2,a5
   12470:	8efd                	c.and	a3,a5
   12472:	01053023          	sd	a6,0(a0)
   12476:	e50c                	c.sd	a1,8(a0)
   12478:	e910                	c.sd	a2,16(a0)
   1247a:	ed14                	c.sd	a3,24(a0)
   1247c:	8082                	c.jr	ra
   1247e:	0001                	c.addi	zero,0

0000000000012480 <fp_mul_4x4_u512_ct>:
   12480:	711d                	c.addi16sp	sp,-96
   12482:	eca2                	c.sdsp	s0,88(sp)
   12484:	e8a6                	c.sdsp	s1,80(sp)
   12486:	e4ca                	c.sdsp	s2,72(sp)
   12488:	e0ce                	c.sdsp	s3,64(sp)
   1248a:	fc52                	c.sdsp	s4,56(sp)
   1248c:	f856                	c.sdsp	s5,48(sp)
   1248e:	f45a                	c.sdsp	s6,40(sp)
   12490:	f05e                	c.sdsp	s7,32(sp)
   12492:	ec62                	c.sdsp	s8,24(sp)
   12494:	e866                	c.sdsp	s9,16(sp)
   12496:	e46a                	c.sdsp	s10,8(sp)
   12498:	e06e                	c.sdsp	s11,0(sp)
   1249a:	00063883          	ld	a7,0(a2)
   1249e:	00863283          	ld	t0,8(a2)
   124a2:	0005b803          	ld	a6,0(a1)
   124a6:	0085b383          	ld	t2,8(a1)
   124aa:	0105bf83          	ld	t6,16(a1)
   124ae:	031837b3          	mulhu	a5,a6,a7
   124b2:	0185be03          	ld	t3,24(a1)
   124b6:	03028733          	mul	a4,t0,a6
   124ba:	01863e83          	ld	t4,24(a2)
   124be:	031386b3          	mul	a3,t2,a7
   124c2:	01063f03          	ld	t5,16(a2)
   124c6:	0302b333          	mulhu	t1,t0,a6
   124ca:	0313b5b3          	mulhu	a1,t2,a7
   124ce:	00f70633          	add	a2,a4,a5
   124d2:	030f04b3          	mul	s1,t5,a6
   124d6:	00e63733          	sltu	a4,a2,a4
   124da:	9636                	c.add	a2,a3
   124dc:	971a                	c.add	a4,t1
   124de:	00d636b3          	sltu	a3,a2,a3
   124e2:	972e                	c.add	a4,a1
   124e4:	030f3933          	mulhu	s2,t5,a6
   124e8:	00e68333          	add	t1,a3,a4
   124ec:	02538ab3          	mul	s5,t2,t0
   124f0:	00b737b3          	sltu	a5,a4,a1
   124f4:	00d336b3          	sltu	a3,t1,a3
   124f8:	0253b433          	mulhu	s0,t2,t0
   124fc:	8fd5                	c.or	a5,a3
   124fe:	031f89b3          	mul	s3,t6,a7
   12502:	9326                	c.add	t1,s1
   12504:	0ff7f793          	andi	a5,a5,255
   12508:	031fba33          	mulhu	s4,t6,a7
   1250c:	009334b3          	sltu	s1,t1,s1
   12510:	97ca                	c.add	a5,s2
   12512:	97a6                	c.add	a5,s1
   12514:	9356                	c.add	t1,s5
   12516:	00f405b3          	add	a1,s0,a5
   1251a:	01533ab3          	sltu	s5,t1,s5
   1251e:	00ba8b33          	add	s6,s5,a1
   12522:	934e                	c.add	t1,s3
   12524:	016a0733          	add	a4,s4,s6
   12528:	013339b3          	sltu	s3,t1,s3
   1252c:	030e8933          	mul	s2,t4,a6
   12530:	00e986b3          	add	a3,s3,a4
   12534:	0085b5b3          	sltu	a1,a1,s0
   12538:	015b3433          	sltu	s0,s6,s5
   1253c:	8c4d                	c.or	s0,a1
   1253e:	030ebb33          	mulhu	s6,t4,a6
   12542:	014735b3          	sltu	a1,a4,s4
   12546:	0136ba33          	sltu	s4,a3,s3
   1254a:	0ff47713          	andi	a4,s0,255
   1254e:	027f09b3          	mul	s3,t5,t2
   12552:	0097b7b3          	sltu	a5,a5,s1
   12556:	0145e5b3          	or	a1,a1,s4
   1255a:	027f3bb3          	mulhu	s7,t5,t2
   1255e:	97ba                	c.add	a5,a4
   12560:	0ff5f593          	andi	a1,a1,255
   12564:	025f8cb3          	mul	s9,t6,t0
   12568:	96ca                	c.add	a3,s2
   1256a:	95be                	c.add	a1,a5
   1256c:	025fbc33          	mulhu	s8,t6,t0
   12570:	0126b933          	sltu	s2,a3,s2
   12574:	95da                	c.add	a1,s6
   12576:	031e07b3          	mul	a5,t3,a7
   1257a:	00b90a33          	add	s4,s2,a1
   1257e:	96ce                	c.add	a3,s3
   12580:	031e3733          	mulhu	a4,t3,a7
   12584:	014b8ab3          	add	s5,s7,s4
   12588:	0136b9b3          	sltu	s3,a3,s3
   1258c:	96e6                	c.add	a3,s9
   1258e:	015984b3          	add	s1,s3,s5
   12592:	0196bcb3          	sltu	s9,a3,s9
   12596:	009c0433          	add	s0,s8,s1
   1259a:	96be                	c.add	a3,a5
   1259c:	008c8d33          	add	s10,s9,s0
   125a0:	00f6bdb3          	sltu	s11,a3,a5
   125a4:	017abab3          	sltu	s5,s5,s7
   125a8:	01a707b3          	add	a5,a4,s10
   125ac:	012a3a33          	sltu	s4,s4,s2
   125b0:	0134b4b3          	sltu	s1,s1,s3
   125b4:	0165b5b3          	sltu	a1,a1,s6
   125b8:	027e8933          	mul	s2,t4,t2
   125bc:	00fd89b3          	add	s3,s11,a5
   125c0:	019d3d33          	sltu	s10,s10,s9
   125c4:	009ae4b3          	or	s1,s5,s1
   125c8:	0145e5b3          	or	a1,a1,s4
   125cc:	01843433          	sltu	s0,s0,s8
   125d0:	027eb3b3          	mulhu	t2,t4,t2
   125d4:	0ff5f593          	andi	a1,a1,255
   125d8:	01a46433          	or	s0,s0,s10
   125dc:	00e7b733          	sltu	a4,a5,a4
   125e0:	0ff4f493          	andi	s1,s1,255
   125e4:	01b9b7b3          	sltu	a5,s3,s11
   125e8:	03ef8b33          	mul	s6,t6,t5
   125ec:	94ae                	c.add	s1,a1
   125ee:	8f5d                	c.or	a4,a5
   125f0:	0ff47413          	andi	s0,s0,255
   125f4:	03efba33          	mulhu	s4,t6,t5
   125f8:	9426                	c.add	s0,s1
   125fa:	0ff77713          	andi	a4,a4,255
   125fe:	025e04b3          	mul	s1,t3,t0
   12602:	013905b3          	add	a1,s2,s3
   12606:	9722                	c.add	a4,s0
   12608:	025e3ab3          	mulhu	s5,t3,t0
   1260c:	0125b933          	sltu	s2,a1,s2
   12610:	971e                	c.add	a4,t2
   12612:	00e90bb3          	add	s7,s2,a4
   12616:	95da                	c.add	a1,s6
   12618:	017a02b3          	add	t0,s4,s7
   1261c:	0165bb33          	sltu	s6,a1,s6
   12620:	005b0c33          	add	s8,s6,t0
   12624:	95a6                	c.add	a1,s1
   12626:	018a87b3          	add	a5,s5,s8
   1262a:	0095b9b3          	sltu	s3,a1,s1
   1262e:	03fe8433          	mul	s0,t4,t6
   12632:	00f984b3          	add	s1,s3,a5
   12636:	016c3c33          	sltu	s8,s8,s6
   1263a:	012bbbb3          	sltu	s7,s7,s2
   1263e:	0142b2b3          	sltu	t0,t0,s4
   12642:	00773733          	sltu	a4,a4,t2
   12646:	03febfb3          	mulhu	t6,t4,t6
   1264a:	0134b9b3          	sltu	s3,s1,s3
   1264e:	0182e2b3          	or	t0,t0,s8
   12652:	01776733          	or	a4,a4,s7
   12656:	0157b7b3          	sltu	a5,a5,s5
   1265a:	03ee03b3          	mul	t2,t3,t5
   1265e:	0ff77713          	andi	a4,a4,255
   12662:	0137e7b3          	or	a5,a5,s3
   12666:	0ff2f293          	andi	t0,t0,255
   1266a:	03ee3f33          	mulhu	t5,t3,t5
   1266e:	92ba                	c.add	t0,a4
   12670:	0ff7f793          	andi	a5,a5,255
   12674:	94a2                	c.add	s1,s0
   12676:	9796                	c.add	a5,t0
   12678:	0084b433          	sltu	s0,s1,s0
   1267c:	97fe                	c.add	a5,t6
   1267e:	00f40933          	add	s2,s0,a5
   12682:	009382b3          	add	t0,t2,s1
   12686:	012f0733          	add	a4,t5,s2
   1268a:	03de04b3          	mul	s1,t3,t4
   1268e:	0072b3b3          	sltu	t2,t0,t2
   12692:	03de3e33          	mulhu	t3,t3,t4
   12696:	00893933          	sltu	s2,s2,s0
   1269a:	00e38eb3          	add	t4,t2,a4
   1269e:	01f7b7b3          	sltu	a5,a5,t6
   126a2:	01e73733          	sltu	a4,a4,t5
   126a6:	0127e7b3          	or	a5,a5,s2
   126aa:	007eb3b3          	sltu	t2,t4,t2
   126ae:	03180833          	mul	a6,a6,a7
   126b2:	0ff7f793          	andi	a5,a5,255
   126b6:	00776733          	or	a4,a4,t2
   126ba:	6466                	c.ldsp	s0,88(sp)
   126bc:	01d488b3          	add	a7,s1,t4
   126c0:	97f2                	c.add	a5,t3
   126c2:	0ff77713          	andi	a4,a4,255
   126c6:	0098b4b3          	sltu	s1,a7,s1
   126ca:	97ba                	c.add	a5,a4
   126cc:	6926                	c.ldsp	s2,72(sp)
   126ce:	97a6                	c.add	a5,s1
   126d0:	6986                	c.ldsp	s3,64(sp)
   126d2:	64c6                	c.ldsp	s1,80(sp)
   126d4:	01053023          	sd	a6,0(a0)
   126d8:	e510                	c.sd	a2,8(a0)
   126da:	00653823          	sd	t1,16(a0)
   126de:	ed14                	c.sd	a3,24(a0)
   126e0:	f10c                	c.sd	a1,32(a0)
   126e2:	02553423          	sd	t0,40(a0)
   126e6:	03153823          	sd	a7,48(a0)
   126ea:	fd1c                	c.sd	a5,56(a0)
   126ec:	7a62                	c.ldsp	s4,56(sp)
   126ee:	7ac2                	c.ldsp	s5,48(sp)
   126f0:	7b22                	c.ldsp	s6,40(sp)
   126f2:	7b82                	c.ldsp	s7,32(sp)
   126f4:	6c62                	c.ldsp	s8,24(sp)
   126f6:	6cc2                	c.ldsp	s9,16(sp)
   126f8:	6d22                	c.ldsp	s10,8(sp)
   126fa:	6d82                	c.ldsp	s11,0(sp)
   126fc:	6125                	c.addi16sp	sp,96
   126fe:	8082                	c.jr	ra

0000000000012700 <fp_mont_reduce_ct>:
   12700:	940ff06f          	jal	zero,11840 <fp_mont_reduce>
   12704:	00000013          	addi	zero,zero,0
   12708:	00000013          	addi	zero,zero,0
   1270c:	00000013          	addi	zero,zero,0
   12710:	00000013          	addi	zero,zero,0
   12714:	00000013          	addi	zero,zero,0
   12718:	00000013          	addi	zero,zero,0
   1271c:	00000013          	addi	zero,zero,0

0000000000012720 <fp_mont_mul_ct>:
   12720:	7171                	c.addi16sp	sp,-176
   12722:	f122                	c.sdsp	s0,160(sp)
   12724:	842a                	c.mv	s0,a0
   12726:	ed26                	c.sdsp	s1,152(sp)
   12728:	850a                	c.mv	a0,sp
   1272a:	0001d4b7          	lui	s1,0x1d
   1272e:	e004b783          	ld	a5,-512(s1) # 1ce00 <__stack_chk_guard@GLIBC_2.27>
   12732:	e53e                	c.sdsp	a5,136(sp)
   12734:	4781                	c.li	a5,0
   12736:	f506                	c.sdsp	ra,168(sp)
   12738:	d49ff0ef          	jal	ra,12480 <fp_mul_4x4_u512_ct>
   1273c:	6782                	c.ldsp	a5,0(sp)
   1273e:	008c                	c.addi4spn	a1,sp,64
   12740:	8522                	c.mv	a0,s0
   12742:	e102                	c.sdsp	zero,128(sp)
   12744:	e0be                	c.sdsp	a5,64(sp)
   12746:	67a2                	c.ldsp	a5,8(sp)
   12748:	e4be                	c.sdsp	a5,72(sp)
   1274a:	67c2                	c.ldsp	a5,16(sp)
   1274c:	e8be                	c.sdsp	a5,80(sp)
   1274e:	67e2                	c.ldsp	a5,24(sp)
   12750:	ecbe                	c.sdsp	a5,88(sp)
   12752:	7782                	c.ldsp	a5,32(sp)
   12754:	f0be                	c.sdsp	a5,96(sp)
   12756:	77a2                	c.ldsp	a5,40(sp)
   12758:	f4be                	c.sdsp	a5,104(sp)
   1275a:	77c2                	c.ldsp	a5,48(sp)
   1275c:	f8be                	c.sdsp	a5,112(sp)
   1275e:	77e2                	c.ldsp	a5,56(sp)
   12760:	fcbe                	c.sdsp	a5,120(sp)
   12762:	8deff0ef          	jal	ra,11840 <fp_mont_reduce>
   12766:	672a                	c.ldsp	a4,136(sp)
   12768:	e004b783          	ld	a5,-512(s1)
   1276c:	8fb9                	c.xor	a5,a4
   1276e:	4701                	c.li	a4,0
   12770:	e791                	c.bnez	a5,1277c <fp_mont_mul_ct+0x5c>
   12772:	70aa                	c.ldsp	ra,168(sp)
   12774:	740a                	c.ldsp	s0,160(sp)
   12776:	64ea                	c.ldsp	s1,152(sp)
   12778:	614d                	c.addi16sp	sp,176
   1277a:	8082                	c.jr	ra
   1277c:	f45fd0ef          	jal	ra,106c0 <__stack_chk_fail@plt>

0000000000012780 <fp_mont_mul>:
   12780:	7171                	c.addi16sp	sp,-176
   12782:	f122                	c.sdsp	s0,160(sp)
   12784:	842a                	c.mv	s0,a0
   12786:	ed26                	c.sdsp	s1,152(sp)
   12788:	850a                	c.mv	a0,sp
   1278a:	0001d4b7          	lui	s1,0x1d
   1278e:	e004b783          	ld	a5,-512(s1) # 1ce00 <__stack_chk_guard@GLIBC_2.27>
   12792:	e53e                	c.sdsp	a5,136(sp)
   12794:	4781                	c.li	a5,0
   12796:	f506                	c.sdsp	ra,168(sp)
   12798:	ce9ff0ef          	jal	ra,12480 <fp_mul_4x4_u512_ct>
   1279c:	6782                	c.ldsp	a5,0(sp)
   1279e:	008c                	c.addi4spn	a1,sp,64
   127a0:	8522                	c.mv	a0,s0
   127a2:	e102                	c.sdsp	zero,128(sp)
   127a4:	e0be                	c.sdsp	a5,64(sp)
   127a6:	67a2                	c.ldsp	a5,8(sp)
   127a8:	e4be                	c.sdsp	a5,72(sp)
   127aa:	67c2                	c.ldsp	a5,16(sp)
   127ac:	e8be                	c.sdsp	a5,80(sp)
   127ae:	67e2                	c.ldsp	a5,24(sp)
   127b0:	ecbe                	c.sdsp	a5,88(sp)
   127b2:	7782                	c.ldsp	a5,32(sp)
   127b4:	f0be                	c.sdsp	a5,96(sp)
   127b6:	77a2                	c.ldsp	a5,40(sp)
   127b8:	f4be                	c.sdsp	a5,104(sp)
   127ba:	77c2                	c.ldsp	a5,48(sp)
   127bc:	f8be                	c.sdsp	a5,112(sp)
   127be:	77e2                	c.ldsp	a5,56(sp)
   127c0:	fcbe                	c.sdsp	a5,120(sp)
   127c2:	87eff0ef          	jal	ra,11840 <fp_mont_reduce>
   127c6:	672a                	c.ldsp	a4,136(sp)
   127c8:	e004b783          	ld	a5,-512(s1)
   127cc:	8fb9                	c.xor	a5,a4
   127ce:	4701                	c.li	a4,0
   127d0:	e791                	c.bnez	a5,127dc <fp_mont_mul+0x5c>
   127d2:	70aa                	c.ldsp	ra,168(sp)
   127d4:	740a                	c.ldsp	s0,160(sp)
   127d6:	64ea                	c.ldsp	s1,152(sp)
   127d8:	614d                	c.addi16sp	sp,176
   127da:	8082                	c.jr	ra
   127dc:	ee5fd0ef          	jal	ra,106c0 <__stack_chk_fail@plt>

00000000000127e0 <fp_mont_sqr>:
   127e0:	7131                	c.addi16sp	sp,-192
   127e2:	872e                	c.mv	a4,a1
   127e4:	fd06                	c.sdsp	ra,184(sp)
   127e6:	008c                	c.addi4spn	a1,sp,64
   127e8:	f922                	c.sdsp	s0,176(sp)
   127ea:	0001d437          	lui	s0,0x1d
   127ee:	f526                	c.sdsp	s1,168(sp)
   127f0:	e0043783          	ld	a5,-512(s0) # 1ce00 <__stack_chk_guard@GLIBC_2.27>
   127f4:	e53e                	c.sdsp	a5,136(sp)
   127f6:	4781                	c.li	a5,0
   127f8:	f14a                	c.sdsp	s2,160(sp)
   127fa:	ed4e                	c.sdsp	s3,152(sp)
   127fc:	00073e03          	ld	t3,0(a4)
   12800:	e102                	c.sdsp	zero,128(sp)
   12802:	6714                	c.ld	a3,8(a4)
   12804:	6b1c                	c.ld	a5,16(a4)
   12806:	01873e83          	ld	t4,24(a4)
   1280a:	03ce3633          	mulhu	a2,t3,t3
   1280e:	02de0733          	mul	a4,t3,a3
   12812:	02de34b3          	mulhu	s1,t3,a3
   12816:	02fe0f33          	mul	t5,t3,a5
   1281a:	02fe33b3          	mulhu	t2,t3,a5
   1281e:	20c728b3          	sh1add	a7,a4,a2
   12822:	03f75813          	srli	a6,a4,0x3f
   12826:	00149713          	slli	a4,s1,0x1
   1282a:	00c8b633          	sltu	a2,a7,a2
   1282e:	01076733          	or	a4,a4,a6
   12832:	02d68833          	mul	a6,a3,a3
   12836:	963a                	c.add	a2,a4
   12838:	03ff5f93          	srli	t6,t5,0x3f
   1283c:	00e63333          	sltu	t1,a2,a4
   12840:	02d6b2b3          	mulhu	t0,a3,a3
   12844:	00139713          	slli	a4,t2,0x1
   12848:	90fd                	c.srli	s1,0x3f
   1284a:	20cf2f33          	sh1add	t5,t5,a2
   1284e:	949a                	c.add	s1,t1
   12850:	01f76733          	or	a4,a4,t6
   12854:	00cf3333          	sltu	t1,t5,a2
   12858:	9726                	c.add	a4,s1
   1285a:	987a                	c.add	a6,t5
   1285c:	00e309b3          	add	s3,t1,a4
   12860:	03de00b3          	mul	ra,t3,t4
   12864:	03de3fb3          	mulhu	t6,t3,t4
   12868:	92ce                	c.add	t0,s3
   1286a:	01e83f33          	sltu	t5,a6,t5
   1286e:	00973633          	sltu	a2,a4,s1
   12872:	005f0933          	add	s2,t5,t0
   12876:	0069b733          	sltu	a4,s3,t1
   1287a:	02f6b4b3          	mulhu	s1,a3,a5
   1287e:	01e93f33          	sltu	t5,s2,t5
   12882:	02f68333          	mul	t1,a3,a5
   12886:	8e59                	c.or	a2,a4
   12888:	0132b2b3          	sltu	t0,t0,s3
   1288c:	03f3d393          	srli	t2,t2,0x3f
   12890:	01e2e2b3          	or	t0,t0,t5
   12894:	0ff67613          	andi	a2,a2,255
   12898:	03f0df13          	srli	t5,ra,0x3f
   1289c:	961e                	c.add	a2,t2
   1289e:	0ff2f293          	andi	t0,t0,255
   128a2:	001f9713          	slli	a4,t6,0x1
   128a6:	2120a0b3          	sh1add	ra,ra,s2
   128aa:	9616                	c.add	a2,t0
   128ac:	01e76733          	or	a4,a4,t5
   128b0:	0120b933          	sltu	s2,ra,s2
   128b4:	9732                	c.add	a4,a2
   128b6:	03f35393          	srli	t2,t1,0x3f
   128ba:	00149f13          	slli	t5,s1,0x1
   128be:	00e902b3          	add	t0,s2,a4
   128c2:	20132333          	sh1add	t1,t1,ra
   128c6:	007f6f33          	or	t5,t5,t2
   128ca:	9f16                	c.add	t5,t0
   128cc:	03d683b3          	mul	t2,a3,t4
   128d0:	001339b3          	sltu	s3,t1,ra
   128d4:	03d6b6b3          	mulhu	a3,a3,t4
   128d8:	01e980b3          	add	ra,s3,t5
   128dc:	0122b933          	sltu	s2,t0,s2
   128e0:	00c73733          	sltu	a4,a4,a2
   128e4:	0130b9b3          	sltu	s3,ra,s3
   128e8:	03ffdf93          	srli	t6,t6,0x3f
   128ec:	90fd                	c.srli	s1,0x3f
   128ee:	01276733          	or	a4,a4,s2
   128f2:	005f32b3          	sltu	t0,t5,t0
   128f6:	009f8633          	add	a2,t6,s1
   128fa:	02f78933          	mul	s2,a5,a5
   128fe:	0132e2b3          	or	t0,t0,s3
   12902:	0ff77713          	andi	a4,a4,255
   12906:	03f3df93          	srli	t6,t2,0x3f
   1290a:	02f7bf33          	mulhu	t5,a5,a5
   1290e:	9732                	c.add	a4,a2
   12910:	0ff2f293          	andi	t0,t0,255
   12914:	00169613          	slli	a2,a3,0x1
   12918:	2013a3b3          	sh1add	t2,t2,ra
   1291c:	9716                	c.add	a4,t0
   1291e:	01f66633          	or	a2,a2,t6
   12922:	0013b4b3          	sltu	s1,t2,ra
   12926:	963a                	c.add	a2,a4
   12928:	00c489b3          	add	s3,s1,a2
   1292c:	01238fb3          	add	t6,t2,s2
   12930:	03d780b3          	mul	ra,a5,t4
   12934:	007fb3b3          	sltu	t2,t6,t2
   12938:	03d7b2b3          	mulhu	t0,a5,t4
   1293c:	9f4e                	c.add	t5,s3
   1293e:	01e387b3          	add	a5,t2,t5
   12942:	00e63633          	sltu	a2,a2,a4
   12946:	0099b4b3          	sltu	s1,s3,s1
   1294a:	0077b3b3          	sltu	t2,a5,t2
   1294e:	013f3f33          	sltu	t5,t5,s3
   12952:	8e45                	c.or	a2,s1
   12954:	0ff67613          	andi	a2,a2,255
   12958:	007f6f33          	or	t5,t5,t2
   1295c:	92fd                	c.srli	a3,0x3f
   1295e:	0fff7f13          	andi	t5,t5,255
   12962:	96b2                	c.add	a3,a2
   12964:	00129713          	slli	a4,t0,0x1
   12968:	03f0d613          	srli	a2,ra,0x3f
   1296c:	96fa                	c.add	a3,t5
   1296e:	20f0a0b3          	sh1add	ra,ra,a5
   12972:	8f51                	c.or	a4,a2
   12974:	9736                	c.add	a4,a3
   12976:	00f0b633          	sltu	a2,ra,a5
   1297a:	03de83b3          	mul	t2,t4,t4
   1297e:	00e60f33          	add	t5,a2,a4
   12982:	03debeb3          	mulhu	t4,t4,t4
   12986:	00d737b3          	sltu	a5,a4,a3
   1298a:	00cf3633          	sltu	a2,t5,a2
   1298e:	03ce0e33          	mul	t3,t3,t3
   12992:	8fd1                	c.or	a5,a2
   12994:	03f2d293          	srli	t0,t0,0x3f
   12998:	007f0733          	add	a4,t5,t2
   1299c:	0ff7f793          	andi	a5,a5,255
   129a0:	92f6                	c.add	t0,t4
   129a2:	01e73f33          	sltu	t5,a4,t5
   129a6:	9796                	c.add	a5,t0
   129a8:	f8ba                	c.sdsp	a4,112(sp)
   129aa:	97fa                	c.add	a5,t5
   129ac:	e0f2                	c.sdsp	t3,64(sp)
   129ae:	fcbe                	c.sdsp	a5,120(sp)
   129b0:	e4c6                	c.sdsp	a7,72(sp)
   129b2:	e8c2                	c.sdsp	a6,80(sp)
   129b4:	ec9a                	c.sdsp	t1,88(sp)
   129b6:	f0fe                	c.sdsp	t6,96(sp)
   129b8:	f486                	c.sdsp	ra,104(sp)
   129ba:	e87fe0ef          	jal	ra,11840 <fp_mont_reduce>
   129be:	672a                	c.ldsp	a4,136(sp)
   129c0:	e0043783          	ld	a5,-512(s0)
   129c4:	8fb9                	c.xor	a5,a4
   129c6:	4701                	c.li	a4,0
   129c8:	eb81                	c.bnez	a5,129d8 <fp_mont_sqr+0x1f8>
   129ca:	70ea                	c.ldsp	ra,184(sp)
   129cc:	744a                	c.ldsp	s0,176(sp)
   129ce:	74aa                	c.ldsp	s1,168(sp)
   129d0:	790a                	c.ldsp	s2,160(sp)
   129d2:	69ea                	c.ldsp	s3,152(sp)
   129d4:	6129                	c.addi16sp	sp,192
   129d6:	8082                	c.jr	ra
   129d8:	ce9fd0ef          	jal	ra,106c0 <__stack_chk_fail@plt>
   129dc:	00000013          	addi	zero,zero,0

00000000000129e0 <fp_to_mont>:
   129e0:	7171                	c.addi16sp	sp,-176
   129e2:	6669                	c.lui	a2,0x1a
   129e4:	f122                	c.sdsp	s0,160(sp)
   129e6:	2d060613          	addi	a2,a2,720 # 1a2d0 <FP_MONT_R2>
   129ea:	ed26                	c.sdsp	s1,152(sp)
   129ec:	842a                	c.mv	s0,a0
   129ee:	0001d4b7          	lui	s1,0x1d
   129f2:	850a                	c.mv	a0,sp
   129f4:	e004b783          	ld	a5,-512(s1) # 1ce00 <__stack_chk_guard@GLIBC_2.27>
   129f8:	e53e                	c.sdsp	a5,136(sp)
   129fa:	4781                	c.li	a5,0
   129fc:	f506                	c.sdsp	ra,168(sp)
   129fe:	a83ff0ef          	jal	ra,12480 <fp_mul_4x4_u512_ct>
   12a02:	e102                	c.sdsp	zero,128(sp)
   12a04:	6782                	c.ldsp	a5,0(sp)
   12a06:	008c                	c.addi4spn	a1,sp,64
   12a08:	8522                	c.mv	a0,s0
   12a0a:	e0be                	c.sdsp	a5,64(sp)
   12a0c:	67a2                	c.ldsp	a5,8(sp)
   12a0e:	e4be                	c.sdsp	a5,72(sp)
   12a10:	67c2                	c.ldsp	a5,16(sp)
   12a12:	e8be                	c.sdsp	a5,80(sp)
   12a14:	67e2                	c.ldsp	a5,24(sp)
   12a16:	ecbe                	c.sdsp	a5,88(sp)
   12a18:	7782                	c.ldsp	a5,32(sp)
   12a1a:	f0be                	c.sdsp	a5,96(sp)
   12a1c:	77a2                	c.ldsp	a5,40(sp)
   12a1e:	f4be                	c.sdsp	a5,104(sp)
   12a20:	77c2                	c.ldsp	a5,48(sp)
   12a22:	f8be                	c.sdsp	a5,112(sp)
   12a24:	77e2                	c.ldsp	a5,56(sp)
   12a26:	fcbe                	c.sdsp	a5,120(sp)
   12a28:	e19fe0ef          	jal	ra,11840 <fp_mont_reduce>
   12a2c:	672a                	c.ldsp	a4,136(sp)
   12a2e:	e004b783          	ld	a5,-512(s1)
   12a32:	8fb9                	c.xor	a5,a4
   12a34:	4701                	c.li	a4,0
   12a36:	e791                	c.bnez	a5,12a42 <fp_to_mont+0x62>
   12a38:	70aa                	c.ldsp	ra,168(sp)
   12a3a:	740a                	c.ldsp	s0,160(sp)
   12a3c:	64ea                	c.ldsp	s1,152(sp)
   12a3e:	614d                	c.addi16sp	sp,176
   12a40:	8082                	c.jr	ra
   12a42:	c7ffd0ef          	jal	ra,106c0 <__stack_chk_fail@plt>
   12a46:	00000013          	addi	zero,zero,0
   12a4a:	00000013          	addi	zero,zero,0
   12a4e:	00000013          	addi	zero,zero,0
   12a52:	00000013          	addi	zero,zero,0
   12a56:	00000013          	addi	zero,zero,0
   12a5a:	00000013          	addi	zero,zero,0
   12a5e:	0001                	c.addi	zero,0

0000000000012a60 <fp_from_mont>:
   12a60:	7171                	c.addi16sp	sp,-176
   12a62:	6669                	c.lui	a2,0x1a
   12a64:	f122                	c.sdsp	s0,160(sp)
   12a66:	2f060613          	addi	a2,a2,752 # 1a2f0 <FP_ONE>
   12a6a:	ed26                	c.sdsp	s1,152(sp)
   12a6c:	842a                	c.mv	s0,a0
   12a6e:	0001d4b7          	lui	s1,0x1d
   12a72:	850a                	c.mv	a0,sp
   12a74:	e004b783          	ld	a5,-512(s1) # 1ce00 <__stack_chk_guard@GLIBC_2.27>
   12a78:	e53e                	c.sdsp	a5,136(sp)
   12a7a:	4781                	c.li	a5,0
   12a7c:	f506                	c.sdsp	ra,168(sp)
   12a7e:	a03ff0ef          	jal	ra,12480 <fp_mul_4x4_u512_ct>
   12a82:	e102                	c.sdsp	zero,128(sp)
   12a84:	6782                	c.ldsp	a5,0(sp)
   12a86:	008c                	c.addi4spn	a1,sp,64
   12a88:	8522                	c.mv	a0,s0
   12a8a:	e0be                	c.sdsp	a5,64(sp)
   12a8c:	67a2                	c.ldsp	a5,8(sp)
   12a8e:	e4be                	c.sdsp	a5,72(sp)
   12a90:	67c2                	c.ldsp	a5,16(sp)
   12a92:	e8be                	c.sdsp	a5,80(sp)
   12a94:	67e2                	c.ldsp	a5,24(sp)
   12a96:	ecbe                	c.sdsp	a5,88(sp)
   12a98:	7782                	c.ldsp	a5,32(sp)
   12a9a:	f0be                	c.sdsp	a5,96(sp)
   12a9c:	77a2                	c.ldsp	a5,40(sp)
   12a9e:	f4be                	c.sdsp	a5,104(sp)
   12aa0:	77c2                	c.ldsp	a5,48(sp)
   12aa2:	f8be                	c.sdsp	a5,112(sp)
   12aa4:	77e2                	c.ldsp	a5,56(sp)
   12aa6:	fcbe                	c.sdsp	a5,120(sp)
   12aa8:	d99fe0ef          	jal	ra,11840 <fp_mont_reduce>
   12aac:	672a                	c.ldsp	a4,136(sp)
   12aae:	e004b783          	ld	a5,-512(s1)
   12ab2:	8fb9                	c.xor	a5,a4
   12ab4:	4701                	c.li	a4,0
   12ab6:	e791                	c.bnez	a5,12ac2 <fp_from_mont+0x62>
   12ab8:	70aa                	c.ldsp	ra,168(sp)
   12aba:	740a                	c.ldsp	s0,160(sp)
   12abc:	64ea                	c.ldsp	s1,152(sp)
   12abe:	614d                	c.addi16sp	sp,176
   12ac0:	8082                	c.jr	ra
   12ac2:	bfffd0ef          	jal	ra,106c0 <__stack_chk_fail@plt>
   12ac6:	00000013          	addi	zero,zero,0
   12aca:	00000013          	addi	zero,zero,0
   12ace:	00000013          	addi	zero,zero,0
   12ad2:	00000013          	addi	zero,zero,0
   12ad6:	00000013          	addi	zero,zero,0
   12ada:	00000013          	addi	zero,zero,0
   12ade:	0001                	c.addi	zero,0

0000000000012ae0 <fp_mont_inv>:
   12ae0:	da010113          	addi	sp,sp,-608
   12ae4:	24913423          	sd	s1,584(sp)
   12ae8:	0001d4b7          	lui	s1,0x1d
   12aec:	21813823          	sd	s8,528(sp)
   12af0:	e004b783          	ld	a5,-512(s1) # 1ce00 <__stack_chk_guard@GLIBC_2.27>
   12af4:	20f13423          	sd	a5,520(sp)
   12af8:	4781                	c.li	a5,0
   12afa:	8c2a                	c.mv	s8,a0
   12afc:	850a                	c.mv	a0,sp
   12afe:	24113c23          	sd	ra,600(sp)
   12b02:	24813823          	sd	s0,592(sp)
   12b06:	842e                	c.mv	s0,a1
   12b08:	25213023          	sd	s2,576(sp)
   12b0c:	491d                	c.li	s2,7
   12b0e:	23313c23          	sd	s3,568(sp)
   12b12:	23413823          	sd	s4,560(sp)
   12b16:	23513423          	sd	s5,552(sp)
   12b1a:	23613023          	sd	s6,544(sp)
   12b1e:	21713c23          	sd	s7,536(sp)
   12b22:	cbfff0ef          	jal	ra,127e0 <fp_mont_sqr>
   12b26:	8622                	c.mv	a2,s0
   12b28:	858a                	c.mv	a1,sp
   12b2a:	0308                	c.addi4spn	a0,sp,384
   12b2c:	955ff0ef          	jal	ra,12480 <fp_mul_4x4_u512_ct>
   12b30:	20013023          	sd	zero,512(sp)
   12b34:	679a                	c.ldsp	a5,384(sp)
   12b36:	038c                	c.addi4spn	a1,sp,448
   12b38:	850a                	c.mv	a0,sp
   12b3a:	e3be                	c.sdsp	a5,448(sp)
   12b3c:	67ba                	c.ldsp	a5,392(sp)
   12b3e:	e7be                	c.sdsp	a5,456(sp)
   12b40:	67da                	c.ldsp	a5,400(sp)
   12b42:	ebbe                	c.sdsp	a5,464(sp)
   12b44:	67fa                	c.ldsp	a5,408(sp)
   12b46:	efbe                	c.sdsp	a5,472(sp)
   12b48:	779a                	c.ldsp	a5,416(sp)
   12b4a:	f3be                	c.sdsp	a5,480(sp)
   12b4c:	77ba                	c.ldsp	a5,424(sp)
   12b4e:	f7be                	c.sdsp	a5,488(sp)
   12b50:	77da                	c.ldsp	a5,432(sp)
   12b52:	fbbe                	c.sdsp	a5,496(sp)
   12b54:	77fa                	c.ldsp	a5,440(sp)
   12b56:	ffbe                	c.sdsp	a5,504(sp)
   12b58:	ce9fe0ef          	jal	ra,11840 <fp_mont_reduce>
   12b5c:	858a                	c.mv	a1,sp
   12b5e:	1008                	c.addi4spn	a0,sp,32
   12b60:	c81ff0ef          	jal	ra,127e0 <fp_mont_sqr>
   12b64:	100c                	c.addi4spn	a1,sp,32
   12b66:	852e                	c.mv	a0,a1
   12b68:	c79ff0ef          	jal	ra,127e0 <fp_mont_sqr>
   12b6c:	860a                	c.mv	a2,sp
   12b6e:	100c                	c.addi4spn	a1,sp,32
   12b70:	0308                	c.addi4spn	a0,sp,384
   12b72:	90fff0ef          	jal	ra,12480 <fp_mul_4x4_u512_ct>
   12b76:	20013023          	sd	zero,512(sp)
   12b7a:	679a                	c.ldsp	a5,384(sp)
   12b7c:	038c                	c.addi4spn	a1,sp,448
   12b7e:	1008                	c.addi4spn	a0,sp,32
   12b80:	e3be                	c.sdsp	a5,448(sp)
   12b82:	67ba                	c.ldsp	a5,392(sp)
   12b84:	e7be                	c.sdsp	a5,456(sp)
   12b86:	67da                	c.ldsp	a5,400(sp)
   12b88:	ebbe                	c.sdsp	a5,464(sp)
   12b8a:	67fa                	c.ldsp	a5,408(sp)
   12b8c:	efbe                	c.sdsp	a5,472(sp)
   12b8e:	779a                	c.ldsp	a5,416(sp)
   12b90:	f3be                	c.sdsp	a5,480(sp)
   12b92:	77ba                	c.ldsp	a5,424(sp)
   12b94:	f7be                	c.sdsp	a5,488(sp)
   12b96:	77da                	c.ldsp	a5,432(sp)
   12b98:	fbbe                	c.sdsp	a5,496(sp)
   12b9a:	77fa                	c.ldsp	a5,440(sp)
   12b9c:	ffbe                	c.sdsp	a5,504(sp)
   12b9e:	ca3fe0ef          	jal	ra,11840 <fp_mont_reduce>
   12ba2:	100c                	c.addi4spn	a1,sp,32
   12ba4:	0088                	c.addi4spn	a0,sp,64
   12ba6:	c3bff0ef          	jal	ra,127e0 <fp_mont_sqr>
   12baa:	008c                	c.addi4spn	a1,sp,64
   12bac:	852e                	c.mv	a0,a1
   12bae:	c33ff0ef          	jal	ra,127e0 <fp_mont_sqr>
   12bb2:	008c                	c.addi4spn	a1,sp,64
   12bb4:	852e                	c.mv	a0,a1
   12bb6:	c2bff0ef          	jal	ra,127e0 <fp_mont_sqr>
   12bba:	008c                	c.addi4spn	a1,sp,64
   12bbc:	852e                	c.mv	a0,a1
   12bbe:	c23ff0ef          	jal	ra,127e0 <fp_mont_sqr>
   12bc2:	1010                	c.addi4spn	a2,sp,32
   12bc4:	008c                	c.addi4spn	a1,sp,64
   12bc6:	0308                	c.addi4spn	a0,sp,384
   12bc8:	8b9ff0ef          	jal	ra,12480 <fp_mul_4x4_u512_ct>
   12bcc:	20013023          	sd	zero,512(sp)
   12bd0:	679a                	c.ldsp	a5,384(sp)
   12bd2:	038c                	c.addi4spn	a1,sp,448
   12bd4:	0088                	c.addi4spn	a0,sp,64
   12bd6:	e3be                	c.sdsp	a5,448(sp)
   12bd8:	67ba                	c.ldsp	a5,392(sp)
   12bda:	e7be                	c.sdsp	a5,456(sp)
   12bdc:	67da                	c.ldsp	a5,400(sp)
   12bde:	ebbe                	c.sdsp	a5,464(sp)
   12be0:	67fa                	c.ldsp	a5,408(sp)
   12be2:	efbe                	c.sdsp	a5,472(sp)
   12be4:	779a                	c.ldsp	a5,416(sp)
   12be6:	f3be                	c.sdsp	a5,480(sp)
   12be8:	77ba                	c.ldsp	a5,424(sp)
   12bea:	f7be                	c.sdsp	a5,488(sp)
   12bec:	77da                	c.ldsp	a5,432(sp)
   12bee:	fbbe                	c.sdsp	a5,496(sp)
   12bf0:	77fa                	c.ldsp	a5,440(sp)
   12bf2:	ffbe                	c.sdsp	a5,504(sp)
   12bf4:	c4dfe0ef          	jal	ra,11840 <fp_mont_reduce>
   12bf8:	008c                	c.addi4spn	a1,sp,64
   12bfa:	1088                	c.addi4spn	a0,sp,96
   12bfc:	be5ff0ef          	jal	ra,127e0 <fp_mont_sqr>
   12c00:	108c                	c.addi4spn	a1,sp,96
   12c02:	397d                	c.addiw	s2,-1
   12c04:	852e                	c.mv	a0,a1
   12c06:	bdbff0ef          	jal	ra,127e0 <fp_mont_sqr>
   12c0a:	fe091be3          	bne	s2,zero,12c00 <fp_mont_inv+0x120>
   12c0e:	0090                	c.addi4spn	a2,sp,64
   12c10:	108c                	c.addi4spn	a1,sp,96
   12c12:	0308                	c.addi4spn	a0,sp,384
   12c14:	493d                	c.li	s2,15
   12c16:	86bff0ef          	jal	ra,12480 <fp_mul_4x4_u512_ct>
   12c1a:	20013023          	sd	zero,512(sp)
   12c1e:	679a                	c.ldsp	a5,384(sp)
   12c20:	038c                	c.addi4spn	a1,sp,448
   12c22:	1088                	c.addi4spn	a0,sp,96
   12c24:	e3be                	c.sdsp	a5,448(sp)
   12c26:	67ba                	c.ldsp	a5,392(sp)
   12c28:	e7be                	c.sdsp	a5,456(sp)
   12c2a:	67da                	c.ldsp	a5,400(sp)
   12c2c:	ebbe                	c.sdsp	a5,464(sp)
   12c2e:	67fa                	c.ldsp	a5,408(sp)
   12c30:	efbe                	c.sdsp	a5,472(sp)
   12c32:	779a                	c.ldsp	a5,416(sp)
   12c34:	f3be                	c.sdsp	a5,480(sp)
   12c36:	77ba                	c.ldsp	a5,424(sp)
   12c38:	f7be                	c.sdsp	a5,488(sp)
   12c3a:	77da                	c.ldsp	a5,432(sp)
   12c3c:	fbbe                	c.sdsp	a5,496(sp)
   12c3e:	77fa                	c.ldsp	a5,440(sp)
   12c40:	ffbe                	c.sdsp	a5,504(sp)
   12c42:	bfffe0ef          	jal	ra,11840 <fp_mont_reduce>
   12c46:	108c                	c.addi4spn	a1,sp,96
   12c48:	0108                	c.addi4spn	a0,sp,128
   12c4a:	b97ff0ef          	jal	ra,127e0 <fp_mont_sqr>
   12c4e:	010c                	c.addi4spn	a1,sp,128
   12c50:	397d                	c.addiw	s2,-1
   12c52:	852e                	c.mv	a0,a1
   12c54:	b8dff0ef          	jal	ra,127e0 <fp_mont_sqr>
   12c58:	fe091be3          	bne	s2,zero,12c4e <fp_mont_inv+0x16e>
   12c5c:	1090                	c.addi4spn	a2,sp,96
   12c5e:	010c                	c.addi4spn	a1,sp,128
   12c60:	0308                	c.addi4spn	a0,sp,384
   12c62:	4915                	c.li	s2,5
   12c64:	81dff0ef          	jal	ra,12480 <fp_mul_4x4_u512_ct>
   12c68:	20013023          	sd	zero,512(sp)
   12c6c:	679a                	c.ldsp	a5,384(sp)
   12c6e:	038c                	c.addi4spn	a1,sp,448
   12c70:	0108                	c.addi4spn	a0,sp,128
   12c72:	e3be                	c.sdsp	a5,448(sp)
   12c74:	67ba                	c.ldsp	a5,392(sp)
   12c76:	e7be                	c.sdsp	a5,456(sp)
   12c78:	67da                	c.ldsp	a5,400(sp)
   12c7a:	ebbe                	c.sdsp	a5,464(sp)
   12c7c:	67fa                	c.ldsp	a5,408(sp)
   12c7e:	efbe                	c.sdsp	a5,472(sp)
   12c80:	779a                	c.ldsp	a5,416(sp)
   12c82:	f3be                	c.sdsp	a5,480(sp)
   12c84:	77ba                	c.ldsp	a5,424(sp)
   12c86:	f7be                	c.sdsp	a5,488(sp)
   12c88:	77da                	c.ldsp	a5,432(sp)
   12c8a:	fbbe                	c.sdsp	a5,496(sp)
   12c8c:	77fa                	c.ldsp	a5,440(sp)
   12c8e:	ffbe                	c.sdsp	a5,504(sp)
   12c90:	bb1fe0ef          	jal	ra,11840 <fp_mont_reduce>
   12c94:	100c                	c.addi4spn	a1,sp,32
   12c96:	1108                	c.addi4spn	a0,sp,160
   12c98:	b49ff0ef          	jal	ra,127e0 <fp_mont_sqr>
   12c9c:	110c                	c.addi4spn	a1,sp,160
   12c9e:	852e                	c.mv	a0,a1
   12ca0:	b41ff0ef          	jal	ra,127e0 <fp_mont_sqr>
   12ca4:	860a                	c.mv	a2,sp
   12ca6:	110c                	c.addi4spn	a1,sp,160
   12ca8:	0308                	c.addi4spn	a0,sp,384
   12caa:	fd6ff0ef          	jal	ra,12480 <fp_mul_4x4_u512_ct>
   12cae:	20013023          	sd	zero,512(sp)
   12cb2:	679a                	c.ldsp	a5,384(sp)
   12cb4:	038c                	c.addi4spn	a1,sp,448
   12cb6:	1108                	c.addi4spn	a0,sp,160
   12cb8:	e3be                	c.sdsp	a5,448(sp)
   12cba:	67ba                	c.ldsp	a5,392(sp)
   12cbc:	e7be                	c.sdsp	a5,456(sp)
   12cbe:	67da                	c.ldsp	a5,400(sp)
   12cc0:	ebbe                	c.sdsp	a5,464(sp)
   12cc2:	67fa                	c.ldsp	a5,408(sp)
   12cc4:	efbe                	c.sdsp	a5,472(sp)
   12cc6:	779a                	c.ldsp	a5,416(sp)
   12cc8:	f3be                	c.sdsp	a5,480(sp)
   12cca:	77ba                	c.ldsp	a5,424(sp)
   12ccc:	f7be                	c.sdsp	a5,488(sp)
   12cce:	77da                	c.ldsp	a5,432(sp)
   12cd0:	fbbe                	c.sdsp	a5,496(sp)
   12cd2:	77fa                	c.ldsp	a5,440(sp)
   12cd4:	ffbe                	c.sdsp	a5,504(sp)
   12cd6:	b6bfe0ef          	jal	ra,11840 <fp_mont_reduce>
   12cda:	008c                	c.addi4spn	a1,sp,64
   12cdc:	0188                	c.addi4spn	a0,sp,192
   12cde:	b03ff0ef          	jal	ra,127e0 <fp_mont_sqr>
   12ce2:	018c                	c.addi4spn	a1,sp,192
   12ce4:	397d                	c.addiw	s2,-1
   12ce6:	852e                	c.mv	a0,a1
   12ce8:	af9ff0ef          	jal	ra,127e0 <fp_mont_sqr>
   12cec:	fe091be3          	bne	s2,zero,12ce2 <fp_mont_inv+0x202>
   12cf0:	1110                	c.addi4spn	a2,sp,160
   12cf2:	018c                	c.addi4spn	a1,sp,192
   12cf4:	0308                	c.addi4spn	a0,sp,384
   12cf6:	4935                	c.li	s2,13
   12cf8:	f88ff0ef          	jal	ra,12480 <fp_mul_4x4_u512_ct>
   12cfc:	20013023          	sd	zero,512(sp)
   12d00:	679a                	c.ldsp	a5,384(sp)
   12d02:	038c                	c.addi4spn	a1,sp,448
   12d04:	0188                	c.addi4spn	a0,sp,192
   12d06:	e3be                	c.sdsp	a5,448(sp)
   12d08:	67ba                	c.ldsp	a5,392(sp)
   12d0a:	e7be                	c.sdsp	a5,456(sp)
   12d0c:	67da                	c.ldsp	a5,400(sp)
   12d0e:	ebbe                	c.sdsp	a5,464(sp)
   12d10:	67fa                	c.ldsp	a5,408(sp)
   12d12:	efbe                	c.sdsp	a5,472(sp)
   12d14:	779a                	c.ldsp	a5,416(sp)
   12d16:	f3be                	c.sdsp	a5,480(sp)
   12d18:	77ba                	c.ldsp	a5,424(sp)
   12d1a:	f7be                	c.sdsp	a5,488(sp)
   12d1c:	77da                	c.ldsp	a5,432(sp)
   12d1e:	fbbe                	c.sdsp	a5,496(sp)
   12d20:	77fa                	c.ldsp	a5,440(sp)
   12d22:	ffbe                	c.sdsp	a5,504(sp)
   12d24:	b1dfe0ef          	jal	ra,11840 <fp_mont_reduce>
   12d28:	108c                	c.addi4spn	a1,sp,96
   12d2a:	1188                	c.addi4spn	a0,sp,224
   12d2c:	ab5ff0ef          	jal	ra,127e0 <fp_mont_sqr>
   12d30:	118c                	c.addi4spn	a1,sp,224
   12d32:	397d                	c.addiw	s2,-1
   12d34:	852e                	c.mv	a0,a1
   12d36:	aabff0ef          	jal	ra,127e0 <fp_mont_sqr>
   12d3a:	fe091be3          	bne	s2,zero,12d30 <fp_mont_inv+0x250>
   12d3e:	0190                	c.addi4spn	a2,sp,192
   12d40:	118c                	c.addi4spn	a1,sp,224
   12d42:	0308                	c.addi4spn	a0,sp,384
   12d44:	497d                	c.li	s2,31
   12d46:	f3aff0ef          	jal	ra,12480 <fp_mul_4x4_u512_ct>
   12d4a:	20013023          	sd	zero,512(sp)
   12d4e:	679a                	c.ldsp	a5,384(sp)
   12d50:	038c                	c.addi4spn	a1,sp,448
   12d52:	1188                	c.addi4spn	a0,sp,224
   12d54:	e3be                	c.sdsp	a5,448(sp)
   12d56:	67ba                	c.ldsp	a5,392(sp)
   12d58:	e7be                	c.sdsp	a5,456(sp)
   12d5a:	67da                	c.ldsp	a5,400(sp)
   12d5c:	ebbe                	c.sdsp	a5,464(sp)
   12d5e:	67fa                	c.ldsp	a5,408(sp)
   12d60:	efbe                	c.sdsp	a5,472(sp)
   12d62:	779a                	c.ldsp	a5,416(sp)
   12d64:	f3be                	c.sdsp	a5,480(sp)
   12d66:	77ba                	c.ldsp	a5,424(sp)
   12d68:	f7be                	c.sdsp	a5,488(sp)
   12d6a:	77da                	c.ldsp	a5,432(sp)
   12d6c:	fbbe                	c.sdsp	a5,496(sp)
   12d6e:	77fa                	c.ldsp	a5,440(sp)
   12d70:	ffbe                	c.sdsp	a5,504(sp)
   12d72:	acffe0ef          	jal	ra,11840 <fp_mont_reduce>
   12d76:	118c                	c.addi4spn	a1,sp,224
   12d78:	0208                	c.addi4spn	a0,sp,256
   12d7a:	a67ff0ef          	jal	ra,127e0 <fp_mont_sqr>
   12d7e:	8622                	c.mv	a2,s0
   12d80:	020c                	c.addi4spn	a1,sp,256
   12d82:	0308                	c.addi4spn	a0,sp,384
   12d84:	efcff0ef          	jal	ra,12480 <fp_mul_4x4_u512_ct>
   12d88:	20013023          	sd	zero,512(sp)
   12d8c:	679a                	c.ldsp	a5,384(sp)
   12d8e:	038c                	c.addi4spn	a1,sp,448
   12d90:	0208                	c.addi4spn	a0,sp,256
   12d92:	e3be                	c.sdsp	a5,448(sp)
   12d94:	67ba                	c.ldsp	a5,392(sp)
   12d96:	e7be                	c.sdsp	a5,456(sp)
   12d98:	67da                	c.ldsp	a5,400(sp)
   12d9a:	ebbe                	c.sdsp	a5,464(sp)
   12d9c:	67fa                	c.ldsp	a5,408(sp)
   12d9e:	efbe                	c.sdsp	a5,472(sp)
   12da0:	779a                	c.ldsp	a5,416(sp)
   12da2:	f3be                	c.sdsp	a5,480(sp)
   12da4:	77ba                	c.ldsp	a5,424(sp)
   12da6:	f7be                	c.sdsp	a5,488(sp)
   12da8:	77da                	c.ldsp	a5,432(sp)
   12daa:	fbbe                	c.sdsp	a5,496(sp)
   12dac:	77fa                	c.ldsp	a5,440(sp)
   12dae:	ffbe                	c.sdsp	a5,504(sp)
   12db0:	a91fe0ef          	jal	ra,11840 <fp_mont_reduce>
   12db4:	010c                	c.addi4spn	a1,sp,128
   12db6:	1208                	c.addi4spn	a0,sp,288
   12db8:	a29ff0ef          	jal	ra,127e0 <fp_mont_sqr>
   12dbc:	7892                	c.ldsp	a7,288(sp)
   12dbe:	038c                	c.addi4spn	a1,sp,448
   12dc0:	73b2                	c.ldsp	t2,296(sp)
   12dc2:	1208                	c.addi4spn	a0,sp,288
   12dc4:	7752                	c.ldsp	a4,304(sp)
   12dc6:	397d                	c.addiw	s2,-1
   12dc8:	0318b6b3          	mulhu	a3,a7,a7
   12dcc:	7e72                	c.ldsp	t3,312(sp)
   12dce:	027887b3          	mul	a5,a7,t2
   12dd2:	20013023          	sd	zero,512(sp)
   12dd6:	0278b0b3          	mulhu	ra,a7,t2
   12dda:	02e889b3          	mul	s3,a7,a4
   12dde:	02e8b2b3          	mulhu	t0,a7,a4
   12de2:	20d7a833          	sh1add	a6,a5,a3
   12de6:	03f7d613          	srli	a2,a5,0x3f
   12dea:	00109793          	slli	a5,ra,0x1
   12dee:	00d836b3          	sltu	a3,a6,a3
   12df2:	8fd1                	c.or	a5,a2
   12df4:	02738633          	mul	a2,t2,t2
   12df8:	96be                	c.add	a3,a5
   12dfa:	03f9df13          	srli	t5,s3,0x3f
   12dfe:	00f6b333          	sltu	t1,a3,a5
   12e02:	0273beb3          	mulhu	t4,t2,t2
   12e06:	00129793          	slli	a5,t0,0x1
   12e0a:	03f0d093          	srli	ra,ra,0x3f
   12e0e:	20d9a9b3          	sh1add	s3,s3,a3
   12e12:	909a                	c.add	ra,t1
   12e14:	01e7e7b3          	or	a5,a5,t5
   12e18:	00d9b333          	sltu	t1,s3,a3
   12e1c:	9786                	c.add	a5,ra
   12e1e:	964e                	c.add	a2,s3
   12e20:	00f30ab3          	add	s5,t1,a5
   12e24:	03c88fb3          	mul	t6,a7,t3
   12e28:	03c8bf33          	mulhu	t5,a7,t3
   12e2c:	9ed6                	c.add	t4,s5
   12e2e:	013639b3          	sltu	s3,a2,s3
   12e32:	0017b6b3          	sltu	a3,a5,ra
   12e36:	01d980b3          	add	ra,s3,t4
   12e3a:	006ab7b3          	sltu	a5,s5,t1
   12e3e:	02e3ba33          	mulhu	s4,t2,a4
   12e42:	0130b9b3          	sltu	s3,ra,s3
   12e46:	02e38333          	mul	t1,t2,a4
   12e4a:	8edd                	c.or	a3,a5
   12e4c:	015ebeb3          	sltu	t4,t4,s5
   12e50:	03f2d293          	srli	t0,t0,0x3f
   12e54:	013eeeb3          	or	t4,t4,s3
   12e58:	0ff6f693          	andi	a3,a3,255
   12e5c:	9696                	c.add	a3,t0
   12e5e:	001f1793          	slli	a5,t5,0x1
   12e62:	03ffd293          	srli	t0,t6,0x3f
   12e66:	0ffefe93          	andi	t4,t4,255
   12e6a:	201fab33          	sh1add	s6,t6,ra
   12e6e:	9eb6                	c.add	t4,a3
   12e70:	0057e7b3          	or	a5,a5,t0
   12e74:	001b36b3          	sltu	a3,s6,ra
   12e78:	97f6                	c.add	a5,t4
   12e7a:	03f35293          	srli	t0,t1,0x3f
   12e7e:	001a1f93          	slli	t6,s4,0x1
   12e82:	00f68ab3          	add	s5,a3,a5
   12e86:	21632333          	sh1add	t1,t1,s6
   12e8a:	005fefb3          	or	t6,t6,t0
   12e8e:	01633b33          	sltu	s6,t1,s6
   12e92:	03c382b3          	mul	t0,t2,t3
   12e96:	9fd6                	c.add	t6,s5
   12e98:	03c3b3b3          	mulhu	t2,t2,t3
   12e9c:	01fb09b3          	add	s3,s6,t6
   12ea0:	01d7b7b3          	sltu	a5,a5,t4
   12ea4:	00dab6b3          	sltu	a3,s5,a3
   12ea8:	0169b0b3          	sltu	ra,s3,s6
   12eac:	03ff5f13          	srli	t5,t5,0x3f
   12eb0:	03fa5a13          	srli	s4,s4,0x3f
   12eb4:	8fd5                	c.or	a5,a3
   12eb6:	015fbfb3          	sltu	t6,t6,s5
   12eba:	014f06b3          	add	a3,t5,s4
   12ebe:	02e70eb3          	mul	t4,a4,a4
   12ec2:	001fefb3          	or	t6,t6,ra
   12ec6:	0ff7f793          	andi	a5,a5,255
   12eca:	03f2da13          	srli	s4,t0,0x3f
   12ece:	02e73f33          	mulhu	t5,a4,a4
   12ed2:	97b6                	c.add	a5,a3
   12ed4:	0fffff93          	andi	t6,t6,255
   12ed8:	00139693          	slli	a3,t2,0x1
   12edc:	2132a0b3          	sh1add	ra,t0,s3
   12ee0:	97fe                	c.add	a5,t6
   12ee2:	0146e6b3          	or	a3,a3,s4
   12ee6:	96be                	c.add	a3,a5
   12ee8:	0130b9b3          	sltu	s3,ra,s3
   12eec:	00d98a33          	add	s4,s3,a3
   12ef0:	9e86                	c.add	t4,ra
   12ef2:	03c702b3          	mul	t0,a4,t3
   12ef6:	001eb0b3          	sltu	ra,t4,ra
   12efa:	03c73733          	mulhu	a4,a4,t3
   12efe:	9f52                	c.add	t5,s4
   12f00:	01e08fb3          	add	t6,ra,t5
   12f04:	00f6b6b3          	sltu	a3,a3,a5
   12f08:	013a39b3          	sltu	s3,s4,s3
   12f0c:	001fb0b3          	sltu	ra,t6,ra
   12f10:	014f3f33          	sltu	t5,t5,s4
   12f14:	0136e6b3          	or	a3,a3,s3
   12f18:	03f3d393          	srli	t2,t2,0x3f
   12f1c:	001f6f33          	or	t5,t5,ra
   12f20:	0ff6f693          	andi	a3,a3,255
   12f24:	0fff7f13          	andi	t5,t5,255
   12f28:	969e                	c.add	a3,t2
   12f2a:	00171793          	slli	a5,a4,0x1
   12f2e:	03f2d393          	srli	t2,t0,0x3f
   12f32:	96fa                	c.add	a3,t5
   12f34:	21f2a2b3          	sh1add	t0,t0,t6
   12f38:	0077e7b3          	or	a5,a5,t2
   12f3c:	97b6                	c.add	a5,a3
   12f3e:	03ce03b3          	mul	t2,t3,t3
   12f42:	01f2bfb3          	sltu	t6,t0,t6
   12f46:	03ce3e33          	mulhu	t3,t3,t3
   12f4a:	00ff8f33          	add	t5,t6,a5
   12f4e:	00d7b7b3          	sltu	a5,a5,a3
   12f52:	01ff3fb3          	sltu	t6,t5,t6
   12f56:	031888b3          	mul	a7,a7,a7
   12f5a:	01f7e7b3          	or	a5,a5,t6
   12f5e:	937d                	c.srli	a4,0x3f
   12f60:	007f06b3          	add	a3,t5,t2
   12f64:	9772                	c.add	a4,t3
   12f66:	0ff7f793          	andi	a5,a5,255
   12f6a:	01e6bf33          	sltu	t5,a3,t5
   12f6e:	97ba                	c.add	a5,a4
   12f70:	e3c6                	c.sdsp	a7,448(sp)
   12f72:	97fa                	c.add	a5,t5
   12f74:	e7c2                	c.sdsp	a6,456(sp)
   12f76:	ebb2                	c.sdsp	a2,464(sp)
   12f78:	ef9a                	c.sdsp	t1,472(sp)
   12f7a:	f3f6                	c.sdsp	t4,480(sp)
   12f7c:	f796                	c.sdsp	t0,488(sp)
   12f7e:	fbb6                	c.sdsp	a3,496(sp)
   12f80:	ffbe                	c.sdsp	a5,504(sp)
   12f82:	8bffe0ef          	jal	ra,11840 <fp_mont_reduce>
   12f86:	e2091be3          	bne	s2,zero,12dbc <fp_mont_inv+0x2dc>
   12f8a:	0110                	c.addi4spn	a2,sp,128
   12f8c:	120c                	c.addi4spn	a1,sp,288
   12f8e:	0308                	c.addi4spn	a0,sp,384
   12f90:	02000913          	addi	s2,zero,32
   12f94:	cecff0ef          	jal	ra,12480 <fp_mul_4x4_u512_ct>
   12f98:	20013023          	sd	zero,512(sp)
   12f9c:	679a                	c.ldsp	a5,384(sp)
   12f9e:	038c                	c.addi4spn	a1,sp,448
   12fa0:	1208                	c.addi4spn	a0,sp,288
   12fa2:	e3be                	c.sdsp	a5,448(sp)
   12fa4:	67ba                	c.ldsp	a5,392(sp)
   12fa6:	e7be                	c.sdsp	a5,456(sp)
   12fa8:	67da                	c.ldsp	a5,400(sp)
   12faa:	ebbe                	c.sdsp	a5,464(sp)
   12fac:	67fa                	c.ldsp	a5,408(sp)
   12fae:	efbe                	c.sdsp	a5,472(sp)
   12fb0:	779a                	c.ldsp	a5,416(sp)
   12fb2:	f3be                	c.sdsp	a5,480(sp)
   12fb4:	77ba                	c.ldsp	a5,424(sp)
   12fb6:	f7be                	c.sdsp	a5,488(sp)
   12fb8:	77da                	c.ldsp	a5,432(sp)
   12fba:	fbbe                	c.sdsp	a5,496(sp)
   12fbc:	77fa                	c.ldsp	a5,440(sp)
   12fbe:	ffbe                	c.sdsp	a5,504(sp)
   12fc0:	881fe0ef          	jal	ra,11840 <fp_mont_reduce>
   12fc4:	020c                	c.addi4spn	a1,sp,256
   12fc6:	1288                	c.addi4spn	a0,sp,352
   12fc8:	819ff0ef          	jal	ra,127e0 <fp_mont_sqr>
   12fcc:	7eb6                	c.ldsp	t4,360(sp)
   12fce:	038c                	c.addi4spn	a1,sp,448
   12fd0:	7896                	c.ldsp	a7,352(sp)
   12fd2:	1288                	c.addi4spn	a0,sp,352
   12fd4:	77d6                	c.ldsp	a5,368(sp)
   12fd6:	397d                	c.addiw	s2,-1
   12fd8:	03debf33          	mulhu	t5,t4,t4
   12fdc:	7376                	c.ldsp	t1,376(sp)
   12fde:	03d88733          	mul	a4,a7,t4
   12fe2:	20013023          	sd	zero,512(sp)
   12fe6:	03d8b0b3          	mulhu	ra,a7,t4
   12fea:	0318b6b3          	mulhu	a3,a7,a7
   12fee:	02f889b3          	mul	s3,a7,a5
   12ff2:	02f8b2b3          	mulhu	t0,a7,a5
   12ff6:	03f75613          	srli	a2,a4,0x3f
   12ffa:	0268b3b3          	mulhu	t2,a7,t1
   12ffe:	20d72833          	sh1add	a6,a4,a3
   13002:	00109713          	slli	a4,ra,0x1
   13006:	8f51                	c.or	a4,a2
   13008:	00d836b3          	sltu	a3,a6,a3
   1300c:	96ba                	c.add	a3,a4
   1300e:	03de8633          	mul	a2,t4,t4
   13012:	00e6be33          	sltu	t3,a3,a4
   13016:	03f9df93          	srli	t6,s3,0x3f
   1301a:	00129713          	slli	a4,t0,0x1
   1301e:	03f0d093          	srli	ra,ra,0x3f
   13022:	20d9a9b3          	sh1add	s3,s3,a3
   13026:	90f2                	c.add	ra,t3
   13028:	01f76733          	or	a4,a4,t6
   1302c:	00d9be33          	sltu	t3,s3,a3
   13030:	9706                	c.add	a4,ra
   13032:	964e                	c.add	a2,s3
   13034:	00ee0ab3          	add	s5,t3,a4
   13038:	02688fb3          	mul	t6,a7,t1
   1303c:	9f56                	c.add	t5,s5
   1303e:	013639b3          	sltu	s3,a2,s3
   13042:	001736b3          	sltu	a3,a4,ra
   13046:	01e980b3          	add	ra,s3,t5
   1304a:	01cab733          	sltu	a4,s5,t3
   1304e:	02feba33          	mulhu	s4,t4,a5
   13052:	02fe8e33          	mul	t3,t4,a5
   13056:	0130b9b3          	sltu	s3,ra,s3
   1305a:	8ed9                	c.or	a3,a4
   1305c:	015f3f33          	sltu	t5,t5,s5
   13060:	03f2d293          	srli	t0,t0,0x3f
   13064:	013f6f33          	or	t5,t5,s3
   13068:	0ff6f693          	andi	a3,a3,255
   1306c:	00139713          	slli	a4,t2,0x1
   13070:	9696                	c.add	a3,t0
   13072:	0fff7f13          	andi	t5,t5,255
   13076:	03ffd293          	srli	t0,t6,0x3f
   1307a:	201fa9b3          	sh1add	s3,t6,ra
   1307e:	9f36                	c.add	t5,a3
   13080:	00576733          	or	a4,a4,t0
   13084:	977a                	c.add	a4,t5
   13086:	0019b0b3          	sltu	ra,s3,ra
   1308a:	03fe5693          	srli	a3,t3,0x3f
   1308e:	001a1f93          	slli	t6,s4,0x1
   13092:	00e08b33          	add	s6,ra,a4
   13096:	213e2e33          	sh1add	t3,t3,s3
   1309a:	00dfefb3          	or	t6,t6,a3
   1309e:	026e8ab3          	mul	s5,t4,t1
   130a2:	026eb2b3          	mulhu	t0,t4,t1
   130a6:	9fda                	c.add	t6,s6
   130a8:	013e3eb3          	sltu	t4,t3,s3
   130ac:	01e736b3          	sltu	a3,a4,t5
   130b0:	01fe89b3          	add	s3,t4,t6
   130b4:	001b30b3          	sltu	ra,s6,ra
   130b8:	01d9beb3          	sltu	t4,s3,t4
   130bc:	03fa5a13          	srli	s4,s4,0x3f
   130c0:	0016e6b3          	or	a3,a3,ra
   130c4:	03f3d393          	srli	t2,t2,0x3f
   130c8:	016fbfb3          	sltu	t6,t6,s6
   130cc:	93d2                	c.add	t2,s4
   130ce:	02f78f33          	mul	t5,a5,a5
   130d2:	01dfefb3          	or	t6,t6,t4
   130d6:	0ff6f693          	andi	a3,a3,255
   130da:	02f7beb3          	mulhu	t4,a5,a5
   130de:	969e                	c.add	a3,t2
   130e0:	0fffff93          	andi	t6,t6,255
   130e4:	00129713          	slli	a4,t0,0x1
   130e8:	03fad393          	srli	t2,s5,0x3f
   130ec:	213aa0b3          	sh1add	ra,s5,s3
   130f0:	96fe                	c.add	a3,t6
   130f2:	00776733          	or	a4,a4,t2
   130f6:	0130b9b3          	sltu	s3,ra,s3
   130fa:	9736                	c.add	a4,a3
   130fc:	9f06                	c.add	t5,ra
   130fe:	00e98a33          	add	s4,s3,a4
   13102:	026783b3          	mul	t2,a5,t1
   13106:	0267bfb3          	mulhu	t6,a5,t1
   1310a:	001f30b3          	sltu	ra,t5,ra
   1310e:	9ed2                	c.add	t4,s4
   13110:	00d736b3          	sltu	a3,a4,a3
   13114:	01d087b3          	add	a5,ra,t4
   13118:	013a39b3          	sltu	s3,s4,s3
   1311c:	0017b0b3          	sltu	ra,a5,ra
   13120:	014ebeb3          	sltu	t4,t4,s4
   13124:	0136e6b3          	or	a3,a3,s3
   13128:	03f2d293          	srli	t0,t0,0x3f
   1312c:	001eeeb3          	or	t4,t4,ra
   13130:	0ff6f693          	andi	a3,a3,255
   13134:	9696                	c.add	a3,t0
   13136:	0ffefe93          	andi	t4,t4,255
   1313a:	03f3d293          	srli	t0,t2,0x3f
   1313e:	001f9713          	slli	a4,t6,0x1
   13142:	96f6                	c.add	a3,t4
   13144:	20f3a3b3          	sh1add	t2,t2,a5
   13148:	00576733          	or	a4,a4,t0
   1314c:	00f3beb3          	sltu	t4,t2,a5
   13150:	9736                	c.add	a4,a3
   13152:	026300b3          	mul	ra,t1,t1
   13156:	02633333          	mulhu	t1,t1,t1
   1315a:	00ee82b3          	add	t0,t4,a4
   1315e:	00d737b3          	sltu	a5,a4,a3
   13162:	01d2beb3          	sltu	t4,t0,t4
   13166:	031888b3          	mul	a7,a7,a7
   1316a:	01d7e7b3          	or	a5,a5,t4
   1316e:	03ffdf93          	srli	t6,t6,0x3f
   13172:	00128733          	add	a4,t0,ra
   13176:	9f9a                	c.add	t6,t1
   13178:	0ff7f793          	andi	a5,a5,255
   1317c:	005732b3          	sltu	t0,a4,t0
   13180:	97fe                	c.add	a5,t6
   13182:	9796                	c.add	a5,t0
   13184:	e3c6                	c.sdsp	a7,448(sp)
   13186:	e7c2                	c.sdsp	a6,456(sp)
   13188:	ebb2                	c.sdsp	a2,464(sp)
   1318a:	eff2                	c.sdsp	t3,472(sp)
   1318c:	f3fa                	c.sdsp	t5,480(sp)
   1318e:	f79e                	c.sdsp	t2,488(sp)
   13190:	fbba                	c.sdsp	a4,496(sp)
   13192:	ffbe                	c.sdsp	a5,504(sp)
   13194:	eacfe0ef          	jal	ra,11840 <fp_mont_reduce>
   13198:	e2091ae3          	bne	s2,zero,12fcc <fp_mont_inv+0x4ec>
   1319c:	1290                	c.addi4spn	a2,sp,352
   1319e:	010c                	c.addi4spn	a1,sp,128
   131a0:	0308                	c.addi4spn	a0,sp,384
   131a2:	03f00913          	addi	s2,zero,63
   131a6:	adaff0ef          	jal	ra,12480 <fp_mul_4x4_u512_ct>
   131aa:	20013023          	sd	zero,512(sp)
   131ae:	679a                	c.ldsp	a5,384(sp)
   131b0:	038c                	c.addi4spn	a1,sp,448
   131b2:	0288                	c.addi4spn	a0,sp,320
   131b4:	e3be                	c.sdsp	a5,448(sp)
   131b6:	67ba                	c.ldsp	a5,392(sp)
   131b8:	e7be                	c.sdsp	a5,456(sp)
   131ba:	67da                	c.ldsp	a5,400(sp)
   131bc:	ebbe                	c.sdsp	a5,464(sp)
   131be:	67fa                	c.ldsp	a5,408(sp)
   131c0:	efbe                	c.sdsp	a5,472(sp)
   131c2:	779a                	c.ldsp	a5,416(sp)
   131c4:	f3be                	c.sdsp	a5,480(sp)
   131c6:	77ba                	c.ldsp	a5,424(sp)
   131c8:	f7be                	c.sdsp	a5,488(sp)
   131ca:	77da                	c.ldsp	a5,432(sp)
   131cc:	fbbe                	c.sdsp	a5,496(sp)
   131ce:	77fa                	c.ldsp	a5,440(sp)
   131d0:	ffbe                	c.sdsp	a5,504(sp)
   131d2:	e6efe0ef          	jal	ra,11840 <fp_mont_reduce>
   131d6:	028c                	c.addi4spn	a1,sp,320
   131d8:	852e                	c.mv	a0,a1
   131da:	e06ff0ef          	jal	ra,127e0 <fp_mont_sqr>
   131de:	6896                	c.ldsp	a7,320(sp)
   131e0:	038c                	c.addi4spn	a1,sp,448
   131e2:	63b6                	c.ldsp	t2,328(sp)
   131e4:	0288                	c.addi4spn	a0,sp,320
   131e6:	67d6                	c.ldsp	a5,336(sp)
   131e8:	397d                	c.addiw	s2,-1
   131ea:	0318b6b3          	mulhu	a3,a7,a7
   131ee:	6e76                	c.ldsp	t3,344(sp)
   131f0:	02788733          	mul	a4,a7,t2
   131f4:	20013023          	sd	zero,512(sp)
   131f8:	0278b9b3          	mulhu	s3,a7,t2
   131fc:	02f88eb3          	mul	t4,a7,a5
   13200:	02f8b0b3          	mulhu	ra,a7,a5
   13204:	20d72833          	sh1add	a6,a4,a3
   13208:	03f75613          	srli	a2,a4,0x3f
   1320c:	00199713          	slli	a4,s3,0x1
   13210:	00d836b3          	sltu	a3,a6,a3
   13214:	8f51                	c.or	a4,a2
   13216:	02738633          	mul	a2,t2,t2
   1321a:	96ba                	c.add	a3,a4
   1321c:	03fedf93          	srli	t6,t4,0x3f
   13220:	00e6b333          	sltu	t1,a3,a4
   13224:	0273bf33          	mulhu	t5,t2,t2
   13228:	00109713          	slli	a4,ra,0x1
   1322c:	03f9d993          	srli	s3,s3,0x3f
   13230:	20deaeb3          	sh1add	t4,t4,a3
   13234:	999a                	c.add	s3,t1
   13236:	01f76733          	or	a4,a4,t6
   1323a:	00deb333          	sltu	t1,t4,a3
   1323e:	974e                	c.add	a4,s3
   13240:	9676                	c.add	a2,t4
   13242:	00e30ab3          	add	s5,t1,a4
   13246:	03c8bfb3          	mulhu	t6,a7,t3
   1324a:	03c882b3          	mul	t0,a7,t3
   1324e:	9f56                	c.add	t5,s5
   13250:	01d63eb3          	sltu	t4,a2,t4
   13254:	013736b3          	sltu	a3,a4,s3
   13258:	01ee89b3          	add	s3,t4,t5
   1325c:	006ab733          	sltu	a4,s5,t1
   13260:	02f3ba33          	mulhu	s4,t2,a5
   13264:	01d9beb3          	sltu	t4,s3,t4
   13268:	02f38333          	mul	t1,t2,a5
   1326c:	8ed9                	c.or	a3,a4
   1326e:	015f3f33          	sltu	t5,t5,s5
   13272:	03f0d093          	srli	ra,ra,0x3f
   13276:	01df6f33          	or	t5,t5,t4
   1327a:	0ff6f693          	andi	a3,a3,255
   1327e:	03f2de93          	srli	t4,t0,0x3f
   13282:	9686                	c.add	a3,ra
   13284:	0fff7f13          	andi	t5,t5,255
   13288:	001f9713          	slli	a4,t6,0x1
   1328c:	2132a2b3          	sh1add	t0,t0,s3
   13290:	96fa                	c.add	a3,t5
   13292:	01d76733          	or	a4,a4,t4
   13296:	0132b9b3          	sltu	s3,t0,s3
   1329a:	9736                	c.add	a4,a3
   1329c:	03f35f13          	srli	t5,t1,0x3f
   132a0:	001a1e93          	slli	t4,s4,0x1
   132a4:	00e98ab3          	add	s5,s3,a4
   132a8:	20532333          	sh1add	t1,t1,t0
   132ac:	01eeeeb3          	or	t4,t4,t5
   132b0:	03c380b3          	mul	ra,t2,t3
   132b4:	9ed6                	c.add	t4,s5
   132b6:	03c3b3b3          	mulhu	t2,t2,t3
   132ba:	00533f33          	sltu	t5,t1,t0
   132be:	01df02b3          	add	t0,t5,t4
   132c2:	00d73733          	sltu	a4,a4,a3
   132c6:	013ab9b3          	sltu	s3,s5,s3
   132ca:	01e2bf33          	sltu	t5,t0,t5
   132ce:	03ffd693          	srli	a3,t6,0x3f
   132d2:	03fa5a13          	srli	s4,s4,0x3f
   132d6:	01376733          	or	a4,a4,s3
   132da:	015ebfb3          	sltu	t6,t4,s5
   132de:	96d2                	c.add	a3,s4
   132e0:	02f78eb3          	mul	t4,a5,a5
   132e4:	01efefb3          	or	t6,t6,t5
   132e8:	0ff77713          	andi	a4,a4,255
   132ec:	03f0d993          	srli	s3,ra,0x3f
   132f0:	02f7bf33          	mulhu	t5,a5,a5
   132f4:	9736                	c.add	a4,a3
   132f6:	0fffff93          	andi	t6,t6,255
   132fa:	00139693          	slli	a3,t2,0x1
   132fe:	2050a0b3          	sh1add	ra,ra,t0
   13302:	977e                	c.add	a4,t6
   13304:	0136e6b3          	or	a3,a3,s3
   13308:	96ba                	c.add	a3,a4
   1330a:	0050b9b3          	sltu	s3,ra,t0
   1330e:	00d98a33          	add	s4,s3,a3
   13312:	9e86                	c.add	t4,ra
   13314:	03c782b3          	mul	t0,a5,t3
   13318:	001eb0b3          	sltu	ra,t4,ra
   1331c:	03c7bfb3          	mulhu	t6,a5,t3
   13320:	9f52                	c.add	t5,s4
   13322:	01e087b3          	add	a5,ra,t5
   13326:	00e6b6b3          	sltu	a3,a3,a4
   1332a:	013a39b3          	sltu	s3,s4,s3
   1332e:	0017b0b3          	sltu	ra,a5,ra
   13332:	014f3f33          	sltu	t5,t5,s4
   13336:	0136e6b3          	or	a3,a3,s3
   1333a:	03f3d393          	srli	t2,t2,0x3f
   1333e:	001f6f33          	or	t5,t5,ra
   13342:	0ff6f693          	andi	a3,a3,255
   13346:	0fff7f13          	andi	t5,t5,255
   1334a:	969e                	c.add	a3,t2
   1334c:	001f9713          	slli	a4,t6,0x1
   13350:	03f2d393          	srli	t2,t0,0x3f
   13354:	96fa                	c.add	a3,t5
   13356:	20f2a2b3          	sh1add	t0,t0,a5
   1335a:	00776733          	or	a4,a4,t2
   1335e:	9736                	c.add	a4,a3
   13360:	00f2bf33          	sltu	t5,t0,a5
   13364:	03ce00b3          	mul	ra,t3,t3
   13368:	00ef03b3          	add	t2,t5,a4
   1336c:	03ce3e33          	mulhu	t3,t3,t3
   13370:	00d737b3          	sltu	a5,a4,a3
   13374:	01e3bf33          	sltu	t5,t2,t5
   13378:	031888b3          	mul	a7,a7,a7
   1337c:	01e7e7b3          	or	a5,a5,t5
   13380:	03ffdf93          	srli	t6,t6,0x3f
   13384:	00138733          	add	a4,t2,ra
   13388:	0ff7f793          	andi	a5,a5,255
   1338c:	9ff2                	c.add	t6,t3
   1338e:	007733b3          	sltu	t2,a4,t2
   13392:	97fe                	c.add	a5,t6
   13394:	e3c6                	c.sdsp	a7,448(sp)
   13396:	979e                	c.add	a5,t2
   13398:	e7c2                	c.sdsp	a6,456(sp)
   1339a:	ebb2                	c.sdsp	a2,464(sp)
   1339c:	ef9a                	c.sdsp	t1,472(sp)
   1339e:	f3f6                	c.sdsp	t4,480(sp)
   133a0:	f796                	c.sdsp	t0,488(sp)
   133a2:	fbba                	c.sdsp	a4,496(sp)
   133a4:	ffbe                	c.sdsp	a5,504(sp)
   133a6:	c9afe0ef          	jal	ra,11840 <fp_mont_reduce>
   133aa:	e2091ae3          	bne	s2,zero,131de <fp_mont_inv+0x6fe>
   133ae:	1210                	c.addi4spn	a2,sp,288
   133b0:	028c                	c.addi4spn	a1,sp,320
   133b2:	0308                	c.addi4spn	a0,sp,384
   133b4:	497d                	c.li	s2,31
   133b6:	8caff0ef          	jal	ra,12480 <fp_mul_4x4_u512_ct>
   133ba:	20013023          	sd	zero,512(sp)
   133be:	679a                	c.ldsp	a5,384(sp)
   133c0:	038c                	c.addi4spn	a1,sp,448
   133c2:	0288                	c.addi4spn	a0,sp,320
   133c4:	e3be                	c.sdsp	a5,448(sp)
   133c6:	67ba                	c.ldsp	a5,392(sp)
   133c8:	e7be                	c.sdsp	a5,456(sp)
   133ca:	67da                	c.ldsp	a5,400(sp)
   133cc:	ebbe                	c.sdsp	a5,464(sp)
   133ce:	67fa                	c.ldsp	a5,408(sp)
   133d0:	efbe                	c.sdsp	a5,472(sp)
   133d2:	779a                	c.ldsp	a5,416(sp)
   133d4:	f3be                	c.sdsp	a5,480(sp)
   133d6:	77ba                	c.ldsp	a5,424(sp)
   133d8:	f7be                	c.sdsp	a5,488(sp)
   133da:	77da                	c.ldsp	a5,432(sp)
   133dc:	fbbe                	c.sdsp	a5,496(sp)
   133de:	77fa                	c.ldsp	a5,440(sp)
   133e0:	ffbe                	c.sdsp	a5,504(sp)
   133e2:	c5efe0ef          	jal	ra,11840 <fp_mont_reduce>
   133e6:	028c                	c.addi4spn	a1,sp,320
   133e8:	852e                	c.mv	a0,a1
   133ea:	bf6ff0ef          	jal	ra,127e0 <fp_mont_sqr>
   133ee:	6896                	c.ldsp	a7,320(sp)
   133f0:	038c                	c.addi4spn	a1,sp,448
   133f2:	63b6                	c.ldsp	t2,328(sp)
   133f4:	0288                	c.addi4spn	a0,sp,320
   133f6:	6756                	c.ldsp	a4,336(sp)
   133f8:	397d                	c.addiw	s2,-1
   133fa:	0318b6b3          	mulhu	a3,a7,a7
   133fe:	6e76                	c.ldsp	t3,344(sp)
   13400:	027887b3          	mul	a5,a7,t2
   13404:	20013023          	sd	zero,512(sp)
   13408:	0278b0b3          	mulhu	ra,a7,t2
   1340c:	02e889b3          	mul	s3,a7,a4
   13410:	02e8b2b3          	mulhu	t0,a7,a4
   13414:	20d7a833          	sh1add	a6,a5,a3
   13418:	03f7d613          	srli	a2,a5,0x3f
   1341c:	00109793          	slli	a5,ra,0x1
   13420:	00d836b3          	sltu	a3,a6,a3
   13424:	8fd1                	c.or	a5,a2
   13426:	02738633          	mul	a2,t2,t2
   1342a:	96be                	c.add	a3,a5
   1342c:	03f9df13          	srli	t5,s3,0x3f
   13430:	00f6b333          	sltu	t1,a3,a5
   13434:	0273beb3          	mulhu	t4,t2,t2
   13438:	00129793          	slli	a5,t0,0x1
   1343c:	03f0d093          	srli	ra,ra,0x3f
   13440:	20d9a9b3          	sh1add	s3,s3,a3
   13444:	909a                	c.add	ra,t1
   13446:	01e7e7b3          	or	a5,a5,t5
   1344a:	00d9b333          	sltu	t1,s3,a3
   1344e:	9786                	c.add	a5,ra
   13450:	964e                	c.add	a2,s3
   13452:	00f30ab3          	add	s5,t1,a5
   13456:	03c88fb3          	mul	t6,a7,t3
   1345a:	03c8bf33          	mulhu	t5,a7,t3
   1345e:	9ed6                	c.add	t4,s5
   13460:	013639b3          	sltu	s3,a2,s3
   13464:	0017b6b3          	sltu	a3,a5,ra
   13468:	01d980b3          	add	ra,s3,t4
   1346c:	006ab7b3          	sltu	a5,s5,t1
   13470:	02e3ba33          	mulhu	s4,t2,a4
   13474:	0130b9b3          	sltu	s3,ra,s3
   13478:	02e38333          	mul	t1,t2,a4
   1347c:	8edd                	c.or	a3,a5
   1347e:	015ebeb3          	sltu	t4,t4,s5
   13482:	03f2d293          	srli	t0,t0,0x3f
   13486:	013eeeb3          	or	t4,t4,s3
   1348a:	0ff6f693          	andi	a3,a3,255
   1348e:	9696                	c.add	a3,t0
   13490:	001f1793          	slli	a5,t5,0x1
   13494:	03ffd293          	srli	t0,t6,0x3f
   13498:	0ffefe93          	andi	t4,t4,255
   1349c:	201fab33          	sh1add	s6,t6,ra
   134a0:	9eb6                	c.add	t4,a3
   134a2:	0057e7b3          	or	a5,a5,t0
   134a6:	001b36b3          	sltu	a3,s6,ra
   134aa:	97f6                	c.add	a5,t4
   134ac:	03f35293          	srli	t0,t1,0x3f
   134b0:	001a1f93          	slli	t6,s4,0x1
   134b4:	00f68ab3          	add	s5,a3,a5
   134b8:	21632333          	sh1add	t1,t1,s6
   134bc:	005fefb3          	or	t6,t6,t0
   134c0:	01633b33          	sltu	s6,t1,s6
   134c4:	03c382b3          	mul	t0,t2,t3
   134c8:	9fd6                	c.add	t6,s5
   134ca:	03c3b3b3          	mulhu	t2,t2,t3
   134ce:	01fb09b3          	add	s3,s6,t6
   134d2:	01d7b7b3          	sltu	a5,a5,t4
   134d6:	00dab6b3          	sltu	a3,s5,a3
   134da:	0169b0b3          	sltu	ra,s3,s6
   134de:	03ff5f13          	srli	t5,t5,0x3f
   134e2:	03fa5a13          	srli	s4,s4,0x3f
   134e6:	8fd5                	c.or	a5,a3
   134e8:	015fbfb3          	sltu	t6,t6,s5
   134ec:	014f06b3          	add	a3,t5,s4
   134f0:	02e70eb3          	mul	t4,a4,a4
   134f4:	001fefb3          	or	t6,t6,ra
   134f8:	0ff7f793          	andi	a5,a5,255
   134fc:	03f2da13          	srli	s4,t0,0x3f
   13500:	02e73f33          	mulhu	t5,a4,a4
   13504:	97b6                	c.add	a5,a3
   13506:	0fffff93          	andi	t6,t6,255
   1350a:	00139693          	slli	a3,t2,0x1
   1350e:	2132a0b3          	sh1add	ra,t0,s3
   13512:	97fe                	c.add	a5,t6
   13514:	0146e6b3          	or	a3,a3,s4
   13518:	96be                	c.add	a3,a5
   1351a:	0130b9b3          	sltu	s3,ra,s3
   1351e:	00d98a33          	add	s4,s3,a3
   13522:	9e86                	c.add	t4,ra
   13524:	03c702b3          	mul	t0,a4,t3
   13528:	001eb0b3          	sltu	ra,t4,ra
   1352c:	03c73733          	mulhu	a4,a4,t3
   13530:	9f52                	c.add	t5,s4
   13532:	01e08fb3          	add	t6,ra,t5
   13536:	00f6b6b3          	sltu	a3,a3,a5
   1353a:	013a39b3          	sltu	s3,s4,s3
   1353e:	001fb0b3          	sltu	ra,t6,ra
   13542:	014f3f33          	sltu	t5,t5,s4
   13546:	0136e6b3          	or	a3,a3,s3
   1354a:	03f3d393          	srli	t2,t2,0x3f
   1354e:	001f6f33          	or	t5,t5,ra
   13552:	0ff6f693          	andi	a3,a3,255
   13556:	0fff7f13          	andi	t5,t5,255
   1355a:	969e                	c.add	a3,t2
   1355c:	00171793          	slli	a5,a4,0x1
   13560:	03f2d393          	srli	t2,t0,0x3f
   13564:	96fa                	c.add	a3,t5
   13566:	21f2a2b3          	sh1add	t0,t0,t6
   1356a:	0077e7b3          	or	a5,a5,t2
   1356e:	97b6                	c.add	a5,a3
   13570:	03ce03b3          	mul	t2,t3,t3
   13574:	01f2bfb3          	sltu	t6,t0,t6
   13578:	03ce3e33          	mulhu	t3,t3,t3
   1357c:	00ff8f33          	add	t5,t6,a5
   13580:	00d7b7b3          	sltu	a5,a5,a3
   13584:	01ff3fb3          	sltu	t6,t5,t6
   13588:	031888b3          	mul	a7,a7,a7
   1358c:	01f7e7b3          	or	a5,a5,t6
   13590:	937d                	c.srli	a4,0x3f
   13592:	007f06b3          	add	a3,t5,t2
   13596:	9772                	c.add	a4,t3
   13598:	0ff7f793          	andi	a5,a5,255
   1359c:	01e6bf33          	sltu	t5,a3,t5
   135a0:	97ba                	c.add	a5,a4
   135a2:	e3c6                	c.sdsp	a7,448(sp)
   135a4:	97fa                	c.add	a5,t5
   135a6:	e7c2                	c.sdsp	a6,456(sp)
   135a8:	ebb2                	c.sdsp	a2,464(sp)
   135aa:	ef9a                	c.sdsp	t1,472(sp)
   135ac:	f3f6                	c.sdsp	t4,480(sp)
   135ae:	f796                	c.sdsp	t0,488(sp)
   135b0:	fbb6                	c.sdsp	a3,496(sp)
   135b2:	ffbe                	c.sdsp	a5,504(sp)
   135b4:	a8cfe0ef          	jal	ra,11840 <fp_mont_reduce>
   135b8:	e2091be3          	bne	s2,zero,133ee <fp_mont_inv+0x90e>
   135bc:	0110                	c.addi4spn	a2,sp,128
   135be:	028c                	c.addi4spn	a1,sp,320
   135c0:	0308                	c.addi4spn	a0,sp,384
   135c2:	497d                	c.li	s2,31
   135c4:	ebdfe0ef          	jal	ra,12480 <fp_mul_4x4_u512_ct>
   135c8:	20013023          	sd	zero,512(sp)
   135cc:	679a                	c.ldsp	a5,384(sp)
   135ce:	038c                	c.addi4spn	a1,sp,448
   135d0:	0288                	c.addi4spn	a0,sp,320
   135d2:	e3be                	c.sdsp	a5,448(sp)
   135d4:	67ba                	c.ldsp	a5,392(sp)
   135d6:	e7be                	c.sdsp	a5,456(sp)
   135d8:	67da                	c.ldsp	a5,400(sp)
   135da:	ebbe                	c.sdsp	a5,464(sp)
   135dc:	67fa                	c.ldsp	a5,408(sp)
   135de:	efbe                	c.sdsp	a5,472(sp)
   135e0:	779a                	c.ldsp	a5,416(sp)
   135e2:	f3be                	c.sdsp	a5,480(sp)
   135e4:	77ba                	c.ldsp	a5,424(sp)
   135e6:	f7be                	c.sdsp	a5,488(sp)
   135e8:	77da                	c.ldsp	a5,432(sp)
   135ea:	fbbe                	c.sdsp	a5,496(sp)
   135ec:	77fa                	c.ldsp	a5,440(sp)
   135ee:	ffbe                	c.sdsp	a5,504(sp)
   135f0:	a50fe0ef          	jal	ra,11840 <fp_mont_reduce>
   135f4:	028c                	c.addi4spn	a1,sp,320
   135f6:	852e                	c.mv	a0,a1
   135f8:	9e8ff0ef          	jal	ra,127e0 <fp_mont_sqr>
   135fc:	6896                	c.ldsp	a7,320(sp)
   135fe:	038c                	c.addi4spn	a1,sp,448
   13600:	63b6                	c.ldsp	t2,328(sp)
   13602:	0288                	c.addi4spn	a0,sp,320
   13604:	6756                	c.ldsp	a4,336(sp)
   13606:	397d                	c.addiw	s2,-1
   13608:	0318b6b3          	mulhu	a3,a7,a7
   1360c:	6e76                	c.ldsp	t3,344(sp)
   1360e:	027887b3          	mul	a5,a7,t2
   13612:	20013023          	sd	zero,512(sp)
   13616:	0278b0b3          	mulhu	ra,a7,t2
   1361a:	02e889b3          	mul	s3,a7,a4
   1361e:	02e8b2b3          	mulhu	t0,a7,a4
   13622:	20d7a833          	sh1add	a6,a5,a3
   13626:	03f7d613          	srli	a2,a5,0x3f
   1362a:	00109793          	slli	a5,ra,0x1
   1362e:	00d836b3          	sltu	a3,a6,a3
   13632:	8fd1                	c.or	a5,a2
   13634:	02738633          	mul	a2,t2,t2
   13638:	96be                	c.add	a3,a5
   1363a:	03f9df13          	srli	t5,s3,0x3f
   1363e:	00f6b333          	sltu	t1,a3,a5
   13642:	0273beb3          	mulhu	t4,t2,t2
   13646:	00129793          	slli	a5,t0,0x1
   1364a:	03f0d093          	srli	ra,ra,0x3f
   1364e:	20d9a9b3          	sh1add	s3,s3,a3
   13652:	909a                	c.add	ra,t1
   13654:	01e7e7b3          	or	a5,a5,t5
   13658:	00d9b333          	sltu	t1,s3,a3
   1365c:	9786                	c.add	a5,ra
   1365e:	964e                	c.add	a2,s3
   13660:	00f30ab3          	add	s5,t1,a5
   13664:	03c88fb3          	mul	t6,a7,t3
   13668:	03c8bf33          	mulhu	t5,a7,t3
   1366c:	9ed6                	c.add	t4,s5
   1366e:	013639b3          	sltu	s3,a2,s3
   13672:	0017b6b3          	sltu	a3,a5,ra
   13676:	01d980b3          	add	ra,s3,t4
   1367a:	006ab7b3          	sltu	a5,s5,t1
   1367e:	02e3ba33          	mulhu	s4,t2,a4
   13682:	0130b9b3          	sltu	s3,ra,s3
   13686:	02e38333          	mul	t1,t2,a4
   1368a:	8edd                	c.or	a3,a5
   1368c:	015ebeb3          	sltu	t4,t4,s5
   13690:	03f2d293          	srli	t0,t0,0x3f
   13694:	013eeeb3          	or	t4,t4,s3
   13698:	0ff6f693          	andi	a3,a3,255
   1369c:	9696                	c.add	a3,t0
   1369e:	001f1793          	slli	a5,t5,0x1
   136a2:	03ffd293          	srli	t0,t6,0x3f
   136a6:	0ffefe93          	andi	t4,t4,255
   136aa:	201fab33          	sh1add	s6,t6,ra
   136ae:	9eb6                	c.add	t4,a3
   136b0:	0057e7b3          	or	a5,a5,t0
   136b4:	001b36b3          	sltu	a3,s6,ra
   136b8:	97f6                	c.add	a5,t4
   136ba:	03f35293          	srli	t0,t1,0x3f
   136be:	001a1f93          	slli	t6,s4,0x1
   136c2:	00f68ab3          	add	s5,a3,a5
   136c6:	21632333          	sh1add	t1,t1,s6
   136ca:	005fefb3          	or	t6,t6,t0
   136ce:	01633b33          	sltu	s6,t1,s6
   136d2:	03c382b3          	mul	t0,t2,t3
   136d6:	9fd6                	c.add	t6,s5
   136d8:	03c3b3b3          	mulhu	t2,t2,t3
   136dc:	01fb09b3          	add	s3,s6,t6
   136e0:	01d7b7b3          	sltu	a5,a5,t4
   136e4:	00dab6b3          	sltu	a3,s5,a3
   136e8:	0169b0b3          	sltu	ra,s3,s6
   136ec:	03ff5f13          	srli	t5,t5,0x3f
   136f0:	03fa5a13          	srli	s4,s4,0x3f
   136f4:	8fd5                	c.or	a5,a3
   136f6:	015fbfb3          	sltu	t6,t6,s5
   136fa:	014f06b3          	add	a3,t5,s4
   136fe:	02e70eb3          	mul	t4,a4,a4
   13702:	001fefb3          	or	t6,t6,ra
   13706:	0ff7f793          	andi	a5,a5,255
   1370a:	03f2da13          	srli	s4,t0,0x3f
   1370e:	02e73f33          	mulhu	t5,a4,a4
   13712:	97b6                	c.add	a5,a3
   13714:	0fffff93          	andi	t6,t6,255
   13718:	00139693          	slli	a3,t2,0x1
   1371c:	2132a0b3          	sh1add	ra,t0,s3
   13720:	97fe                	c.add	a5,t6
   13722:	0146e6b3          	or	a3,a3,s4
   13726:	96be                	c.add	a3,a5
   13728:	0130b9b3          	sltu	s3,ra,s3
   1372c:	00d98a33          	add	s4,s3,a3
   13730:	9e86                	c.add	t4,ra
   13732:	03c702b3          	mul	t0,a4,t3
   13736:	001eb0b3          	sltu	ra,t4,ra
   1373a:	03c73733          	mulhu	a4,a4,t3
   1373e:	9f52                	c.add	t5,s4
   13740:	01e08fb3          	add	t6,ra,t5
   13744:	00f6b6b3          	sltu	a3,a3,a5
   13748:	013a39b3          	sltu	s3,s4,s3
   1374c:	001fb0b3          	sltu	ra,t6,ra
   13750:	014f3f33          	sltu	t5,t5,s4
   13754:	0136e6b3          	or	a3,a3,s3
   13758:	03f3d393          	srli	t2,t2,0x3f
   1375c:	001f6f33          	or	t5,t5,ra
   13760:	0ff6f693          	andi	a3,a3,255
   13764:	0fff7f13          	andi	t5,t5,255
   13768:	969e                	c.add	a3,t2
   1376a:	00171793          	slli	a5,a4,0x1
   1376e:	03f2d393          	srli	t2,t0,0x3f
   13772:	96fa                	c.add	a3,t5
   13774:	21f2a2b3          	sh1add	t0,t0,t6
   13778:	0077e7b3          	or	a5,a5,t2
   1377c:	97b6                	c.add	a5,a3
   1377e:	03ce03b3          	mul	t2,t3,t3
   13782:	01f2bfb3          	sltu	t6,t0,t6
   13786:	03ce3e33          	mulhu	t3,t3,t3
   1378a:	00ff8f33          	add	t5,t6,a5
   1378e:	00d7b7b3          	sltu	a5,a5,a3
   13792:	01ff3fb3          	sltu	t6,t5,t6
   13796:	031888b3          	mul	a7,a7,a7
   1379a:	01f7e7b3          	or	a5,a5,t6
   1379e:	937d                	c.srli	a4,0x3f
   137a0:	007f06b3          	add	a3,t5,t2
   137a4:	9772                	c.add	a4,t3
   137a6:	0ff7f793          	andi	a5,a5,255
   137aa:	01e6bf33          	sltu	t5,a3,t5
   137ae:	97ba                	c.add	a5,a4
   137b0:	e3c6                	c.sdsp	a7,448(sp)
   137b2:	97fa                	c.add	a5,t5
   137b4:	e7c2                	c.sdsp	a6,456(sp)
   137b6:	ebb2                	c.sdsp	a2,464(sp)
   137b8:	ef9a                	c.sdsp	t1,472(sp)
   137ba:	f3f6                	c.sdsp	t4,480(sp)
   137bc:	f796                	c.sdsp	t0,488(sp)
   137be:	fbb6                	c.sdsp	a3,496(sp)
   137c0:	ffbe                	c.sdsp	a5,504(sp)
   137c2:	87efe0ef          	jal	ra,11840 <fp_mont_reduce>
   137c6:	e2091be3          	bne	s2,zero,135fc <fp_mont_inv+0xb1c>
   137ca:	028c                	c.addi4spn	a1,sp,320
   137cc:	497d                	c.li	s2,31
   137ce:	852e                	c.mv	a0,a1
   137d0:	810ff0ef          	jal	ra,127e0 <fp_mont_sqr>
   137d4:	6896                	c.ldsp	a7,320(sp)
   137d6:	038c                	c.addi4spn	a1,sp,448
   137d8:	63b6                	c.ldsp	t2,328(sp)
   137da:	0288                	c.addi4spn	a0,sp,320
   137dc:	6756                	c.ldsp	a4,336(sp)
   137de:	397d                	c.addiw	s2,-1
   137e0:	0318b6b3          	mulhu	a3,a7,a7
   137e4:	6e76                	c.ldsp	t3,344(sp)
   137e6:	027887b3          	mul	a5,a7,t2
   137ea:	20013023          	sd	zero,512(sp)
   137ee:	0278b0b3          	mulhu	ra,a7,t2
   137f2:	02e889b3          	mul	s3,a7,a4
   137f6:	02e8b2b3          	mulhu	t0,a7,a4
   137fa:	20d7a833          	sh1add	a6,a5,a3
   137fe:	03f7d613          	srli	a2,a5,0x3f
   13802:	00109793          	slli	a5,ra,0x1
   13806:	00d836b3          	sltu	a3,a6,a3
   1380a:	8fd1                	c.or	a5,a2
   1380c:	02738633          	mul	a2,t2,t2
   13810:	96be                	c.add	a3,a5
   13812:	03f9df13          	srli	t5,s3,0x3f
   13816:	00f6b333          	sltu	t1,a3,a5
   1381a:	0273beb3          	mulhu	t4,t2,t2
   1381e:	00129793          	slli	a5,t0,0x1
   13822:	03f0d093          	srli	ra,ra,0x3f
   13826:	20d9a9b3          	sh1add	s3,s3,a3
   1382a:	909a                	c.add	ra,t1
   1382c:	01e7e7b3          	or	a5,a5,t5
   13830:	00d9b333          	sltu	t1,s3,a3
   13834:	9786                	c.add	a5,ra
   13836:	964e                	c.add	a2,s3
   13838:	00f30ab3          	add	s5,t1,a5
   1383c:	03c88fb3          	mul	t6,a7,t3
   13840:	03c8bf33          	mulhu	t5,a7,t3
   13844:	9ed6                	c.add	t4,s5
   13846:	013639b3          	sltu	s3,a2,s3
   1384a:	0017b6b3          	sltu	a3,a5,ra
   1384e:	01d980b3          	add	ra,s3,t4
   13852:	006ab7b3          	sltu	a5,s5,t1
   13856:	02e3ba33          	mulhu	s4,t2,a4
   1385a:	0130b9b3          	sltu	s3,ra,s3
   1385e:	02e38333          	mul	t1,t2,a4
   13862:	8edd                	c.or	a3,a5
   13864:	015ebeb3          	sltu	t4,t4,s5
   13868:	03f2d293          	srli	t0,t0,0x3f
   1386c:	013eeeb3          	or	t4,t4,s3
   13870:	0ff6f693          	andi	a3,a3,255
   13874:	9696                	c.add	a3,t0
   13876:	001f1793          	slli	a5,t5,0x1
   1387a:	03ffd293          	srli	t0,t6,0x3f
   1387e:	0ffefe93          	andi	t4,t4,255
   13882:	201fab33          	sh1add	s6,t6,ra
   13886:	9eb6                	c.add	t4,a3
   13888:	0057e7b3          	or	a5,a5,t0
   1388c:	001b36b3          	sltu	a3,s6,ra
   13890:	97f6                	c.add	a5,t4
   13892:	03f35293          	srli	t0,t1,0x3f
   13896:	001a1f93          	slli	t6,s4,0x1
   1389a:	00f68ab3          	add	s5,a3,a5
   1389e:	21632333          	sh1add	t1,t1,s6
   138a2:	005fefb3          	or	t6,t6,t0
   138a6:	01633b33          	sltu	s6,t1,s6
   138aa:	03c382b3          	mul	t0,t2,t3
   138ae:	9fd6                	c.add	t6,s5
   138b0:	03c3b3b3          	mulhu	t2,t2,t3
   138b4:	01fb09b3          	add	s3,s6,t6
   138b8:	01d7b7b3          	sltu	a5,a5,t4
   138bc:	00dab6b3          	sltu	a3,s5,a3
   138c0:	0169b0b3          	sltu	ra,s3,s6
   138c4:	03ff5f13          	srli	t5,t5,0x3f
   138c8:	03fa5a13          	srli	s4,s4,0x3f
   138cc:	8fd5                	c.or	a5,a3
   138ce:	015fbfb3          	sltu	t6,t6,s5
   138d2:	014f06b3          	add	a3,t5,s4
   138d6:	02e70eb3          	mul	t4,a4,a4
   138da:	001fefb3          	or	t6,t6,ra
   138de:	0ff7f793          	andi	a5,a5,255
   138e2:	03f2da13          	srli	s4,t0,0x3f
   138e6:	02e73f33          	mulhu	t5,a4,a4
   138ea:	97b6                	c.add	a5,a3
   138ec:	0fffff93          	andi	t6,t6,255
   138f0:	00139693          	slli	a3,t2,0x1
   138f4:	2132a0b3          	sh1add	ra,t0,s3
   138f8:	97fe                	c.add	a5,t6
   138fa:	0146e6b3          	or	a3,a3,s4
   138fe:	96be                	c.add	a3,a5
   13900:	0130b9b3          	sltu	s3,ra,s3
   13904:	00d98a33          	add	s4,s3,a3
   13908:	9e86                	c.add	t4,ra
   1390a:	03c702b3          	mul	t0,a4,t3
   1390e:	001eb0b3          	sltu	ra,t4,ra
   13912:	03c73733          	mulhu	a4,a4,t3
   13916:	9f52                	c.add	t5,s4
   13918:	01e08fb3          	add	t6,ra,t5
   1391c:	00f6b6b3          	sltu	a3,a3,a5
   13920:	013a39b3          	sltu	s3,s4,s3
   13924:	001fb0b3          	sltu	ra,t6,ra
   13928:	014f3f33          	sltu	t5,t5,s4
   1392c:	0136e6b3          	or	a3,a3,s3
   13930:	03f3d393          	srli	t2,t2,0x3f
   13934:	001f6f33          	or	t5,t5,ra
   13938:	0ff6f693          	andi	a3,a3,255
   1393c:	0fff7f13          	andi	t5,t5,255
   13940:	969e                	c.add	a3,t2
   13942:	00171793          	slli	a5,a4,0x1
   13946:	03f2d393          	srli	t2,t0,0x3f
   1394a:	96fa                	c.add	a3,t5
   1394c:	21f2a2b3          	sh1add	t0,t0,t6
   13950:	0077e7b3          	or	a5,a5,t2
   13954:	97b6                	c.add	a5,a3
   13956:	03ce03b3          	mul	t2,t3,t3
   1395a:	01f2bfb3          	sltu	t6,t0,t6
   1395e:	03ce3e33          	mulhu	t3,t3,t3
   13962:	00ff8f33          	add	t5,t6,a5
   13966:	00d7b7b3          	sltu	a5,a5,a3
   1396a:	01ff3fb3          	sltu	t6,t5,t6
   1396e:	031888b3          	mul	a7,a7,a7
   13972:	01f7e7b3          	or	a5,a5,t6
   13976:	937d                	c.srli	a4,0x3f
   13978:	007f06b3          	add	a3,t5,t2
   1397c:	9772                	c.add	a4,t3
   1397e:	0ff7f793          	andi	a5,a5,255
   13982:	01e6bf33          	sltu	t5,a3,t5
   13986:	97ba                	c.add	a5,a4
   13988:	e3c6                	c.sdsp	a7,448(sp)
   1398a:	97fa                	c.add	a5,t5
   1398c:	e7c2                	c.sdsp	a6,456(sp)
   1398e:	ebb2                	c.sdsp	a2,464(sp)
   13990:	ef9a                	c.sdsp	t1,472(sp)
   13992:	f3f6                	c.sdsp	t4,480(sp)
   13994:	f796                	c.sdsp	t0,488(sp)
   13996:	fbb6                	c.sdsp	a3,496(sp)
   13998:	ffbe                	c.sdsp	a5,504(sp)
   1399a:	ea7fd0ef          	jal	ra,11840 <fp_mont_reduce>
   1399e:	e2091be3          	bne	s2,zero,137d4 <fp_mont_inv+0xcf4>
   139a2:	0110                	c.addi4spn	a2,sp,128
   139a4:	028c                	c.addi4spn	a1,sp,320
   139a6:	0308                	c.addi4spn	a0,sp,384
   139a8:	4975                	c.li	s2,29
   139aa:	ad7fe0ef          	jal	ra,12480 <fp_mul_4x4_u512_ct>
   139ae:	20013023          	sd	zero,512(sp)
   139b2:	679a                	c.ldsp	a5,384(sp)
   139b4:	038c                	c.addi4spn	a1,sp,448
   139b6:	0288                	c.addi4spn	a0,sp,320
   139b8:	e3be                	c.sdsp	a5,448(sp)
   139ba:	67ba                	c.ldsp	a5,392(sp)
   139bc:	e7be                	c.sdsp	a5,456(sp)
   139be:	67da                	c.ldsp	a5,400(sp)
   139c0:	ebbe                	c.sdsp	a5,464(sp)
   139c2:	67fa                	c.ldsp	a5,408(sp)
   139c4:	efbe                	c.sdsp	a5,472(sp)
   139c6:	779a                	c.ldsp	a5,416(sp)
   139c8:	f3be                	c.sdsp	a5,480(sp)
   139ca:	77ba                	c.ldsp	a5,424(sp)
   139cc:	f7be                	c.sdsp	a5,488(sp)
   139ce:	77da                	c.ldsp	a5,432(sp)
   139d0:	fbbe                	c.sdsp	a5,496(sp)
   139d2:	77fa                	c.ldsp	a5,440(sp)
   139d4:	ffbe                	c.sdsp	a5,504(sp)
   139d6:	e6bfd0ef          	jal	ra,11840 <fp_mont_reduce>
   139da:	028c                	c.addi4spn	a1,sp,320
   139dc:	852e                	c.mv	a0,a1
   139de:	e03fe0ef          	jal	ra,127e0 <fp_mont_sqr>
   139e2:	6896                	c.ldsp	a7,320(sp)
   139e4:	038c                	c.addi4spn	a1,sp,448
   139e6:	63b6                	c.ldsp	t2,328(sp)
   139e8:	0288                	c.addi4spn	a0,sp,320
   139ea:	6756                	c.ldsp	a4,336(sp)
   139ec:	397d                	c.addiw	s2,-1
   139ee:	0318b6b3          	mulhu	a3,a7,a7
   139f2:	6e76                	c.ldsp	t3,344(sp)
   139f4:	027887b3          	mul	a5,a7,t2
   139f8:	20013023          	sd	zero,512(sp)
   139fc:	0278b9b3          	mulhu	s3,a7,t2
   13a00:	02e88eb3          	mul	t4,a7,a4
   13a04:	02e8b2b3          	mulhu	t0,a7,a4
   13a08:	20d7a833          	sh1add	a6,a5,a3
   13a0c:	03f7d613          	srli	a2,a5,0x3f
   13a10:	00199793          	slli	a5,s3,0x1
   13a14:	00d836b3          	sltu	a3,a6,a3
   13a18:	8fd1                	c.or	a5,a2
   13a1a:	02738633          	mul	a2,t2,t2
   13a1e:	96be                	c.add	a3,a5
   13a20:	03fedf93          	srli	t6,t4,0x3f
   13a24:	00f6b333          	sltu	t1,a3,a5
   13a28:	0273bf33          	mulhu	t5,t2,t2
   13a2c:	00129793          	slli	a5,t0,0x1
   13a30:	03f9d993          	srli	s3,s3,0x3f
   13a34:	20deaeb3          	sh1add	t4,t4,a3
   13a38:	999a                	c.add	s3,t1
   13a3a:	01f7e7b3          	or	a5,a5,t6
   13a3e:	00deb333          	sltu	t1,t4,a3
   13a42:	97ce                	c.add	a5,s3
   13a44:	9676                	c.add	a2,t4
   13a46:	00f30ab3          	add	s5,t1,a5
   13a4a:	03c880b3          	mul	ra,a7,t3
   13a4e:	03c8bfb3          	mulhu	t6,a7,t3
   13a52:	9f56                	c.add	t5,s5
   13a54:	01d63eb3          	sltu	t4,a2,t4
   13a58:	0137b6b3          	sltu	a3,a5,s3
   13a5c:	01ee89b3          	add	s3,t4,t5
   13a60:	006ab7b3          	sltu	a5,s5,t1
   13a64:	02e3ba33          	mulhu	s4,t2,a4
   13a68:	015f3f33          	sltu	t5,t5,s5
   13a6c:	02e38333          	mul	t1,t2,a4
   13a70:	8edd                	c.or	a3,a5
   13a72:	01d9beb3          	sltu	t4,s3,t4
   13a76:	03f2d293          	srli	t0,t0,0x3f
   13a7a:	01df6eb3          	or	t4,t5,t4
   13a7e:	0ff6f693          	andi	a3,a3,255
   13a82:	9696                	c.add	a3,t0
   13a84:	001f9793          	slli	a5,t6,0x1
   13a88:	03f0d293          	srli	t0,ra,0x3f
   13a8c:	0ffefe93          	andi	t4,t4,255
   13a90:	2130af33          	sh1add	t5,ra,s3
   13a94:	9eb6                	c.add	t4,a3
   13a96:	0057e7b3          	or	a5,a5,t0
   13a9a:	013f39b3          	sltu	s3,t5,s3
   13a9e:	97f6                	c.add	a5,t4
   13aa0:	03f35693          	srli	a3,t1,0x3f
   13aa4:	001a1b13          	slli	s6,s4,0x1
   13aa8:	00f98bb3          	add	s7,s3,a5
   13aac:	21e32333          	sh1add	t1,t1,t5
   13ab0:	00db6b33          	or	s6,s6,a3
   13ab4:	03c38ab3          	mul	s5,t2,t3
   13ab8:	01e33f33          	sltu	t5,t1,t5
   13abc:	03c3b3b3          	mulhu	t2,t2,t3
   13ac0:	9b5e                	c.add	s6,s7
   13ac2:	016f02b3          	add	t0,t5,s6
   13ac6:	01d7b7b3          	sltu	a5,a5,t4
   13aca:	013bb9b3          	sltu	s3,s7,s3
   13ace:	01e2bf33          	sltu	t5,t0,t5
   13ad2:	03ffd693          	srli	a3,t6,0x3f
   13ad6:	03fa5a13          	srli	s4,s4,0x3f
   13ada:	0137e7b3          	or	a5,a5,s3
   13ade:	017b3fb3          	sltu	t6,s6,s7
   13ae2:	96d2                	c.add	a3,s4
   13ae4:	02e70eb3          	mul	t4,a4,a4
   13ae8:	01efefb3          	or	t6,t6,t5
   13aec:	0ff7f793          	andi	a5,a5,255
   13af0:	02e73f33          	mulhu	t5,a4,a4
   13af4:	97b6                	c.add	a5,a3
   13af6:	0fffff93          	andi	t6,t6,255
   13afa:	00139693          	slli	a3,t2,0x1
   13afe:	03fad993          	srli	s3,s5,0x3f
   13b02:	205aa0b3          	sh1add	ra,s5,t0
   13b06:	97fe                	c.add	a5,t6
   13b08:	0136e6b3          	or	a3,a3,s3
   13b0c:	96be                	c.add	a3,a5
   13b0e:	0050b9b3          	sltu	s3,ra,t0
   13b12:	00d98a33          	add	s4,s3,a3
   13b16:	9e86                	c.add	t4,ra
   13b18:	03c702b3          	mul	t0,a4,t3
   13b1c:	001eb0b3          	sltu	ra,t4,ra
   13b20:	03c73733          	mulhu	a4,a4,t3
   13b24:	9f52                	c.add	t5,s4
   13b26:	01e08fb3          	add	t6,ra,t5
   13b2a:	00f6b6b3          	sltu	a3,a3,a5
   13b2e:	013a39b3          	sltu	s3,s4,s3
   13b32:	001fb0b3          	sltu	ra,t6,ra
   13b36:	014f3f33          	sltu	t5,t5,s4
   13b3a:	0136e6b3          	or	a3,a3,s3
   13b3e:	03f3d393          	srli	t2,t2,0x3f
   13b42:	001f6f33          	or	t5,t5,ra
   13b46:	0ff6f693          	andi	a3,a3,255
   13b4a:	0fff7f13          	andi	t5,t5,255
   13b4e:	969e                	c.add	a3,t2
   13b50:	00171793          	slli	a5,a4,0x1
   13b54:	03f2d393          	srli	t2,t0,0x3f
   13b58:	96fa                	c.add	a3,t5
   13b5a:	21f2a2b3          	sh1add	t0,t0,t6
   13b5e:	0077e7b3          	or	a5,a5,t2
   13b62:	97b6                	c.add	a5,a3
   13b64:	03ce03b3          	mul	t2,t3,t3
   13b68:	01f2bfb3          	sltu	t6,t0,t6
   13b6c:	03ce3e33          	mulhu	t3,t3,t3
   13b70:	00ff8f33          	add	t5,t6,a5
   13b74:	00d7b7b3          	sltu	a5,a5,a3
   13b78:	01ff3fb3          	sltu	t6,t5,t6
   13b7c:	031888b3          	mul	a7,a7,a7
   13b80:	01f7e7b3          	or	a5,a5,t6
   13b84:	937d                	c.srli	a4,0x3f
   13b86:	007f06b3          	add	a3,t5,t2
   13b8a:	9772                	c.add	a4,t3
   13b8c:	0ff7f793          	andi	a5,a5,255
   13b90:	01e6bf33          	sltu	t5,a3,t5
   13b94:	97ba                	c.add	a5,a4
   13b96:	e3c6                	c.sdsp	a7,448(sp)
   13b98:	97fa                	c.add	a5,t5
   13b9a:	e7c2                	c.sdsp	a6,456(sp)
   13b9c:	ebb2                	c.sdsp	a2,464(sp)
   13b9e:	ef9a                	c.sdsp	t1,472(sp)
   13ba0:	f3f6                	c.sdsp	t4,480(sp)
   13ba2:	f796                	c.sdsp	t0,488(sp)
   13ba4:	fbb6                	c.sdsp	a3,496(sp)
   13ba6:	ffbe                	c.sdsp	a5,504(sp)
   13ba8:	c99fd0ef          	jal	ra,11840 <fp_mont_reduce>
   13bac:	e2091be3          	bne	s2,zero,139e2 <fp_mont_inv+0xf02>
   13bb0:	1190                	c.addi4spn	a2,sp,224
   13bb2:	028c                	c.addi4spn	a1,sp,320
   13bb4:	0308                	c.addi4spn	a0,sp,384
   13bb6:	8cbfe0ef          	jal	ra,12480 <fp_mul_4x4_u512_ct>
   13bba:	20013023          	sd	zero,512(sp)
   13bbe:	679a                	c.ldsp	a5,384(sp)
   13bc0:	038c                	c.addi4spn	a1,sp,448
   13bc2:	0288                	c.addi4spn	a0,sp,320
   13bc4:	e3be                	c.sdsp	a5,448(sp)
   13bc6:	67ba                	c.ldsp	a5,392(sp)
   13bc8:	e7be                	c.sdsp	a5,456(sp)
   13bca:	67da                	c.ldsp	a5,400(sp)
   13bcc:	ebbe                	c.sdsp	a5,464(sp)
   13bce:	67fa                	c.ldsp	a5,408(sp)
   13bd0:	efbe                	c.sdsp	a5,472(sp)
   13bd2:	779a                	c.ldsp	a5,416(sp)
   13bd4:	f3be                	c.sdsp	a5,480(sp)
   13bd6:	77ba                	c.ldsp	a5,424(sp)
   13bd8:	f7be                	c.sdsp	a5,488(sp)
   13bda:	77da                	c.ldsp	a5,432(sp)
   13bdc:	fbbe                	c.sdsp	a5,496(sp)
   13bde:	77fa                	c.ldsp	a5,440(sp)
   13be0:	ffbe                	c.sdsp	a5,504(sp)
   13be2:	c5ffd0ef          	jal	ra,11840 <fp_mont_reduce>
   13be6:	028c                	c.addi4spn	a1,sp,320
   13be8:	852e                	c.mv	a0,a1
   13bea:	bf7fe0ef          	jal	ra,127e0 <fp_mont_sqr>
   13bee:	028c                	c.addi4spn	a1,sp,320
   13bf0:	852e                	c.mv	a0,a1
   13bf2:	beffe0ef          	jal	ra,127e0 <fp_mont_sqr>
   13bf6:	8622                	c.mv	a2,s0
   13bf8:	028c                	c.addi4spn	a1,sp,320
   13bfa:	0308                	c.addi4spn	a0,sp,384
   13bfc:	885fe0ef          	jal	ra,12480 <fp_mul_4x4_u512_ct>
   13c00:	20013023          	sd	zero,512(sp)
   13c04:	679a                	c.ldsp	a5,384(sp)
   13c06:	038c                	c.addi4spn	a1,sp,448
   13c08:	8562                	c.mv	a0,s8
   13c0a:	e3be                	c.sdsp	a5,448(sp)
   13c0c:	67ba                	c.ldsp	a5,392(sp)
   13c0e:	e7be                	c.sdsp	a5,456(sp)
   13c10:	67da                	c.ldsp	a5,400(sp)
   13c12:	ebbe                	c.sdsp	a5,464(sp)
   13c14:	67fa                	c.ldsp	a5,408(sp)
   13c16:	efbe                	c.sdsp	a5,472(sp)
   13c18:	779a                	c.ldsp	a5,416(sp)
   13c1a:	f3be                	c.sdsp	a5,480(sp)
   13c1c:	77ba                	c.ldsp	a5,424(sp)
   13c1e:	f7be                	c.sdsp	a5,488(sp)
   13c20:	77da                	c.ldsp	a5,432(sp)
   13c22:	fbbe                	c.sdsp	a5,496(sp)
   13c24:	77fa                	c.ldsp	a5,440(sp)
   13c26:	ffbe                	c.sdsp	a5,504(sp)
   13c28:	c19fd0ef          	jal	ra,11840 <fp_mont_reduce>
   13c2c:	20813703          	ld	a4,520(sp)
   13c30:	e004b783          	ld	a5,-512(s1)
   13c34:	8fb9                	c.xor	a5,a4
   13c36:	4701                	c.li	a4,0
   13c38:	eb85                	c.bnez	a5,13c68 <fp_mont_inv+0x1188>
   13c3a:	25813083          	ld	ra,600(sp)
   13c3e:	25013403          	ld	s0,592(sp)
   13c42:	24813483          	ld	s1,584(sp)
   13c46:	24013903          	ld	s2,576(sp)
   13c4a:	23813983          	ld	s3,568(sp)
   13c4e:	23013a03          	ld	s4,560(sp)
   13c52:	22813a83          	ld	s5,552(sp)
   13c56:	22013b03          	ld	s6,544(sp)
   13c5a:	21813b83          	ld	s7,536(sp)
   13c5e:	21013c03          	ld	s8,528(sp)
   13c62:	26010113          	addi	sp,sp,608
   13c66:	8082                	c.jr	ra
   13c68:	a59fc0ef          	jal	ra,106c0 <__stack_chk_fail@plt>
	...

0000000000013c80 <sm2_jacobian_cmov_local>:
   13c80:	0005b803          	ld	a6,0(a1)
   13c84:	080607bb          	add.uw	a5,a2,zero
   13c88:	6114                	c.ld	a3,0(a0)
   13c8a:	40f00733          	sub	a4,zero,a5
   13c8e:	17fd                	c.addi	a5,-1
   13c90:	6510                	c.ld	a2,8(a0)
   13c92:	010778b3          	and	a7,a4,a6
   13c96:	01853f03          	ld	t5,24(a0)
   13c9a:	00d7f833          	and	a6,a5,a3
   13c9e:	6914                	c.ld	a3,16(a0)
   13ca0:	01186833          	or	a6,a6,a7
   13ca4:	8e7d                	c.and	a2,a5
   13ca6:	01053023          	sd	a6,0(a0)
   13caa:	01e7ff33          	and	t5,a5,t5
   13cae:	0085b803          	ld	a6,8(a1)
   13cb2:	8efd                	c.and	a3,a5
   13cb4:	02053e03          	ld	t3,32(a0)
   13cb8:	02853303          	ld	t1,40(a0)
   13cbc:	01077833          	and	a6,a4,a6
   13cc0:	03053883          	ld	a7,48(a0)
   13cc4:	01066633          	or	a2,a2,a6
   13cc8:	01c7fe33          	and	t3,a5,t3
   13ccc:	e510                	c.sd	a2,8(a0)
   13cce:	0067f333          	and	t1,a5,t1
   13cd2:	6990                	c.ld	a2,16(a1)
   13cd4:	0117f8b3          	and	a7,a5,a7
   13cd8:	03853803          	ld	a6,56(a0)
   13cdc:	04053f83          	ld	t6,64(a0)
   13ce0:	8e79                	c.and	a2,a4
   13ce2:	04853e83          	ld	t4,72(a0)
   13ce6:	8ed1                	c.or	a3,a2
   13ce8:	0107f833          	and	a6,a5,a6
   13cec:	e914                	c.sd	a3,16(a0)
   13cee:	6934                	c.ld	a3,80(a0)
   13cf0:	0185b283          	ld	t0,24(a1)
   13cf4:	01f7ffb3          	and	t6,a5,t6
   13cf8:	01d7feb3          	and	t4,a5,t4
   13cfc:	00d7f633          	and	a2,a5,a3
   13d00:	005772b3          	and	t0,a4,t0
   13d04:	005f6f33          	or	t5,t5,t0
   13d08:	01e53c23          	sd	t5,24(a0)
   13d0c:	7194                	c.ld	a3,32(a1)
   13d0e:	8ef9                	c.and	a3,a4
   13d10:	00de66b3          	or	a3,t3,a3
   13d14:	f114                	c.sd	a3,32(a0)
   13d16:	7594                	c.ld	a3,40(a1)
   13d18:	8ef9                	c.and	a3,a4
   13d1a:	00d366b3          	or	a3,t1,a3
   13d1e:	f514                	c.sd	a3,40(a0)
   13d20:	7994                	c.ld	a3,48(a1)
   13d22:	8ef9                	c.and	a3,a4
   13d24:	00d8e6b3          	or	a3,a7,a3
   13d28:	f914                	c.sd	a3,48(a0)
   13d2a:	7d94                	c.ld	a3,56(a1)
   13d2c:	8ef9                	c.and	a3,a4
   13d2e:	00d866b3          	or	a3,a6,a3
   13d32:	fd14                	c.sd	a3,56(a0)
   13d34:	61b4                	c.ld	a3,64(a1)
   13d36:	8ef9                	c.and	a3,a4
   13d38:	01f6e6b3          	or	a3,a3,t6
   13d3c:	e134                	c.sd	a3,64(a0)
   13d3e:	65b4                	c.ld	a3,72(a1)
   13d40:	8ef9                	c.and	a3,a4
   13d42:	01d6e6b3          	or	a3,a3,t4
   13d46:	e534                	c.sd	a3,72(a0)
   13d48:	69b4                	c.ld	a3,80(a1)
   13d4a:	8ef9                	c.and	a3,a4
   13d4c:	8ed1                	c.or	a3,a2
   13d4e:	e934                	c.sd	a3,80(a0)
   13d50:	6d30                	c.ld	a2,88(a0)
   13d52:	6db4                	c.ld	a3,88(a1)
   13d54:	8ff1                	c.and	a5,a2
   13d56:	8f75                	c.and	a4,a3
   13d58:	8fd9                	c.or	a5,a4
   13d5a:	ed3c                	c.sd	a5,88(a0)
   13d5c:	8082                	c.jr	ra
   13d5e:	0001                	c.addi	zero,0

0000000000013d60 <sm2_affine_is_infinity>:
   13d60:	4128                	c.lw	a0,64(a0)
   13d62:	00a03533          	sltu	a0,zero,a0
   13d66:	8082                	c.jr	ra
   13d68:	00000013          	addi	zero,zero,0
   13d6c:	00000013          	addi	zero,zero,0
   13d70:	00000013          	addi	zero,zero,0
   13d74:	00000013          	addi	zero,zero,0
   13d78:	00000013          	addi	zero,zero,0
   13d7c:	00000013          	addi	zero,zero,0

0000000000013d80 <sm2_jacobian_is_infinity>:
   13d80:	04050513          	addi	a0,a0,64
   13d84:	f7dfd06f          	jal	zero,11d00 <fp_is_zero>
   13d88:	00000013          	addi	zero,zero,0
   13d8c:	00000013          	addi	zero,zero,0
   13d90:	00000013          	addi	zero,zero,0
   13d94:	00000013          	addi	zero,zero,0
   13d98:	00000013          	addi	zero,zero,0
   13d9c:	00000013          	addi	zero,zero,0

0000000000013da0 <sm2_jacobian_set_infinity>:
   13da0:	1141                	c.addi	sp,-16
   13da2:	e406                	c.sdsp	ra,8(sp)
   13da4:	e022                	c.sdsp	s0,0(sp)
   13da6:	842a                	c.mv	s0,a0
   13da8:	f19fd0ef          	jal	ra,11cc0 <fp_set_zero>
   13dac:	02040513          	addi	a0,s0,32
   13db0:	f31fd0ef          	jal	ra,11ce0 <fp_set_one>
   13db4:	04040513          	addi	a0,s0,64
   13db8:	6402                	c.ldsp	s0,0(sp)
   13dba:	60a2                	c.ldsp	ra,8(sp)
   13dbc:	0141                	c.addi	sp,16
   13dbe:	f03fd06f          	jal	zero,11cc0 <fp_set_zero>
   13dc2:	0001                	c.addi	zero,0
   13dc4:	00000013          	addi	zero,zero,0
   13dc8:	00000013          	addi	zero,zero,0
   13dcc:	00000013          	addi	zero,zero,0
   13dd0:	00000013          	addi	zero,zero,0
   13dd4:	00000013          	addi	zero,zero,0
   13dd8:	00000013          	addi	zero,zero,0
   13ddc:	00000013          	addi	zero,zero,0

0000000000013de0 <sm2_curve_init_once_mont>:
   13de0:	7171                	c.addi16sp	sp,-176
   13de2:	e94a                	c.sdsp	s2,144(sp)
   13de4:	8101a783          	lw	a5,-2032(gp) # 1d058 <g_sm2_curve_mont_inited>
   13de8:	ed26                	c.sdsp	s1,152(sp)
   13dea:	f506                	c.sdsp	ra,168(sp)
   13dec:	0001d4b7          	lui	s1,0x1d
   13df0:	e004b703          	ld	a4,-512(s1) # 1ce00 <__stack_chk_guard@GLIBC_2.27>
   13df4:	e53a                	c.sdsp	a4,136(sp)
   13df6:	4701                	c.li	a4,0
   13df8:	e3bd                	c.bnez	a5,13e5e <sm2_curve_init_once_mont+0x7e>
   13dfa:	f122                	c.sdsp	s0,160(sp)
   13dfc:	0028                	c.addi4spn	a0,sp,8
   13dfe:	6469                	c.lui	s0,0x1a
   13e00:	35040593          	addi	a1,s0,848 # 1a350 <SM2_A_BYTES>
   13e04:	f5dfd0ef          	jal	ra,11d60 <fp_from_bytes>
   13e08:	35040413          	addi	s0,s0,848
   13e0c:	02040593          	addi	a1,s0,32
   13e10:	1028                	c.addi4spn	a0,sp,40
   13e12:	f4ffd0ef          	jal	ra,11d60 <fp_from_bytes>
   13e16:	04040593          	addi	a1,s0,64
   13e1a:	00a8                	c.addi4spn	a0,sp,72
   13e1c:	f45fd0ef          	jal	ra,11d60 <fp_from_bytes>
   13e20:	06040593          	addi	a1,s0,96
   13e24:	10a8                	c.addi4spn	a0,sp,104
   13e26:	f3bfd0ef          	jal	ra,11d60 <fp_from_bytes>
   13e2a:	002c                	c.addi4spn	a1,sp,8
   13e2c:	82818513          	addi	a0,gp,-2008 # 1d070 <SM2_A_MONT>
   13e30:	bb1fe0ef          	jal	ra,129e0 <fp_to_mont>
   13e34:	82818413          	addi	s0,gp,-2008 # 1d070 <SM2_A_MONT>
   13e38:	02040513          	addi	a0,s0,32
   13e3c:	102c                	c.addi4spn	a1,sp,40
   13e3e:	ba3fe0ef          	jal	ra,129e0 <fp_to_mont>
   13e42:	04040513          	addi	a0,s0,64
   13e46:	00ac                	c.addi4spn	a1,sp,72
   13e48:	b99fe0ef          	jal	ra,129e0 <fp_to_mont>
   13e4c:	06040513          	addi	a0,s0,96
   13e50:	10ac                	c.addi4spn	a1,sp,104
   13e52:	b8ffe0ef          	jal	ra,129e0 <fp_to_mont>
   13e56:	740a                	c.ldsp	s0,160(sp)
   13e58:	4785                	c.li	a5,1
   13e5a:	80f1a823          	sw	a5,-2032(gp) # 1d058 <g_sm2_curve_mont_inited>
   13e5e:	672a                	c.ldsp	a4,136(sp)
   13e60:	e004b783          	ld	a5,-512(s1)
   13e64:	8fb9                	c.xor	a5,a4
   13e66:	4701                	c.li	a4,0
   13e68:	e791                	c.bnez	a5,13e74 <sm2_curve_init_once_mont+0x94>
   13e6a:	70aa                	c.ldsp	ra,168(sp)
   13e6c:	64ea                	c.ldsp	s1,152(sp)
   13e6e:	694a                	c.ldsp	s2,144(sp)
   13e70:	614d                	c.addi16sp	sp,176
   13e72:	8082                	c.jr	ra
   13e74:	f122                	c.sdsp	s0,160(sp)
   13e76:	84bfc0ef          	jal	ra,106c0 <__stack_chk_fail@plt>
   13e7a:	00000013          	addi	zero,zero,0
   13e7e:	0001                	c.addi	zero,0

0000000000013e80 <sm2_curve_init_once>:
   13e80:	7171                	c.addi16sp	sp,-176
   13e82:	e94a                	c.sdsp	s2,144(sp)
   13e84:	8101a783          	lw	a5,-2032(gp) # 1d058 <g_sm2_curve_mont_inited>
   13e88:	ed26                	c.sdsp	s1,152(sp)
   13e8a:	f506                	c.sdsp	ra,168(sp)
   13e8c:	0001d4b7          	lui	s1,0x1d
   13e90:	e004b703          	ld	a4,-512(s1) # 1ce00 <__stack_chk_guard@GLIBC_2.27>
   13e94:	e53a                	c.sdsp	a4,136(sp)
   13e96:	4701                	c.li	a4,0
   13e98:	e3bd                	c.bnez	a5,13efe <sm2_curve_init_once+0x7e>
   13e9a:	f122                	c.sdsp	s0,160(sp)
   13e9c:	0028                	c.addi4spn	a0,sp,8
   13e9e:	6469                	c.lui	s0,0x1a
   13ea0:	35040593          	addi	a1,s0,848 # 1a350 <SM2_A_BYTES>
   13ea4:	ebdfd0ef          	jal	ra,11d60 <fp_from_bytes>
   13ea8:	35040413          	addi	s0,s0,848
   13eac:	02040593          	addi	a1,s0,32
   13eb0:	1028                	c.addi4spn	a0,sp,40
   13eb2:	eaffd0ef          	jal	ra,11d60 <fp_from_bytes>
   13eb6:	04040593          	addi	a1,s0,64
   13eba:	00a8                	c.addi4spn	a0,sp,72
   13ebc:	ea5fd0ef          	jal	ra,11d60 <fp_from_bytes>
   13ec0:	06040593          	addi	a1,s0,96
   13ec4:	10a8                	c.addi4spn	a0,sp,104
   13ec6:	e9bfd0ef          	jal	ra,11d60 <fp_from_bytes>
   13eca:	002c                	c.addi4spn	a1,sp,8
   13ecc:	82818513          	addi	a0,gp,-2008 # 1d070 <SM2_A_MONT>
   13ed0:	b11fe0ef          	jal	ra,129e0 <fp_to_mont>
   13ed4:	82818413          	addi	s0,gp,-2008 # 1d070 <SM2_A_MONT>
   13ed8:	02040513          	addi	a0,s0,32
   13edc:	102c                	c.addi4spn	a1,sp,40
   13ede:	b03fe0ef          	jal	ra,129e0 <fp_to_mont>
   13ee2:	04040513          	addi	a0,s0,64
   13ee6:	00ac                	c.addi4spn	a1,sp,72
   13ee8:	af9fe0ef          	jal	ra,129e0 <fp_to_mont>
   13eec:	06040513          	addi	a0,s0,96
   13ef0:	10ac                	c.addi4spn	a1,sp,104
   13ef2:	aeffe0ef          	jal	ra,129e0 <fp_to_mont>
   13ef6:	740a                	c.ldsp	s0,160(sp)
   13ef8:	4785                	c.li	a5,1
   13efa:	80f1a823          	sw	a5,-2032(gp) # 1d058 <g_sm2_curve_mont_inited>
   13efe:	672a                	c.ldsp	a4,136(sp)
   13f00:	e004b783          	ld	a5,-512(s1)
   13f04:	8fb9                	c.xor	a5,a4
   13f06:	4701                	c.li	a4,0
   13f08:	e791                	c.bnez	a5,13f14 <sm2_curve_init_once+0x94>
   13f0a:	70aa                	c.ldsp	ra,168(sp)
   13f0c:	64ea                	c.ldsp	s1,152(sp)
   13f0e:	694a                	c.ldsp	s2,144(sp)
   13f10:	614d                	c.addi16sp	sp,176
   13f12:	8082                	c.jr	ra
   13f14:	f122                	c.sdsp	s0,160(sp)
   13f16:	faafc0ef          	jal	ra,106c0 <__stack_chk_fail@plt>
   13f1a:	00000013          	addi	zero,zero,0
   13f1e:	0001                	c.addi	zero,0

0000000000013f20 <sm2_get_base_affine>:
   13f20:	7131                	c.addi16sp	sp,-192
   13f22:	e952                	c.sdsp	s4,144(sp)
   13f24:	8101a783          	lw	a5,-2032(gp) # 1d058 <g_sm2_curve_mont_inited>
   13f28:	f526                	c.sdsp	s1,168(sp)
   13f2a:	ed4e                	c.sdsp	s3,152(sp)
   13f2c:	0001d9b7          	lui	s3,0x1d
   13f30:	fd06                	c.sdsp	ra,184(sp)
   13f32:	e009b703          	ld	a4,-512(s3) # 1ce00 <__stack_chk_guard@GLIBC_2.27>
   13f36:	e53a                	c.sdsp	a4,136(sp)
   13f38:	4701                	c.li	a4,0
   13f3a:	f922                	c.sdsp	s0,176(sp)
   13f3c:	84aa                	c.mv	s1,a0
   13f3e:	f14a                	c.sdsp	s2,160(sp)
   13f40:	cf95                	c.beqz	a5,13f7c <sm2_get_base_affine+0x5c>
   13f42:	86818913          	addi	s2,gp,-1944 # 1d0b0 <SM2_GX_MONT>
   13f46:	88818413          	addi	s0,gp,-1912 # 1d0d0 <SM2_GY_MONT>
   13f4a:	85ca                	c.mv	a1,s2
   13f4c:	8526                	c.mv	a0,s1
   13f4e:	b13fe0ef          	jal	ra,12a60 <fp_from_mont>
   13f52:	85a2                	c.mv	a1,s0
   13f54:	02048513          	addi	a0,s1,32
   13f58:	b09fe0ef          	jal	ra,12a60 <fp_from_mont>
   13f5c:	0404a023          	sw	zero,64(s1)
   13f60:	672a                	c.ldsp	a4,136(sp)
   13f62:	e009b783          	ld	a5,-512(s3)
   13f66:	8fb9                	c.xor	a5,a4
   13f68:	4701                	c.li	a4,0
   13f6a:	efa5                	c.bnez	a5,13fe2 <sm2_get_base_affine+0xc2>
   13f6c:	70ea                	c.ldsp	ra,184(sp)
   13f6e:	744a                	c.ldsp	s0,176(sp)
   13f70:	74aa                	c.ldsp	s1,168(sp)
   13f72:	790a                	c.ldsp	s2,160(sp)
   13f74:	69ea                	c.ldsp	s3,152(sp)
   13f76:	6a4a                	c.ldsp	s4,144(sp)
   13f78:	6129                	c.addi16sp	sp,192
   13f7a:	8082                	c.jr	ra
   13f7c:	0028                	c.addi4spn	a0,sp,8
   13f7e:	6469                	c.lui	s0,0x1a
   13f80:	35040593          	addi	a1,s0,848 # 1a350 <SM2_A_BYTES>
   13f84:	35040413          	addi	s0,s0,848
   13f88:	dd9fd0ef          	jal	ra,11d60 <fp_from_bytes>
   13f8c:	02040593          	addi	a1,s0,32
   13f90:	1028                	c.addi4spn	a0,sp,40
   13f92:	dcffd0ef          	jal	ra,11d60 <fp_from_bytes>
   13f96:	04040593          	addi	a1,s0,64
   13f9a:	00a8                	c.addi4spn	a0,sp,72
   13f9c:	dc5fd0ef          	jal	ra,11d60 <fp_from_bytes>
   13fa0:	06040593          	addi	a1,s0,96
   13fa4:	10a8                	c.addi4spn	a0,sp,104
   13fa6:	dbbfd0ef          	jal	ra,11d60 <fp_from_bytes>
   13faa:	002c                	c.addi4spn	a1,sp,8
   13fac:	82818513          	addi	a0,gp,-2008 # 1d070 <SM2_A_MONT>
   13fb0:	a31fe0ef          	jal	ra,129e0 <fp_to_mont>
   13fb4:	82818413          	addi	s0,gp,-2008 # 1d070 <SM2_A_MONT>
   13fb8:	02040513          	addi	a0,s0,32
   13fbc:	102c                	c.addi4spn	a1,sp,40
   13fbe:	a23fe0ef          	jal	ra,129e0 <fp_to_mont>
   13fc2:	04040913          	addi	s2,s0,64
   13fc6:	00ac                	c.addi4spn	a1,sp,72
   13fc8:	854a                	c.mv	a0,s2
   13fca:	a17fe0ef          	jal	ra,129e0 <fp_to_mont>
   13fce:	06040413          	addi	s0,s0,96
   13fd2:	10ac                	c.addi4spn	a1,sp,104
   13fd4:	8522                	c.mv	a0,s0
   13fd6:	a0bfe0ef          	jal	ra,129e0 <fp_to_mont>
   13fda:	4785                	c.li	a5,1
   13fdc:	80f1a823          	sw	a5,-2032(gp) # 1d058 <g_sm2_curve_mont_inited>
   13fe0:	b7ad                	c.j	13f4a <sm2_get_base_affine+0x2a>
   13fe2:	edefc0ef          	jal	ra,106c0 <__stack_chk_fail@plt>
   13fe6:	00000013          	addi	zero,zero,0
   13fea:	00000013          	addi	zero,zero,0
   13fee:	00000013          	addi	zero,zero,0
   13ff2:	00000013          	addi	zero,zero,0
   13ff6:	00000013          	addi	zero,zero,0
   13ffa:	00000013          	addi	zero,zero,0
   13ffe:	0001                	c.addi	zero,0

0000000000014000 <sm2_get_base_affine_mont>:
   14000:	7131                	c.addi16sp	sp,-192
   14002:	e952                	c.sdsp	s4,144(sp)
   14004:	8101a783          	lw	a5,-2032(gp) # 1d058 <g_sm2_curve_mont_inited>
   14008:	f526                	c.sdsp	s1,168(sp)
   1400a:	ed4e                	c.sdsp	s3,152(sp)
   1400c:	0001d9b7          	lui	s3,0x1d
   14010:	fd06                	c.sdsp	ra,184(sp)
   14012:	e009b703          	ld	a4,-512(s3) # 1ce00 <__stack_chk_guard@GLIBC_2.27>
   14016:	e53a                	c.sdsp	a4,136(sp)
   14018:	4701                	c.li	a4,0
   1401a:	f922                	c.sdsp	s0,176(sp)
   1401c:	84aa                	c.mv	s1,a0
   1401e:	f14a                	c.sdsp	s2,160(sp)
   14020:	cf95                	c.beqz	a5,1405c <sm2_get_base_affine_mont+0x5c>
   14022:	86818913          	addi	s2,gp,-1944 # 1d0b0 <SM2_GX_MONT>
   14026:	88818413          	addi	s0,gp,-1912 # 1d0d0 <SM2_GY_MONT>
   1402a:	85ca                	c.mv	a1,s2
   1402c:	8526                	c.mv	a0,s1
   1402e:	c73fd0ef          	jal	ra,11ca0 <fp_copy>
   14032:	85a2                	c.mv	a1,s0
   14034:	02048513          	addi	a0,s1,32
   14038:	c69fd0ef          	jal	ra,11ca0 <fp_copy>
   1403c:	0404a023          	sw	zero,64(s1)
   14040:	672a                	c.ldsp	a4,136(sp)
   14042:	e009b783          	ld	a5,-512(s3)
   14046:	8fb9                	c.xor	a5,a4
   14048:	4701                	c.li	a4,0
   1404a:	efa5                	c.bnez	a5,140c2 <sm2_get_base_affine_mont+0xc2>
   1404c:	70ea                	c.ldsp	ra,184(sp)
   1404e:	744a                	c.ldsp	s0,176(sp)
   14050:	74aa                	c.ldsp	s1,168(sp)
   14052:	790a                	c.ldsp	s2,160(sp)
   14054:	69ea                	c.ldsp	s3,152(sp)
   14056:	6a4a                	c.ldsp	s4,144(sp)
   14058:	6129                	c.addi16sp	sp,192
   1405a:	8082                	c.jr	ra
   1405c:	0028                	c.addi4spn	a0,sp,8
   1405e:	6469                	c.lui	s0,0x1a
   14060:	35040593          	addi	a1,s0,848 # 1a350 <SM2_A_BYTES>
   14064:	35040413          	addi	s0,s0,848
   14068:	cf9fd0ef          	jal	ra,11d60 <fp_from_bytes>
   1406c:	02040593          	addi	a1,s0,32
   14070:	1028                	c.addi4spn	a0,sp,40
   14072:	ceffd0ef          	jal	ra,11d60 <fp_from_bytes>
   14076:	04040593          	addi	a1,s0,64
   1407a:	00a8                	c.addi4spn	a0,sp,72
   1407c:	ce5fd0ef          	jal	ra,11d60 <fp_from_bytes>
   14080:	06040593          	addi	a1,s0,96
   14084:	10a8                	c.addi4spn	a0,sp,104
   14086:	cdbfd0ef          	jal	ra,11d60 <fp_from_bytes>
   1408a:	002c                	c.addi4spn	a1,sp,8
   1408c:	82818513          	addi	a0,gp,-2008 # 1d070 <SM2_A_MONT>
   14090:	951fe0ef          	jal	ra,129e0 <fp_to_mont>
   14094:	82818413          	addi	s0,gp,-2008 # 1d070 <SM2_A_MONT>
   14098:	02040513          	addi	a0,s0,32
   1409c:	102c                	c.addi4spn	a1,sp,40
   1409e:	943fe0ef          	jal	ra,129e0 <fp_to_mont>
   140a2:	04040913          	addi	s2,s0,64
   140a6:	00ac                	c.addi4spn	a1,sp,72
   140a8:	854a                	c.mv	a0,s2
   140aa:	937fe0ef          	jal	ra,129e0 <fp_to_mont>
   140ae:	06040413          	addi	s0,s0,96
   140b2:	10ac                	c.addi4spn	a1,sp,104
   140b4:	8522                	c.mv	a0,s0
   140b6:	92bfe0ef          	jal	ra,129e0 <fp_to_mont>
   140ba:	4785                	c.li	a5,1
   140bc:	80f1a823          	sw	a5,-2032(gp) # 1d058 <g_sm2_curve_mont_inited>
   140c0:	b7ad                	c.j	1402a <sm2_get_base_affine_mont+0x2a>
   140c2:	dfefc0ef          	jal	ra,106c0 <__stack_chk_fail@plt>
   140c6:	00000013          	addi	zero,zero,0
   140ca:	00000013          	addi	zero,zero,0
   140ce:	00000013          	addi	zero,zero,0
   140d2:	00000013          	addi	zero,zero,0
   140d6:	00000013          	addi	zero,zero,0
   140da:	00000013          	addi	zero,zero,0
   140de:	0001                	c.addi	zero,0

00000000000140e0 <sm2_affine_to_mont>:
   140e0:	1101                	c.addi	sp,-32
   140e2:	e426                	c.sdsp	s1,8(sp)
   140e4:	84aa                	c.mv	s1,a0
   140e6:	ec06                	c.sdsp	ra,24(sp)
   140e8:	41bc                	c.lw	a5,64(a1)
   140ea:	e395                	c.bnez	a5,1410e <sm2_affine_to_mont+0x2e>
   140ec:	e822                	c.sdsp	s0,16(sp)
   140ee:	842e                	c.mv	s0,a1
   140f0:	8f1fe0ef          	jal	ra,129e0 <fp_to_mont>
   140f4:	02040593          	addi	a1,s0,32
   140f8:	02048513          	addi	a0,s1,32
   140fc:	8e5fe0ef          	jal	ra,129e0 <fp_to_mont>
   14100:	403c                	c.lw	a5,64(s0)
   14102:	6442                	c.ldsp	s0,16(sp)
   14104:	c0bc                	c.sw	a5,64(s1)
   14106:	60e2                	c.ldsp	ra,24(sp)
   14108:	64a2                	c.ldsp	s1,8(sp)
   1410a:	6105                	c.addi16sp	sp,32
   1410c:	8082                	c.jr	ra
   1410e:	bb3fd0ef          	jal	ra,11cc0 <fp_set_zero>
   14112:	02048513          	addi	a0,s1,32
   14116:	babfd0ef          	jal	ra,11cc0 <fp_set_zero>
   1411a:	4785                	c.li	a5,1
   1411c:	c0bc                	c.sw	a5,64(s1)
   1411e:	60e2                	c.ldsp	ra,24(sp)
   14120:	64a2                	c.ldsp	s1,8(sp)
   14122:	6105                	c.addi16sp	sp,32
   14124:	8082                	c.jr	ra
   14126:	00000013          	addi	zero,zero,0
   1412a:	00000013          	addi	zero,zero,0
   1412e:	00000013          	addi	zero,zero,0
   14132:	00000013          	addi	zero,zero,0
   14136:	00000013          	addi	zero,zero,0
   1413a:	00000013          	addi	zero,zero,0
   1413e:	0001                	c.addi	zero,0

0000000000014140 <sm2_affine_from_mont>:
   14140:	1101                	c.addi	sp,-32
   14142:	e426                	c.sdsp	s1,8(sp)
   14144:	84aa                	c.mv	s1,a0
   14146:	ec06                	c.sdsp	ra,24(sp)
   14148:	41bc                	c.lw	a5,64(a1)
   1414a:	e395                	c.bnez	a5,1416e <sm2_affine_from_mont+0x2e>
   1414c:	e822                	c.sdsp	s0,16(sp)
   1414e:	842e                	c.mv	s0,a1
   14150:	911fe0ef          	jal	ra,12a60 <fp_from_mont>
   14154:	02040593          	addi	a1,s0,32
   14158:	02048513          	addi	a0,s1,32
   1415c:	905fe0ef          	jal	ra,12a60 <fp_from_mont>
   14160:	403c                	c.lw	a5,64(s0)
   14162:	6442                	c.ldsp	s0,16(sp)
   14164:	c0bc                	c.sw	a5,64(s1)
   14166:	60e2                	c.ldsp	ra,24(sp)
   14168:	64a2                	c.ldsp	s1,8(sp)
   1416a:	6105                	c.addi16sp	sp,32
   1416c:	8082                	c.jr	ra
   1416e:	b53fd0ef          	jal	ra,11cc0 <fp_set_zero>
   14172:	02048513          	addi	a0,s1,32
   14176:	b4bfd0ef          	jal	ra,11cc0 <fp_set_zero>
   1417a:	4785                	c.li	a5,1
   1417c:	c0bc                	c.sw	a5,64(s1)
   1417e:	60e2                	c.ldsp	ra,24(sp)
   14180:	64a2                	c.ldsp	s1,8(sp)
   14182:	6105                	c.addi16sp	sp,32
   14184:	8082                	c.jr	ra
   14186:	00000013          	addi	zero,zero,0
   1418a:	00000013          	addi	zero,zero,0
   1418e:	00000013          	addi	zero,zero,0
   14192:	00000013          	addi	zero,zero,0
   14196:	00000013          	addi	zero,zero,0
   1419a:	00000013          	addi	zero,zero,0
   1419e:	0001                	c.addi	zero,0

00000000000141a0 <sm2_jacobian_set_infinity_mont>:
   141a0:	7131                	c.addi16sp	sp,-192
   141a2:	ed4e                	c.sdsp	s3,152(sp)
   141a4:	8101a783          	lw	a5,-2032(gp) # 1d058 <g_sm2_curve_mont_inited>
   141a8:	f922                	c.sdsp	s0,176(sp)
   141aa:	f14a                	c.sdsp	s2,160(sp)
   141ac:	0001d937          	lui	s2,0x1d
   141b0:	fd06                	c.sdsp	ra,184(sp)
   141b2:	e0093703          	ld	a4,-512(s2) # 1ce00 <__stack_chk_guard@GLIBC_2.27>
   141b6:	e53a                	c.sdsp	a4,136(sp)
   141b8:	4701                	c.li	a4,0
   141ba:	842a                	c.mv	s0,a0
   141bc:	e3bd                	c.bnez	a5,14222 <sm2_jacobian_set_infinity_mont+0x82>
   141be:	f526                	c.sdsp	s1,168(sp)
   141c0:	0028                	c.addi4spn	a0,sp,8
   141c2:	64e9                	c.lui	s1,0x1a
   141c4:	35048593          	addi	a1,s1,848 # 1a350 <SM2_A_BYTES>
   141c8:	b99fd0ef          	jal	ra,11d60 <fp_from_bytes>
   141cc:	35048493          	addi	s1,s1,848
   141d0:	02048593          	addi	a1,s1,32
   141d4:	1028                	c.addi4spn	a0,sp,40
   141d6:	b8bfd0ef          	jal	ra,11d60 <fp_from_bytes>
   141da:	04048593          	addi	a1,s1,64
   141de:	00a8                	c.addi4spn	a0,sp,72
   141e0:	b81fd0ef          	jal	ra,11d60 <fp_from_bytes>
   141e4:	06048593          	addi	a1,s1,96
   141e8:	10a8                	c.addi4spn	a0,sp,104
   141ea:	b77fd0ef          	jal	ra,11d60 <fp_from_bytes>
   141ee:	002c                	c.addi4spn	a1,sp,8
   141f0:	82818513          	addi	a0,gp,-2008 # 1d070 <SM2_A_MONT>
   141f4:	fecfe0ef          	jal	ra,129e0 <fp_to_mont>
   141f8:	82818493          	addi	s1,gp,-2008 # 1d070 <SM2_A_MONT>
   141fc:	02048513          	addi	a0,s1,32
   14200:	102c                	c.addi4spn	a1,sp,40
   14202:	fdefe0ef          	jal	ra,129e0 <fp_to_mont>
   14206:	04048513          	addi	a0,s1,64
   1420a:	00ac                	c.addi4spn	a1,sp,72
   1420c:	fd4fe0ef          	jal	ra,129e0 <fp_to_mont>
   14210:	06048513          	addi	a0,s1,96
   14214:	10ac                	c.addi4spn	a1,sp,104
   14216:	fcafe0ef          	jal	ra,129e0 <fp_to_mont>
   1421a:	74aa                	c.ldsp	s1,168(sp)
   1421c:	4785                	c.li	a5,1
   1421e:	80f1a823          	sw	a5,-2032(gp) # 1d058 <g_sm2_curve_mont_inited>
   14222:	8522                	c.mv	a0,s0
   14224:	a9dfd0ef          	jal	ra,11cc0 <fp_set_zero>
   14228:	02040513          	addi	a0,s0,32
   1422c:	65e9                	c.lui	a1,0x1a
   1422e:	2b058593          	addi	a1,a1,688 # 1a2b0 <FP_MONT_ONE>
   14232:	a6ffd0ef          	jal	ra,11ca0 <fp_copy>
   14236:	672a                	c.ldsp	a4,136(sp)
   14238:	e0093783          	ld	a5,-512(s2)
   1423c:	8fb9                	c.xor	a5,a4
   1423e:	4701                	c.li	a4,0
   14240:	eb91                	c.bnez	a5,14254 <sm2_jacobian_set_infinity_mont+0xb4>
   14242:	04040513          	addi	a0,s0,64
   14246:	744a                	c.ldsp	s0,176(sp)
   14248:	70ea                	c.ldsp	ra,184(sp)
   1424a:	790a                	c.ldsp	s2,160(sp)
   1424c:	69ea                	c.ldsp	s3,152(sp)
   1424e:	6129                	c.addi16sp	sp,192
   14250:	a71fd06f          	jal	zero,11cc0 <fp_set_zero>
   14254:	f526                	c.sdsp	s1,168(sp)
   14256:	c6afc0ef          	jal	ra,106c0 <__stack_chk_fail@plt>
   1425a:	00000013          	addi	zero,zero,0
   1425e:	0001                	c.addi	zero,0

0000000000014260 <sm2_affine_to_jacobian_mont>:
   14260:	7131                	c.addi16sp	sp,-192
   14262:	e952                	c.sdsp	s4,144(sp)
   14264:	8101a783          	lw	a5,-2032(gp) # 1d058 <g_sm2_curve_mont_inited>
   14268:	f922                	c.sdsp	s0,176(sp)
   1426a:	f526                	c.sdsp	s1,168(sp)
   1426c:	842a                	c.mv	s0,a0
   1426e:	ed4e                	c.sdsp	s3,152(sp)
   14270:	0001d9b7          	lui	s3,0x1d
   14274:	fd06                	c.sdsp	ra,184(sp)
   14276:	e009b703          	ld	a4,-512(s3) # 1ce00 <__stack_chk_guard@GLIBC_2.27>
   1427a:	e53a                	c.sdsp	a4,136(sp)
   1427c:	4701                	c.li	a4,0
   1427e:	84ae                	c.mv	s1,a1
   14280:	e3bd                	c.bnez	a5,142e6 <sm2_affine_to_jacobian_mont+0x86>
   14282:	f14a                	c.sdsp	s2,160(sp)
   14284:	0028                	c.addi4spn	a0,sp,8
   14286:	6969                	c.lui	s2,0x1a
   14288:	35090593          	addi	a1,s2,848 # 1a350 <SM2_A_BYTES>
   1428c:	ad5fd0ef          	jal	ra,11d60 <fp_from_bytes>
   14290:	35090913          	addi	s2,s2,848
   14294:	02090593          	addi	a1,s2,32
   14298:	1028                	c.addi4spn	a0,sp,40
   1429a:	ac7fd0ef          	jal	ra,11d60 <fp_from_bytes>
   1429e:	04090593          	addi	a1,s2,64
   142a2:	00a8                	c.addi4spn	a0,sp,72
   142a4:	abdfd0ef          	jal	ra,11d60 <fp_from_bytes>
   142a8:	06090593          	addi	a1,s2,96
   142ac:	10a8                	c.addi4spn	a0,sp,104
   142ae:	ab3fd0ef          	jal	ra,11d60 <fp_from_bytes>
   142b2:	002c                	c.addi4spn	a1,sp,8
   142b4:	82818513          	addi	a0,gp,-2008 # 1d070 <SM2_A_MONT>
   142b8:	f28fe0ef          	jal	ra,129e0 <fp_to_mont>
   142bc:	82818913          	addi	s2,gp,-2008 # 1d070 <SM2_A_MONT>
   142c0:	02090513          	addi	a0,s2,32
   142c4:	102c                	c.addi4spn	a1,sp,40
   142c6:	f1afe0ef          	jal	ra,129e0 <fp_to_mont>
   142ca:	04090513          	addi	a0,s2,64
   142ce:	00ac                	c.addi4spn	a1,sp,72
   142d0:	f10fe0ef          	jal	ra,129e0 <fp_to_mont>
   142d4:	06090513          	addi	a0,s2,96
   142d8:	10ac                	c.addi4spn	a1,sp,104
   142da:	f06fe0ef          	jal	ra,129e0 <fp_to_mont>
   142de:	790a                	c.ldsp	s2,160(sp)
   142e0:	4785                	c.li	a5,1
   142e2:	80f1a823          	sw	a5,-2032(gp) # 1d058 <g_sm2_curve_mont_inited>
   142e6:	85a6                	c.mv	a1,s1
   142e8:	8522                	c.mv	a0,s0
   142ea:	ef6fe0ef          	jal	ra,129e0 <fp_to_mont>
   142ee:	02048593          	addi	a1,s1,32
   142f2:	02040513          	addi	a0,s0,32
   142f6:	eeafe0ef          	jal	ra,129e0 <fp_to_mont>
   142fa:	10a8                	c.addi4spn	a0,sp,104
   142fc:	9c5fd0ef          	jal	ra,11cc0 <fp_set_zero>
   14300:	04040513          	addi	a0,s0,64
   14304:	65e9                	c.lui	a1,0x1a
   14306:	2b058593          	addi	a1,a1,688 # 1a2b0 <FP_MONT_ONE>
   1430a:	997fd0ef          	jal	ra,11ca0 <fp_copy>
   1430e:	40bc                	c.lw	a5,64(s1)
   14310:	672a                	c.ldsp	a4,136(sp)
   14312:	e009b303          	ld	t1,-512(s3)
   14316:	00674333          	xor	t1,a4,t1
   1431a:	4701                	c.li	a4,0
   1431c:	05843e03          	ld	t3,88(s0)
   14320:	04043883          	ld	a7,64(s0)
   14324:	6430                	c.ld	a2,72(s0)
   14326:	8b85                	c.andi	a5,1
   14328:	6834                	c.ld	a3,80(s0)
   1432a:	40f00733          	sub	a4,zero,a5
   1432e:	17fd                	c.addi	a5,-1
   14330:	75a6                	c.ldsp	a1,104(sp)
   14332:	0117f8b3          	and	a7,a5,a7
   14336:	8e7d                	c.and	a2,a5
   14338:	8efd                	c.and	a3,a5
   1433a:	7846                	c.ldsp	a6,112(sp)
   1433c:	01c7f7b3          	and	a5,a5,t3
   14340:	7566                	c.ldsp	a0,120(sp)
   14342:	6e0a                	c.ldsp	t3,128(sp)
   14344:	8df9                	c.and	a1,a4
   14346:	01077833          	and	a6,a4,a6
   1434a:	0115e5b3          	or	a1,a1,a7
   1434e:	8d79                	c.and	a0,a4
   14350:	01066633          	or	a2,a2,a6
   14354:	01c77733          	and	a4,a4,t3
   14358:	8ec9                	c.or	a3,a0
   1435a:	8fd9                	c.or	a5,a4
   1435c:	e02c                	c.sd	a1,64(s0)
   1435e:	e430                	c.sd	a2,72(s0)
   14360:	e834                	c.sd	a3,80(s0)
   14362:	ec3c                	c.sd	a5,88(s0)
   14364:	00031963          	bne	t1,zero,14376 <sm2_affine_to_jacobian_mont+0x116>
   14368:	70ea                	c.ldsp	ra,184(sp)
   1436a:	744a                	c.ldsp	s0,176(sp)
   1436c:	74aa                	c.ldsp	s1,168(sp)
   1436e:	69ea                	c.ldsp	s3,152(sp)
   14370:	6a4a                	c.ldsp	s4,144(sp)
   14372:	6129                	c.addi16sp	sp,192
   14374:	8082                	c.jr	ra
   14376:	f14a                	c.sdsp	s2,160(sp)
   14378:	b48fc0ef          	jal	ra,106c0 <__stack_chk_fail@plt>
   1437c:	00000013          	addi	zero,zero,0

0000000000014380 <sm2_affine_mont_to_jacobian_mont>:
   14380:	7131                	c.addi16sp	sp,-192
   14382:	e952                	c.sdsp	s4,144(sp)
   14384:	8101a783          	lw	a5,-2032(gp) # 1d058 <g_sm2_curve_mont_inited>
   14388:	f922                	c.sdsp	s0,176(sp)
   1438a:	f526                	c.sdsp	s1,168(sp)
   1438c:	842a                	c.mv	s0,a0
   1438e:	ed4e                	c.sdsp	s3,152(sp)
   14390:	0001d9b7          	lui	s3,0x1d
   14394:	fd06                	c.sdsp	ra,184(sp)
   14396:	e009b703          	ld	a4,-512(s3) # 1ce00 <__stack_chk_guard@GLIBC_2.27>
   1439a:	e53a                	c.sdsp	a4,136(sp)
   1439c:	4701                	c.li	a4,0
   1439e:	84ae                	c.mv	s1,a1
   143a0:	e3bd                	c.bnez	a5,14406 <sm2_affine_mont_to_jacobian_mont+0x86>
   143a2:	f14a                	c.sdsp	s2,160(sp)
   143a4:	0028                	c.addi4spn	a0,sp,8
   143a6:	6969                	c.lui	s2,0x1a
   143a8:	35090593          	addi	a1,s2,848 # 1a350 <SM2_A_BYTES>
   143ac:	9b5fd0ef          	jal	ra,11d60 <fp_from_bytes>
   143b0:	35090913          	addi	s2,s2,848
   143b4:	02090593          	addi	a1,s2,32
   143b8:	1028                	c.addi4spn	a0,sp,40
   143ba:	9a7fd0ef          	jal	ra,11d60 <fp_from_bytes>
   143be:	04090593          	addi	a1,s2,64
   143c2:	00a8                	c.addi4spn	a0,sp,72
   143c4:	99dfd0ef          	jal	ra,11d60 <fp_from_bytes>
   143c8:	06090593          	addi	a1,s2,96
   143cc:	10a8                	c.addi4spn	a0,sp,104
   143ce:	993fd0ef          	jal	ra,11d60 <fp_from_bytes>
   143d2:	002c                	c.addi4spn	a1,sp,8
   143d4:	82818513          	addi	a0,gp,-2008 # 1d070 <SM2_A_MONT>
   143d8:	e08fe0ef          	jal	ra,129e0 <fp_to_mont>
   143dc:	82818913          	addi	s2,gp,-2008 # 1d070 <SM2_A_MONT>
   143e0:	02090513          	addi	a0,s2,32
   143e4:	102c                	c.addi4spn	a1,sp,40
   143e6:	dfafe0ef          	jal	ra,129e0 <fp_to_mont>
   143ea:	04090513          	addi	a0,s2,64
   143ee:	00ac                	c.addi4spn	a1,sp,72
   143f0:	df0fe0ef          	jal	ra,129e0 <fp_to_mont>
   143f4:	06090513          	addi	a0,s2,96
   143f8:	10ac                	c.addi4spn	a1,sp,104
   143fa:	de6fe0ef          	jal	ra,129e0 <fp_to_mont>
   143fe:	790a                	c.ldsp	s2,160(sp)
   14400:	4785                	c.li	a5,1
   14402:	80f1a823          	sw	a5,-2032(gp) # 1d058 <g_sm2_curve_mont_inited>
   14406:	85a6                	c.mv	a1,s1
   14408:	8522                	c.mv	a0,s0
   1440a:	897fd0ef          	jal	ra,11ca0 <fp_copy>
   1440e:	02048593          	addi	a1,s1,32
   14412:	02040513          	addi	a0,s0,32
   14416:	88bfd0ef          	jal	ra,11ca0 <fp_copy>
   1441a:	10a8                	c.addi4spn	a0,sp,104
   1441c:	8a5fd0ef          	jal	ra,11cc0 <fp_set_zero>
   14420:	04040513          	addi	a0,s0,64
   14424:	65e9                	c.lui	a1,0x1a
   14426:	2b058593          	addi	a1,a1,688 # 1a2b0 <FP_MONT_ONE>
   1442a:	877fd0ef          	jal	ra,11ca0 <fp_copy>
   1442e:	40bc                	c.lw	a5,64(s1)
   14430:	672a                	c.ldsp	a4,136(sp)
   14432:	e009b303          	ld	t1,-512(s3)
   14436:	00674333          	xor	t1,a4,t1
   1443a:	4701                	c.li	a4,0
   1443c:	05843e03          	ld	t3,88(s0)
   14440:	04043883          	ld	a7,64(s0)
   14444:	6430                	c.ld	a2,72(s0)
   14446:	8b85                	c.andi	a5,1
   14448:	6834                	c.ld	a3,80(s0)
   1444a:	40f00733          	sub	a4,zero,a5
   1444e:	17fd                	c.addi	a5,-1
   14450:	75a6                	c.ldsp	a1,104(sp)
   14452:	0117f8b3          	and	a7,a5,a7
   14456:	8e7d                	c.and	a2,a5
   14458:	8efd                	c.and	a3,a5
   1445a:	7846                	c.ldsp	a6,112(sp)
   1445c:	01c7f7b3          	and	a5,a5,t3
   14460:	7566                	c.ldsp	a0,120(sp)
   14462:	6e0a                	c.ldsp	t3,128(sp)
   14464:	8df9                	c.and	a1,a4
   14466:	01077833          	and	a6,a4,a6
   1446a:	0115e5b3          	or	a1,a1,a7
   1446e:	8d79                	c.and	a0,a4
   14470:	01066633          	or	a2,a2,a6
   14474:	01c77733          	and	a4,a4,t3
   14478:	8ec9                	c.or	a3,a0
   1447a:	8fd9                	c.or	a5,a4
   1447c:	e02c                	c.sd	a1,64(s0)
   1447e:	e430                	c.sd	a2,72(s0)
   14480:	e834                	c.sd	a3,80(s0)
   14482:	ec3c                	c.sd	a5,88(s0)
   14484:	00031963          	bne	t1,zero,14496 <sm2_affine_mont_to_jacobian_mont+0x116>
   14488:	70ea                	c.ldsp	ra,184(sp)
   1448a:	744a                	c.ldsp	s0,176(sp)
   1448c:	74aa                	c.ldsp	s1,168(sp)
   1448e:	69ea                	c.ldsp	s3,152(sp)
   14490:	6a4a                	c.ldsp	s4,144(sp)
   14492:	6129                	c.addi16sp	sp,192
   14494:	8082                	c.jr	ra
   14496:	f14a                	c.sdsp	s2,160(sp)
   14498:	a28fc0ef          	jal	ra,106c0 <__stack_chk_fail@plt>
   1449c:	00000013          	addi	zero,zero,0

00000000000144a0 <sm2_jacobian_mont_to_affine_mont>:
   144a0:	7121                	c.addi16sp	sp,-448
   144a2:	f726                	c.sdsp	s1,424(sp)
   144a4:	8101a783          	lw	a5,-2032(gp) # 1d058 <g_sm2_curve_mont_inited>
   144a8:	f34a                	c.sdsp	s2,416(sp)
   144aa:	ef4e                	c.sdsp	s3,408(sp)
   144ac:	892a                	c.mv	s2,a0
   144ae:	e756                	c.sdsp	s5,392(sp)
   144b0:	0001dab7          	lui	s5,0x1d
   144b4:	fede                	c.sdsp	s7,376(sp)
   144b6:	e00ab703          	ld	a4,-512(s5) # 1ce00 <__stack_chk_guard@GLIBC_2.27>
   144ba:	eeba                	c.sdsp	a4,344(sp)
   144bc:	4701                	c.li	a4,0
   144be:	ff06                	c.sdsp	ra,440(sp)
   144c0:	89ae                	c.mv	s3,a1
   144c2:	fb22                	c.sdsp	s0,432(sp)
   144c4:	08810b93          	addi	s7,sp,136
   144c8:	eb52                	c.sdsp	s4,400(sp)
   144ca:	e35a                	c.sdsp	s6,384(sp)
   144cc:	fae2                	c.sdsp	s8,368(sp)
   144ce:	f6e6                	c.sdsp	s9,360(sp)
   144d0:	1a078663          	beq	a5,zero,1467c <sm2_jacobian_mont_to_affine_mont+0x1dc>
   144d4:	0a810b13          	addi	s6,sp,168
   144d8:	0c810c93          	addi	s9,sp,200
   144dc:	11010c13          	addi	s8,sp,272
   144e0:	0409ba03          	ld	s4,64(s3)
   144e4:	04098593          	addi	a1,s3,64
   144e8:	0489b683          	ld	a3,72(s3)
   144ec:	0028                	c.addi4spn	a0,sp,8
   144ee:	0509b703          	ld	a4,80(s3)
   144f2:	0589b783          	ld	a5,88(s3)
   144f6:	00da6a33          	or	s4,s4,a3
   144fa:	00ea6a33          	or	s4,s4,a4
   144fe:	00fa6a33          	or	s4,s4,a5
   14502:	f9efd0ef          	jal	ra,11ca0 <fp_copy>
   14506:	67a2                	c.ldsp	a5,8(sp)
   14508:	001a3493          	sltiu	s1,s4,1
   1450c:	fff48413          	addi	s0,s1,-1
   14510:	4701                	c.li	a4,0
   14512:	8fe1                	c.and	a5,s0
   14514:	c481                	c.beqz	s1,1451c <sm2_jacobian_mont_to_affine_mont+0x7c>
   14516:	6769                	c.lui	a4,0x1a
   14518:	2b073703          	ld	a4,688(a4) # 1a2b0 <FP_MONT_ONE>
   1451c:	8fd9                	c.or	a5,a4
   1451e:	4701                	c.li	a4,0
   14520:	e43e                	c.sdsp	a5,8(sp)
   14522:	67c2                	c.ldsp	a5,16(sp)
   14524:	8fe1                	c.and	a5,s0
   14526:	c481                	c.beqz	s1,1452e <sm2_jacobian_mont_to_affine_mont+0x8e>
   14528:	6769                	c.lui	a4,0x1a
   1452a:	2b873703          	ld	a4,696(a4) # 1a2b8 <FP_MONT_ONE+0x8>
   1452e:	8fd9                	c.or	a5,a4
   14530:	4701                	c.li	a4,0
   14532:	e83e                	c.sdsp	a5,16(sp)
   14534:	67e2                	c.ldsp	a5,24(sp)
   14536:	8fe1                	c.and	a5,s0
   14538:	c481                	c.beqz	s1,14540 <sm2_jacobian_mont_to_affine_mont+0xa0>
   1453a:	6769                	c.lui	a4,0x1a
   1453c:	2c073703          	ld	a4,704(a4) # 1a2c0 <FP_MONT_ONE+0x10>
   14540:	8fd9                	c.or	a5,a4
   14542:	4701                	c.li	a4,0
   14544:	ec3e                	c.sdsp	a5,24(sp)
   14546:	7782                	c.ldsp	a5,32(sp)
   14548:	8fe1                	c.and	a5,s0
   1454a:	c481                	c.beqz	s1,14552 <sm2_jacobian_mont_to_affine_mont+0xb2>
   1454c:	6769                	c.lui	a4,0x1a
   1454e:	2c873703          	ld	a4,712(a4) # 1a2c8 <FP_MONT_ONE+0x18>
   14552:	8fd9                	c.or	a5,a4
   14554:	002c                	c.addi4spn	a1,sp,8
   14556:	1028                	c.addi4spn	a0,sp,40
   14558:	f03e                	c.sdsp	a5,32(sp)
   1455a:	d86fe0ef          	jal	ra,12ae0 <fp_mont_inv>
