
test_mont_asm：     文件格式 elf64-littleriscv


Disassembly of section .plt:

0000000000010670 <_PROCEDURE_LINKAGE_TABLE_>:
   10670:	97 d3 00 00 33 03 c3 41 03 be 03 98 13 03 43 fd     ....3..A......C.
   10680:	93 82 03 98 13 53 13 00 83 b2 82 00 67 00 0e 00     .....S......g...

0000000000010690 <__libc_start_main@plt>:
   10690:	0000de17          	auipc	t3,0xd
   10694:	970e3e03          	ld	t3,-1680(t3) # 1d000 <__libc_start_main@GLIBC_2.34>
   10698:	000e0367          	jalr	t1,0(t3)
   1069c:	00000013          	addi	zero,zero,0

00000000000106a0 <memcmp@plt>:
   106a0:	0000de17          	auipc	t3,0xd
   106a4:	968e3e03          	ld	t3,-1688(t3) # 1d008 <memcmp@GLIBC_2.27>
   106a8:	000e0367          	jalr	t1,0(t3)
   106ac:	00000013          	addi	zero,zero,0

00000000000106b0 <__printf_chk@plt>:
   106b0:	0000de17          	auipc	t3,0xd
   106b4:	960e3e03          	ld	t3,-1696(t3) # 1d010 <__printf_chk@GLIBC_2.27>
   106b8:	000e0367          	jalr	t1,0(t3)
   106bc:	00000013          	addi	zero,zero,0

00000000000106c0 <__stack_chk_fail@plt>:
   106c0:	0000de17          	auipc	t3,0xd
   106c4:	958e3e03          	ld	t3,-1704(t3) # 1d018 <__stack_chk_fail@GLIBC_2.27>
   106c8:	000e0367          	jalr	t1,0(t3)
   106cc:	00000013          	addi	zero,zero,0

00000000000106d0 <__memset_chk@plt>:
   106d0:	0000de17          	auipc	t3,0xd
   106d4:	950e3e03          	ld	t3,-1712(t3) # 1d020 <__memset_chk@GLIBC_2.27>
   106d8:	000e0367          	jalr	t1,0(t3)
   106dc:	00000013          	addi	zero,zero,0

00000000000106e0 <memcpy@plt>:
   106e0:	0000de17          	auipc	t3,0xd
   106e4:	948e3e03          	ld	t3,-1720(t3) # 1d028 <memcpy@GLIBC_2.27>
   106e8:	000e0367          	jalr	t1,0(t3)
   106ec:	00000013          	addi	zero,zero,0

00000000000106f0 <__memcpy_chk@plt>:
   106f0:	0000de17          	auipc	t3,0xd
   106f4:	940e3e03          	ld	t3,-1728(t3) # 1d030 <__memcpy_chk@GLIBC_2.27>
   106f8:	000e0367          	jalr	t1,0(t3)
   106fc:	00000013          	addi	zero,zero,0

0000000000010700 <puts@plt>:
   10700:	0000de17          	auipc	t3,0xd
   10704:	938e3e03          	ld	t3,-1736(t3) # 1d038 <puts@GLIBC_2.27>
   10708:	000e0367          	jalr	t1,0(t3)
   1070c:	00000013          	addi	zero,zero,0

0000000000010710 <memset@plt>:
   10710:	0000de17          	auipc	t3,0xd
   10714:	930e3e03          	ld	t3,-1744(t3) # 1d040 <memset@GLIBC_2.27>
   10718:	000e0367          	jalr	t1,0(t3)
   1071c:	00000013          	addi	zero,zero,0

Disassembly of section .text:

0000000000010720 <main>:
   10720:	b9010113          	addi	sp,sp,-1136
   10724:	0001d737          	lui	a4,0x1d
   10728:	656d                	c.lui	a0,0x1b
   1072a:	e0073783          	ld	a5,-512(a4) # 1ce00 <__stack_chk_guard@GLIBC_2.27>
   1072e:	3ef13c23          	sd	a5,1016(sp)
   10732:	4781                	c.li	a5,0
   10734:	98850513          	addi	a0,a0,-1656 # 1a988 <SM2_GY_BYTES+0x70>
   10738:	46113423          	sd	ra,1128(sp)
   1073c:	46813023          	sd	s0,1120(sp)
   10740:	1420                	c.addi4spn	s0,sp,552
   10742:	44913c23          	sd	s1,1112(sp)
   10746:	0da4                	c.addi4spn	s1,sp,728
   10748:	45213823          	sd	s2,1104(sp)
   1074c:	20010913          	addi	s2,sp,512
   10750:	45313423          	sd	s3,1096(sp)
   10754:	89a2                	c.mv	s3,s0
   10756:	43513c23          	sd	s5,1080(sp)
   1075a:	25010a93          	addi	s5,sp,592
   1075e:	43613823          	sd	s6,1072(sp)
   10762:	43713423          	sd	s7,1064(sp)
   10766:	2f810b93          	addi	s7,sp,760
   1076a:	41913c23          	sd	s9,1048(sp)
   1076e:	6ce1                	c.lui	s9,0x18
   10770:	41a13823          	sd	s10,1040(sp)
   10774:	000a8d37          	lui	s10,0xa8
   10778:	45413023          	sd	s4,1088(sp)
   1077c:	c5bd0d13          	addi	s10,s10,-933 # a7c5b <__global_pointer$+0x8a413>
   10780:	43813023          	sd	s8,1056(sp)
   10784:	0d32                	c.slli	s10,0xc
   10786:	41b13423          	sd	s11,1032(sp)
   1078a:	f77ff0ef          	jal	ra,10700 <puts@plt>
   1078e:	656d                	c.lui	a0,0x1b
   10790:	9b050513          	addi	a0,a0,-1616 # 1a9b0 <SM2_GY_BYTES+0x98>
   10794:	f6dff0ef          	jal	ra,10700 <puts@plt>
   10798:	c47d0d13          	addi	s10,s10,-953
   1079c:	6661                	c.lui	a2,0x18
   1079e:	65ed                	c.lui	a1,0x1b
   107a0:	6a060613          	addi	a2,a2,1696 # 186a0 <fp_mont_neg+0x24>
   107a4:	9d858593          	addi	a1,a1,-1576 # 1a9d8 <SM2_GY_BYTES+0xc0>
   107a8:	3e800693          	addi	a3,zero,1000
   107ac:	0c800713          	addi	a4,zero,200
   107b0:	4509                	c.li	a0,2
   107b2:	effff0ef          	jal	ra,106b0 <__printf_chk@plt>
   107b6:	76b010ef          	jal	ra,12720 <sm2_curve_init_once>
   107ba:	0d36                	c.slli	s10,0xd
   107bc:	63697737          	lui	a4,0x63697
   107c0:	c4170713          	addi	a4,a4,-959 # 63696c41 <__BSS_END__+0x635ea451>
   107c4:	0228                	c.addi4spn	a0,sp,264
   107c6:	28e12823          	sw	a4,656(sp)
   107ca:	006277b7          	lui	a5,0x627
   107ce:	06500713          	addi	a4,zero,101
   107d2:	f4278793          	addi	a5,a5,-190 # 626f42 <__BSS_END__+0x57a752>
   107d6:	28e11a23          	sh	a4,660(sp)
   107da:	28f12423          	sw	a5,648(sp)
   107de:	7e3010ef          	jal	ra,127c0 <sm2_get_base_affine>
   107e2:	0d28                	c.addi4spn	a0,sp,664
   107e4:	45c5                	c.li	a1,17
   107e6:	41b070ef          	jal	ra,18400 <fixed_scalar>
   107ea:	369d0d13          	addi	s10,s10,873
   107ee:	1d28                	c.addi4spn	a0,sp,696
   107f0:	02200593          	addi	a1,zero,34
   107f4:	40d070ef          	jal	ra,18400 <fixed_scalar>
   107f8:	0d3e                	c.slli	s10,0xf
   107fa:	8526                	c.mv	a0,s1
   107fc:	03300593          	addi	a1,zero,51
   10800:	401070ef          	jal	ra,18400 <fixed_scalar>
   10804:	6a0c8c93          	addi	s9,s9,1696 # 186a0 <fp_mont_neg+0x24>
   10808:	855e                	c.mv	a0,s7
   1080a:	04400593          	addi	a1,zero,68
   1080e:	3f3070ef          	jal	ra,18400 <fixed_scalar>
   10812:	843d0d13          	addi	s10,s10,-1981
   10816:	13a8                	c.addi4spn	a0,sp,488
   10818:	4661                	c.li	a2,24
   1081a:	45c9                	c.li	a1,18
   1081c:	ef5ff0ef          	jal	ra,10710 <memset@plt>
   10820:	009097b7          	lui	a5,0x909
   10824:	09178793          	addi	a5,a5,145 # 909091 <__BSS_END__+0x85c8a1>
   10828:	07b2                	c.slli	a5,0xc
   1082a:	138c                	c.addi4spn	a1,sp,480
   1082c:	90978793          	addi	a5,a5,-1783
   10830:	852e                	c.mv	a0,a1
   10832:	07b6                	c.slli	a5,0xd
   10834:	12178793          	addi	a5,a5,289
   10838:	07b2                	c.slli	a5,0xc
   1083a:	21378793          	addi	a5,a5,531
   1083e:	f3be                	c.sdsp	a5,480(sp)
   10840:	082090ef          	jal	ra,198c2 <fp_to_mont>
   10844:	0c800a13          	addi	s4,zero,200
   10848:	1390                	c.addi4spn	a2,sp,480
   1084a:	3a7d                	c.addiw	s4,-1
   1084c:	85b2                	c.mv	a1,a2
   1084e:	8532                	c.mv	a0,a2
   10850:	6bd070ef          	jal	ra,1870c <fp_mont_mul>
   10854:	fe0a1ae3          	bne	s4,zero,10848 <main+0x128>
   10858:	c0002a73          	csrrs	s4,cycle,zero
   1085c:	4c01                	c.li	s8,0
   1085e:	a021                	c.j	10866 <main+0x146>
   10860:	2c05                	c.addiw	s8,1
   10862:	039c0863          	beq	s8,s9,10892 <main+0x172>
   10866:	1390                	c.addi4spn	a2,sp,480
   10868:	85b2                	c.mv	a1,a2
   1086a:	8532                	c.mv	a0,a2
   1086c:	6a1070ef          	jal	ra,1870c <fp_mont_mul>
   10870:	07fc7793          	andi	a5,s8,127
   10874:	f7f5                	c.bnez	a5,10860 <main+0x140>
   10876:	139c                	c.addi4spn	a5,sp,480
   10878:	0007c703          	lbu	a4,0(a5)
   1087c:	0785                	c.addi	a5,1
   1087e:	8181c683          	lbu	a3,-2024(gp) # 1d060 <bench_sink>
   10882:	8f35                	c.xor	a4,a3
   10884:	80e18c23          	sb	a4,-2024(gp) # 1d060 <bench_sink>
   10888:	fef918e3          	bne	s2,a5,10878 <main+0x158>
   1088c:	2c05                	c.addiw	s8,1
   1088e:	fd9c1ce3          	bne	s8,s9,10866 <main+0x146>
   10892:	c0002773          	csrrs	a4,cycle,zero
   10896:	41470733          	sub	a4,a4,s4
   1089a:	139c                	c.addi4spn	a5,sp,480
   1089c:	8315                	c.srli	a4,0x5
   1089e:	03a73733          	mulhu	a4,a4,s10
   108a2:	831d                	c.srli	a4,0x7
   108a4:	00e9b023          	sd	a4,0(s3)
   108a8:	0007c703          	lbu	a4,0(a5)
   108ac:	0785                	c.addi	a5,1
   108ae:	8181c683          	lbu	a3,-2024(gp) # 1d060 <bench_sink>
   108b2:	8f35                	c.xor	a4,a3
   108b4:	80e18c23          	sb	a4,-2024(gp) # 1d060 <bench_sink>
   108b8:	fef918e3          	bne	s2,a5,108a8 <main+0x188>
   108bc:	09a1                	c.addi	s3,8
   108be:	f93a93e3          	bne	s5,s3,10844 <main+0x124>
   108c2:	85a2                	c.mv	a1,s0
   108c4:	656d                	c.lui	a0,0x1b
   108c6:	9f850513          	addi	a0,a0,-1544 # 1a9f8 <SM2_GY_BYTES+0xe0>
   108ca:	000a8d37          	lui	s10,0xa8
   108ce:	373070ef          	jal	ra,18440 <print_stats.constprop.0>
   108d2:	c5bd0d13          	addi	s10,s10,-933 # a7c5b <__global_pointer$+0x8a413>
   108d6:	13a8                	c.addi4spn	a0,sp,488
   108d8:	4661                	c.li	a2,24
   108da:	05600593          	addi	a1,zero,86
   108de:	e33ff0ef          	jal	ra,10710 <memset@plt>
   108e2:	02b2b7b7          	lui	a5,0x2b2b
   108e6:	2b378793          	addi	a5,a5,691 # 2b2b2b3 <__BSS_END__+0x2a7eac3>
   108ea:	07b2                	c.slli	a5,0xc
   108ec:	0d32                	c.slli	s10,0xc
   108ee:	b2b78793          	addi	a5,a5,-1237
   108f2:	c47d0d13          	addi	s10,s10,-953
   108f6:	07b6                	c.slli	a5,0xd
   108f8:	0d36                	c.slli	s10,0xd
   108fa:	56578793          	addi	a5,a5,1381
   108fe:	369d0d13          	addi	s10,s10,873
   10902:	138c                	c.addi4spn	a1,sp,480
   10904:	07b2                	c.slli	a5,0xc
   10906:	0d3e                	c.slli	s10,0xf
   10908:	65778793          	addi	a5,a5,1623
   1090c:	852e                	c.mv	a0,a1
   1090e:	6ce1                	c.lui	s9,0x18
   10910:	89a2                	c.mv	s3,s0
   10912:	6a0c8c93          	addi	s9,s9,1696 # 186a0 <fp_mont_neg+0x24>
   10916:	843d0d13          	addi	s10,s10,-1981
   1091a:	f3be                	c.sdsp	a5,480(sp)
   1091c:	7a7080ef          	jal	ra,198c2 <fp_to_mont>
   10920:	0c800a13          	addi	s4,zero,200
   10924:	138c                	c.addi4spn	a1,sp,480
   10926:	3a7d                	c.addiw	s4,-1
   10928:	852e                	c.mv	a0,a1
   1092a:	356080ef          	jal	ra,18c80 <fp_mont_sqr>
   1092e:	fe0a1be3          	bne	s4,zero,10924 <main+0x204>
   10932:	c0002a73          	csrrs	s4,cycle,zero
   10936:	4c01                	c.li	s8,0
   10938:	a021                	c.j	10940 <main+0x220>
   1093a:	2c05                	c.addiw	s8,1
   1093c:	039c0763          	beq	s8,s9,1096a <main+0x24a>
   10940:	138c                	c.addi4spn	a1,sp,480
   10942:	852e                	c.mv	a0,a1
   10944:	33c080ef          	jal	ra,18c80 <fp_mont_sqr>
   10948:	07fc7793          	andi	a5,s8,127
   1094c:	f7fd                	c.bnez	a5,1093a <main+0x21a>
   1094e:	139c                	c.addi4spn	a5,sp,480
   10950:	0007c703          	lbu	a4,0(a5)
   10954:	0785                	c.addi	a5,1
   10956:	8181c683          	lbu	a3,-2024(gp) # 1d060 <bench_sink>
   1095a:	8f35                	c.xor	a4,a3
   1095c:	80e18c23          	sb	a4,-2024(gp) # 1d060 <bench_sink>
   10960:	fef918e3          	bne	s2,a5,10950 <main+0x230>
   10964:	2c05                	c.addiw	s8,1
   10966:	fd9c1de3          	bne	s8,s9,10940 <main+0x220>
   1096a:	c0002773          	csrrs	a4,cycle,zero
   1096e:	41470733          	sub	a4,a4,s4
   10972:	139c                	c.addi4spn	a5,sp,480
   10974:	8315                	c.srli	a4,0x5
   10976:	03a73733          	mulhu	a4,a4,s10
   1097a:	831d                	c.srli	a4,0x7
   1097c:	00e9b023          	sd	a4,0(s3)
   10980:	0007c703          	lbu	a4,0(a5)
   10984:	0785                	c.addi	a5,1
   10986:	8181c683          	lbu	a3,-2024(gp) # 1d060 <bench_sink>
   1098a:	8f35                	c.xor	a4,a3
   1098c:	80e18c23          	sb	a4,-2024(gp) # 1d060 <bench_sink>
   10990:	fef918e3          	bne	s2,a5,10980 <main+0x260>
   10994:	09a1                	c.addi	s3,8
   10996:	f93a95e3          	bne	s5,s3,10920 <main+0x200>
   1099a:	85a2                	c.mv	a1,s0
   1099c:	656d                	c.lui	a0,0x1b
   1099e:	a0850513          	addi	a0,a0,-1528 # 1aa08 <SM2_GY_BYTES+0xf0>
   109a2:	0051fdb7          	lui	s11,0x51f
   109a6:	29b070ef          	jal	ra,18440 <print_stats.constprop.0>
   109aa:	b85d8d93          	addi	s11,s11,-1147 # 51eb85 <__BSS_END__+0x472395>
   109ae:	1308                	c.addi4spn	a0,sp,416
   109b0:	4661                	c.li	a2,24
   109b2:	09a00593          	addi	a1,zero,154
   109b6:	d5bff0ef          	jal	ra,10710 <memset@plt>
   109ba:	fcd4d7b7          	lui	a5,0xfcd4d
   109be:	4d578793          	addi	a5,a5,1237 # fffffffffcd4d4d5 <__BSS_END__+0xfffffffffcca0ce5>
   109c2:	07b2                	c.slli	a5,0xc
   109c4:	0db6                	c.slli	s11,0xd
   109c6:	d4d78793          	addi	a5,a5,-691
   109ca:	3d7d8d93          	addi	s11,s11,983
   109ce:	07b2                	c.slli	a5,0xc
   109d0:	0dba                	c.slli	s11,0xe
   109d2:	4d578793          	addi	a5,a5,1237
   109d6:	28fd8d93          	addi	s11,s11,655
   109da:	0b2c                	c.addi4spn	a1,sp,408
   109dc:	07b6                	c.slli	a5,0xd
   109de:	0db2                	c.slli	s11,0xc
   109e0:	a9b78793          	addi	a5,a5,-1381
   109e4:	852e                	c.mv	a0,a1
   109e6:	8c22                	c.mv	s8,s0
   109e8:	1b810993          	addi	s3,sp,440
   109ec:	5c3d8d93          	addi	s11,s11,1475
   109f0:	ef3e                	c.sdsp	a5,408(sp)
   109f2:	6d1080ef          	jal	ra,198c2 <fp_to_mont>
   109f6:	4ca9                	c.li	s9,10
   109f8:	0b2c                	c.addi4spn	a1,sp,408
   109fa:	1388                	c.addi4spn	a0,sp,480
   109fc:	1e010a13          	addi	s4,sp,480
   10a00:	0e1010ef          	jal	ra,122e0 <fp_mont_inv>
   10a04:	87d2                	c.mv	a5,s4
   10a06:	0007c703          	lbu	a4,0(a5)
   10a0a:	0785                	c.addi	a5,1
   10a0c:	8181c683          	lbu	a3,-2024(gp) # 1d060 <bench_sink>
   10a10:	8f35                	c.xor	a4,a3
   10a12:	80e18c23          	sb	a4,-2024(gp) # 1d060 <bench_sink>
   10a16:	fef918e3          	bne	s2,a5,10a06 <main+0x2e6>
   10a1a:	3cfd                	c.addiw	s9,-1
   10a1c:	fc0c9ee3          	bne	s9,zero,109f8 <main+0x2d8>
   10a20:	c0002d73          	csrrs	s10,cycle,zero
   10a24:	0c800c93          	addi	s9,zero,200
   10a28:	0b2c                	c.addi4spn	a1,sp,408
   10a2a:	1388                	c.addi4spn	a0,sp,480
   10a2c:	0b5010ef          	jal	ra,122e0 <fp_mont_inv>
   10a30:	3cfd                	c.addiw	s9,-1
   10a32:	0b2c                	c.addi4spn	a1,sp,408
   10a34:	1390                	c.addi4spn	a2,sp,480
   10a36:	852e                	c.mv	a0,a1
   10a38:	27d070ef          	jal	ra,184b4 <fp_mont_add>
   10a3c:	fe0c96e3          	bne	s9,zero,10a28 <main+0x308>
   10a40:	c00027f3          	csrrs	a5,cycle,zero
   10a44:	41a787b3          	sub	a5,a5,s10
   10a48:	838d                	c.srli	a5,0x3
   10a4a:	03b7b7b3          	mulhu	a5,a5,s11
   10a4e:	8389                	c.srli	a5,0x2
   10a50:	00fc3023          	sd	a5,0(s8)
   10a54:	000a4783          	lbu	a5,0(s4)
   10a58:	0a05                	c.addi	s4,1
   10a5a:	8181c703          	lbu	a4,-2024(gp) # 1d060 <bench_sink>
   10a5e:	8fb9                	c.xor	a5,a4
   10a60:	80f18c23          	sb	a5,-2024(gp) # 1d060 <bench_sink>
   10a64:	ff2a18e3          	bne	s4,s2,10a54 <main+0x334>
   10a68:	0b3c                	c.addi4spn	a5,sp,408
   10a6a:	0007c703          	lbu	a4,0(a5)
   10a6e:	0785                	c.addi	a5,1
   10a70:	8181c683          	lbu	a3,-2024(gp) # 1d060 <bench_sink>
   10a74:	8f35                	c.xor	a4,a3
   10a76:	80e18c23          	sb	a4,-2024(gp) # 1d060 <bench_sink>
   10a7a:	fef998e3          	bne	s3,a5,10a6a <main+0x34a>
   10a7e:	0c21                	c.addi	s8,8
   10a80:	f78a9be3          	bne	s5,s8,109f6 <main+0x2d6>
   10a84:	85a2                	c.mv	a1,s0
   10a86:	656d                	c.lui	a0,0x1b
   10a88:	a1850513          	addi	a0,a0,-1512 # 1aa18 <SM2_GY_BYTES+0x100>
   10a8c:	000a8db7          	lui	s11,0xa8
   10a90:	1b1070ef          	jal	ra,18440 <print_stats.constprop.0>
   10a94:	c5bd8d93          	addi	s11,s11,-933 # a7c5b <__global_pointer$+0x8a413>
   10a98:	0b28                	c.addi4spn	a0,sp,408
   10a9a:	02000613          	addi	a2,zero,32
   10a9e:	45c5                	c.li	a1,17
   10aa0:	c71ff0ef          	jal	ra,10710 <memset@plt>
   10aa4:	13a8                	c.addi4spn	a0,sp,488
   10aa6:	4661                	c.li	a2,24
   10aa8:	0aa00593          	addi	a1,zero,170
   10aac:	c65ff0ef          	jal	ra,10710 <memset@plt>
   10ab0:	faaab7b7          	lui	a5,0xfaaab
   10ab4:	aab78793          	addi	a5,a5,-1365 # fffffffffaaaaaab <__BSS_END__+0xfffffffffa9fe2bb>
   10ab8:	07b2                	c.slli	a5,0xc
   10aba:	0db2                	c.slli	s11,0xc
   10abc:	aab78793          	addi	a5,a5,-1365
   10ac0:	0b2c                	c.addi4spn	a1,sp,408
   10ac2:	07b2                	c.slli	a5,0xc
   10ac4:	c47d8d93          	addi	s11,s11,-953
   10ac8:	aab78793          	addi	a5,a5,-1365
   10acc:	852e                	c.mv	a0,a1
   10ace:	07b2                	c.slli	a5,0xc
   10ad0:	0db6                	c.slli	s11,0xd
   10ad2:	aab78793          	addi	a5,a5,-1365
   10ad6:	369d8d93          	addi	s11,s11,873
   10ada:	f3be                	c.sdsp	a5,480(sp)
   10adc:	5e7080ef          	jal	ra,198c2 <fp_to_mont>
   10ae0:	138c                	c.addi4spn	a1,sp,480
   10ae2:	0dbe                	c.slli	s11,0xf
   10ae4:	852e                	c.mv	a0,a1
   10ae6:	6d61                	c.lui	s10,0x18
   10ae8:	8a22                	c.mv	s4,s0
   10aea:	6a0d0d13          	addi	s10,s10,1696 # 186a0 <fp_mont_neg+0x24>
   10aee:	843d8d93          	addi	s11,s11,-1981
   10af2:	5d1080ef          	jal	ra,198c2 <fp_to_mont>
   10af6:	0c800c13          	addi	s8,zero,200
   10afa:	0b2c                	c.addi4spn	a1,sp,408
   10afc:	1390                	c.addi4spn	a2,sp,480
   10afe:	852e                	c.mv	a0,a1
   10b00:	3c7d                	c.addiw	s8,-1
   10b02:	1b3070ef          	jal	ra,184b4 <fp_mont_add>
   10b06:	fe0c1ae3          	bne	s8,zero,10afa <main+0x3da>
   10b0a:	c0002c73          	csrrs	s8,cycle,zero
   10b0e:	4c81                	c.li	s9,0
   10b10:	a021                	c.j	10b18 <main+0x3f8>
   10b12:	2c85                	c.addiw	s9,1
   10b14:	03ac8863          	beq	s9,s10,10b44 <main+0x424>
   10b18:	0b2c                	c.addi4spn	a1,sp,408
   10b1a:	1390                	c.addi4spn	a2,sp,480
   10b1c:	852e                	c.mv	a0,a1
   10b1e:	197070ef          	jal	ra,184b4 <fp_mont_add>
   10b22:	07fcf793          	andi	a5,s9,127
   10b26:	f7f5                	c.bnez	a5,10b12 <main+0x3f2>
   10b28:	0b3c                	c.addi4spn	a5,sp,408
   10b2a:	0007c703          	lbu	a4,0(a5)
   10b2e:	0785                	c.addi	a5,1
   10b30:	8181c683          	lbu	a3,-2024(gp) # 1d060 <bench_sink>
   10b34:	8f35                	c.xor	a4,a3
   10b36:	80e18c23          	sb	a4,-2024(gp) # 1d060 <bench_sink>
   10b3a:	fef998e3          	bne	s3,a5,10b2a <main+0x40a>
   10b3e:	2c85                	c.addiw	s9,1
   10b40:	fdac9ce3          	bne	s9,s10,10b18 <main+0x3f8>
   10b44:	c0002773          	csrrs	a4,cycle,zero
   10b48:	41870733          	sub	a4,a4,s8
   10b4c:	0b3c                	c.addi4spn	a5,sp,408
   10b4e:	8315                	c.srli	a4,0x5
   10b50:	03b73733          	mulhu	a4,a4,s11
   10b54:	831d                	c.srli	a4,0x7
   10b56:	00ea3023          	sd	a4,0(s4)
   10b5a:	0007c703          	lbu	a4,0(a5)
   10b5e:	0785                	c.addi	a5,1
   10b60:	8181c683          	lbu	a3,-2024(gp) # 1d060 <bench_sink>
   10b64:	8f35                	c.xor	a4,a3
   10b66:	80e18c23          	sb	a4,-2024(gp) # 1d060 <bench_sink>
   10b6a:	fef998e3          	bne	s3,a5,10b5a <main+0x43a>
   10b6e:	0a21                	c.addi	s4,8
   10b70:	f94a93e3          	bne	s5,s4,10af6 <main+0x3d6>
   10b74:	85a2                	c.mv	a1,s0
   10b76:	656d                	c.lui	a0,0x1b
   10b78:	a2850513          	addi	a0,a0,-1496 # 1aa28 <SM2_GY_BYTES+0x110>
   10b7c:	000a8db7          	lui	s11,0xa8
   10b80:	0c1070ef          	jal	ra,18440 <print_stats.constprop.0>
   10b84:	c5bd8d93          	addi	s11,s11,-933 # a7c5b <__global_pointer$+0x8a413>
   10b88:	0b28                	c.addi4spn	a0,sp,408
   10b8a:	02000613          	addi	a2,zero,32
   10b8e:	05500593          	addi	a1,zero,85
   10b92:	b7fff0ef          	jal	ra,10710 <memset@plt>
   10b96:	13a8                	c.addi4spn	a0,sp,488
   10b98:	4661                	c.li	a2,24
   10b9a:	02200593          	addi	a1,zero,34
   10b9e:	b73ff0ef          	jal	ra,10710 <memset@plt>
   10ba2:	011117b7          	lui	a5,0x1111
   10ba6:	11178793          	addi	a5,a5,273 # 1111111 <__BSS_END__+0x1064921>
   10baa:	07b2                	c.slli	a5,0xc
   10bac:	0db2                	c.slli	s11,0xc
   10bae:	11178793          	addi	a5,a5,273
   10bb2:	0b2c                	c.addi4spn	a1,sp,408
   10bb4:	07b2                	c.slli	a5,0xc
   10bb6:	c47d8d93          	addi	s11,s11,-953
   10bba:	11178793          	addi	a5,a5,273
   10bbe:	852e                	c.mv	a0,a1
   10bc0:	07b6                	c.slli	a5,0xd
   10bc2:	0db6                	c.slli	s11,0xd
   10bc4:	22378793          	addi	a5,a5,547
   10bc8:	369d8d93          	addi	s11,s11,873
   10bcc:	f3be                	c.sdsp	a5,480(sp)
   10bce:	4f5080ef          	jal	ra,198c2 <fp_to_mont>
   10bd2:	138c                	c.addi4spn	a1,sp,480
   10bd4:	0dbe                	c.slli	s11,0xf
   10bd6:	852e                	c.mv	a0,a1
   10bd8:	6d61                	c.lui	s10,0x18
   10bda:	8a22                	c.mv	s4,s0
   10bdc:	6a0d0d13          	addi	s10,s10,1696 # 186a0 <fp_mont_neg+0x24>
   10be0:	843d8d93          	addi	s11,s11,-1981
   10be4:	4df080ef          	jal	ra,198c2 <fp_to_mont>
   10be8:	0c800c13          	addi	s8,zero,200
   10bec:	0b2c                	c.addi4spn	a1,sp,408
   10bee:	1390                	c.addi4spn	a2,sp,480
   10bf0:	852e                	c.mv	a0,a1
   10bf2:	3c7d                	c.addiw	s8,-1
   10bf4:	1c5070ef          	jal	ra,185b8 <fp_mont_sub>
   10bf8:	fe0c1ae3          	bne	s8,zero,10bec <main+0x4cc>
   10bfc:	c0002c73          	csrrs	s8,cycle,zero
   10c00:	4c81                	c.li	s9,0
   10c02:	a021                	c.j	10c0a <main+0x4ea>
   10c04:	2c85                	c.addiw	s9,1
   10c06:	03ac8863          	beq	s9,s10,10c36 <main+0x516>
   10c0a:	0b2c                	c.addi4spn	a1,sp,408
   10c0c:	1390                	c.addi4spn	a2,sp,480
   10c0e:	852e                	c.mv	a0,a1
   10c10:	1a9070ef          	jal	ra,185b8 <fp_mont_sub>
   10c14:	07fcf793          	andi	a5,s9,127
   10c18:	f7f5                	c.bnez	a5,10c04 <main+0x4e4>
   10c1a:	0b3c                	c.addi4spn	a5,sp,408
   10c1c:	0007c703          	lbu	a4,0(a5)
   10c20:	0785                	c.addi	a5,1
   10c22:	8181c683          	lbu	a3,-2024(gp) # 1d060 <bench_sink>
   10c26:	8f35                	c.xor	a4,a3
   10c28:	80e18c23          	sb	a4,-2024(gp) # 1d060 <bench_sink>
   10c2c:	fef998e3          	bne	s3,a5,10c1c <main+0x4fc>
   10c30:	2c85                	c.addiw	s9,1
   10c32:	fdac9ce3          	bne	s9,s10,10c0a <main+0x4ea>
   10c36:	c0002773          	csrrs	a4,cycle,zero
   10c3a:	41870733          	sub	a4,a4,s8
   10c3e:	0b3c                	c.addi4spn	a5,sp,408
   10c40:	8315                	c.srli	a4,0x5
   10c42:	03b73733          	mulhu	a4,a4,s11
   10c46:	831d                	c.srli	a4,0x7
   10c48:	00ea3023          	sd	a4,0(s4)
   10c4c:	0007c703          	lbu	a4,0(a5)
   10c50:	0785                	c.addi	a5,1
   10c52:	8181c683          	lbu	a3,-2024(gp) # 1d060 <bench_sink>
   10c56:	8f35                	c.xor	a4,a3
   10c58:	80e18c23          	sb	a4,-2024(gp) # 1d060 <bench_sink>
   10c5c:	ff3798e3          	bne	a5,s3,10c4c <main+0x52c>
   10c60:	0a21                	c.addi	s4,8
   10c62:	f94a93e3          	bne	s5,s4,10be8 <main+0x4c8>
   10c66:	000a8d37          	lui	s10,0xa8
   10c6a:	c5bd0d13          	addi	s10,s10,-933 # a7c5b <__global_pointer$+0x8a413>
   10c6e:	0d32                	c.slli	s10,0xc
   10c70:	85a2                	c.mv	a1,s0
   10c72:	c47d0d13          	addi	s10,s10,-953
   10c76:	656d                	c.lui	a0,0x1b
   10c78:	0d36                	c.slli	s10,0xd
   10c7a:	a3850513          	addi	a0,a0,-1480 # 1aa38 <SM2_GY_BYTES+0x120>
   10c7e:	369d0d13          	addi	s10,s10,873
   10c82:	7be070ef          	jal	ra,18440 <print_stats.constprop.0>
   10c86:	0d3e                	c.slli	s10,0xf
   10c88:	0b28                	c.addi4spn	a0,sp,408
   10c8a:	6ce1                	c.lui	s9,0x18
   10c8c:	89a2                	c.mv	s3,s0
   10c8e:	6a0c8c93          	addi	s9,s9,1696 # 186a0 <fp_mont_neg+0x24>
   10c92:	843d0d13          	addi	s10,s10,-1981
   10c96:	02000613          	addi	a2,zero,32
   10c9a:	03300593          	addi	a1,zero,51
   10c9e:	a73ff0ef          	jal	ra,10710 <memset@plt>
   10ca2:	0c800a13          	addi	s4,zero,200
   10ca6:	0b2c                	c.addi4spn	a1,sp,408
   10ca8:	1388                	c.addi4spn	a0,sp,480
   10caa:	3a7d                	c.addiw	s4,-1
   10cac:	417080ef          	jal	ra,198c2 <fp_to_mont>
   10cb0:	fe0a1be3          	bne	s4,zero,10ca6 <main+0x586>
   10cb4:	c0002a73          	csrrs	s4,cycle,zero
   10cb8:	4c01                	c.li	s8,0
   10cba:	a021                	c.j	10cc2 <main+0x5a2>
   10cbc:	2c05                	c.addiw	s8,1
   10cbe:	039c0763          	beq	s8,s9,10cec <main+0x5cc>
   10cc2:	0b2c                	c.addi4spn	a1,sp,408
   10cc4:	1388                	c.addi4spn	a0,sp,480
   10cc6:	3fd080ef          	jal	ra,198c2 <fp_to_mont>
   10cca:	07fc7793          	andi	a5,s8,127
   10cce:	f7fd                	c.bnez	a5,10cbc <main+0x59c>
   10cd0:	139c                	c.addi4spn	a5,sp,480
   10cd2:	0007c703          	lbu	a4,0(a5)
   10cd6:	0785                	c.addi	a5,1
   10cd8:	8181c683          	lbu	a3,-2024(gp) # 1d060 <bench_sink>
   10cdc:	8f35                	c.xor	a4,a3
   10cde:	80e18c23          	sb	a4,-2024(gp) # 1d060 <bench_sink>
   10ce2:	ff2798e3          	bne	a5,s2,10cd2 <main+0x5b2>
   10ce6:	2c05                	c.addiw	s8,1
   10ce8:	fd9c1de3          	bne	s8,s9,10cc2 <main+0x5a2>
   10cec:	c0002773          	csrrs	a4,cycle,zero
   10cf0:	41470733          	sub	a4,a4,s4
   10cf4:	139c                	c.addi4spn	a5,sp,480
   10cf6:	8315                	c.srli	a4,0x5
   10cf8:	03a73733          	mulhu	a4,a4,s10
   10cfc:	831d                	c.srli	a4,0x7
   10cfe:	00e9b023          	sd	a4,0(s3)
   10d02:	0007c703          	lbu	a4,0(a5)
   10d06:	0785                	c.addi	a5,1
   10d08:	8181c683          	lbu	a3,-2024(gp) # 1d060 <bench_sink>
   10d0c:	8f35                	c.xor	a4,a3
   10d0e:	80e18c23          	sb	a4,-2024(gp) # 1d060 <bench_sink>
   10d12:	ff2798e3          	bne	a5,s2,10d02 <main+0x5e2>
   10d16:	09a1                	c.addi	s3,8
   10d18:	f93a95e3          	bne	s5,s3,10ca2 <main+0x582>
   10d1c:	000a8d37          	lui	s10,0xa8
   10d20:	c5bd0d13          	addi	s10,s10,-933 # a7c5b <__global_pointer$+0x8a413>
   10d24:	85a2                	c.mv	a1,s0
   10d26:	0d32                	c.slli	s10,0xc
   10d28:	656d                	c.lui	a0,0x1b
   10d2a:	a4850513          	addi	a0,a0,-1464 # 1aa48 <SM2_GY_BYTES+0x130>
   10d2e:	712070ef          	jal	ra,18440 <print_stats.constprop.0>
   10d32:	c47d0d13          	addi	s10,s10,-953
   10d36:	0b28                	c.addi4spn	a0,sp,408
   10d38:	0d36                	c.slli	s10,0xd
   10d3a:	02000613          	addi	a2,zero,32
   10d3e:	07700593          	addi	a1,zero,119
   10d42:	369d0d13          	addi	s10,s10,873
   10d46:	9cbff0ef          	jal	ra,10710 <memset@plt>
   10d4a:	0b2c                	c.addi4spn	a1,sp,408
   10d4c:	0d3e                	c.slli	s10,0xf
   10d4e:	852e                	c.mv	a0,a1
   10d50:	6ce1                	c.lui	s9,0x18
   10d52:	89a2                	c.mv	s3,s0
   10d54:	6a0c8c93          	addi	s9,s9,1696 # 186a0 <fp_mont_neg+0x24>
   10d58:	843d0d13          	addi	s10,s10,-1981
   10d5c:	367080ef          	jal	ra,198c2 <fp_to_mont>
   10d60:	0c800a13          	addi	s4,zero,200
   10d64:	0b2c                	c.addi4spn	a1,sp,408
   10d66:	1388                	c.addi4spn	a0,sp,480
   10d68:	3a7d                	c.addiw	s4,-1
   10d6a:	6ae080ef          	jal	ra,19418 <fp_from_mont>
   10d6e:	fe0a1be3          	bne	s4,zero,10d64 <main+0x644>
   10d72:	c0002a73          	csrrs	s4,cycle,zero
   10d76:	4c01                	c.li	s8,0
   10d78:	a021                	c.j	10d80 <main+0x660>
   10d7a:	2c05                	c.addiw	s8,1
   10d7c:	039c0763          	beq	s8,s9,10daa <main+0x68a>
   10d80:	0b2c                	c.addi4spn	a1,sp,408
   10d82:	1388                	c.addi4spn	a0,sp,480
   10d84:	694080ef          	jal	ra,19418 <fp_from_mont>
   10d88:	07fc7793          	andi	a5,s8,127
   10d8c:	f7fd                	c.bnez	a5,10d7a <main+0x65a>
   10d8e:	139c                	c.addi4spn	a5,sp,480
   10d90:	0007c703          	lbu	a4,0(a5)
   10d94:	0785                	c.addi	a5,1
   10d96:	8181c683          	lbu	a3,-2024(gp) # 1d060 <bench_sink>
   10d9a:	8f35                	c.xor	a4,a3
   10d9c:	80e18c23          	sb	a4,-2024(gp) # 1d060 <bench_sink>
   10da0:	fef918e3          	bne	s2,a5,10d90 <main+0x670>
   10da4:	2c05                	c.addiw	s8,1
   10da6:	fd9c1de3          	bne	s8,s9,10d80 <main+0x660>
   10daa:	c0002773          	csrrs	a4,cycle,zero
   10dae:	41470733          	sub	a4,a4,s4
   10db2:	139c                	c.addi4spn	a5,sp,480
   10db4:	8315                	c.srli	a4,0x5
   10db6:	03a73733          	mulhu	a4,a4,s10
   10dba:	831d                	c.srli	a4,0x7
   10dbc:	00e9b023          	sd	a4,0(s3)
   10dc0:	0007c703          	lbu	a4,0(a5)
   10dc4:	0785                	c.addi	a5,1
   10dc6:	8181c683          	lbu	a3,-2024(gp) # 1d060 <bench_sink>
   10dca:	8f35                	c.xor	a4,a3
   10dcc:	80e18c23          	sb	a4,-2024(gp) # 1d060 <bench_sink>
   10dd0:	fef918e3          	bne	s2,a5,10dc0 <main+0x6a0>
   10dd4:	09a1                	c.addi	s3,8
   10dd6:	f93a95e3          	bne	s5,s3,10d60 <main+0x640>
   10dda:	001a3d37          	lui	s10,0x1a3
   10dde:	6e3d0d13          	addi	s10,s10,1763 # 1a36e3 <__BSS_END__+0xf6ef3>
   10de2:	0d3a                	c.slli	s10,0xe
   10de4:	85a2                	c.mv	a1,s0
   10de6:	ac7d0d13          	addi	s10,s10,-1337
   10dea:	656d                	c.lui	a0,0x1b
   10dec:	a5850513          	addi	a0,a0,-1448 # 1aa58 <SM2_GY_BYTES+0x140>
   10df0:	0d3a                	c.slli	s10,0xe
   10df2:	64e070ef          	jal	ra,18440 <print_stats.constprop.0>
   10df6:	433d0d13          	addi	s10,s10,1075
   10dfa:	0a88                	c.addi4spn	a0,sp,336
   10dfc:	02000613          	addi	a2,zero,32
   10e00:	02100593          	addi	a1,zero,33
   10e04:	0d36                	c.slli	s10,0xd
   10e06:	90bff0ef          	jal	ra,10710 <memset@plt>
   10e0a:	6c95                	c.lui	s9,0x5
   10e0c:	0b28                	c.addi4spn	a0,sp,408
   10e0e:	89a2                	c.mv	s3,s0
   10e10:	e20c8c93          	addi	s9,s9,-480 # 4e20 <__abi_tag-0xb498>
   10e14:	94bd0d13          	addi	s10,s10,-1717
   10e18:	02000613          	addi	a2,zero,32
   10e1c:	04300593          	addi	a1,zero,67
   10e20:	8f1ff0ef          	jal	ra,10710 <memset@plt>
   10e24:	06400a13          	addi	s4,zero,100
   10e28:	0b30                	c.addi4spn	a2,sp,408
   10e2a:	0a8c                	c.addi4spn	a1,sp,336
   10e2c:	1388                	c.addi4spn	a0,sp,480
   10e2e:	3a7d                	c.addiw	s4,-1
   10e30:	348090ef          	jal	ra,1a178 <fn_mont_mul_ct>
   10e34:	779e                	c.ldsp	a5,480(sp)
   10e36:	eabe                	c.sdsp	a5,336(sp)
   10e38:	77be                	c.ldsp	a5,488(sp)
   10e3a:	eebe                	c.sdsp	a5,344(sp)
   10e3c:	77de                	c.ldsp	a5,496(sp)
   10e3e:	f2be                	c.sdsp	a5,352(sp)
   10e40:	77fe                	c.ldsp	a5,504(sp)
   10e42:	f6be                	c.sdsp	a5,360(sp)
   10e44:	fe0a12e3          	bne	s4,zero,10e28 <main+0x708>
   10e48:	c0002a73          	csrrs	s4,cycle,zero
   10e4c:	4c01                	c.li	s8,0
   10e4e:	a021                	c.j	10e56 <main+0x736>
   10e50:	2c05                	c.addiw	s8,1
   10e52:	059c0063          	beq	s8,s9,10e92 <main+0x772>
   10e56:	0b30                	c.addi4spn	a2,sp,408
   10e58:	0a8c                	c.addi4spn	a1,sp,336
   10e5a:	1388                	c.addi4spn	a0,sp,480
   10e5c:	31c090ef          	jal	ra,1a178 <fn_mont_mul_ct>
   10e60:	771e                	c.ldsp	a4,480(sp)
   10e62:	0ffc7793          	andi	a5,s8,255
   10e66:	eaba                	c.sdsp	a4,336(sp)
   10e68:	773e                	c.ldsp	a4,488(sp)
   10e6a:	eeba                	c.sdsp	a4,344(sp)
   10e6c:	775e                	c.ldsp	a4,496(sp)
   10e6e:	f2ba                	c.sdsp	a4,352(sp)
   10e70:	777e                	c.ldsp	a4,504(sp)
   10e72:	f6ba                	c.sdsp	a4,360(sp)
   10e74:	fff1                	c.bnez	a5,10e50 <main+0x730>
   10e76:	139c                	c.addi4spn	a5,sp,480
   10e78:	0007c703          	lbu	a4,0(a5)
   10e7c:	0785                	c.addi	a5,1
   10e7e:	8181c683          	lbu	a3,-2024(gp) # 1d060 <bench_sink>
   10e82:	8f35                	c.xor	a4,a3
   10e84:	80e18c23          	sb	a4,-2024(gp) # 1d060 <bench_sink>
   10e88:	fef918e3          	bne	s2,a5,10e78 <main+0x758>
   10e8c:	2c05                	c.addiw	s8,1
   10e8e:	fd9c14e3          	bne	s8,s9,10e56 <main+0x736>
   10e92:	c0002773          	csrrs	a4,cycle,zero
   10e96:	41470733          	sub	a4,a4,s4
   10e9a:	139c                	c.addi4spn	a5,sp,480
   10e9c:	03a73733          	mulhu	a4,a4,s10
   10ea0:	8331                	c.srli	a4,0xc
   10ea2:	00e9b023          	sd	a4,0(s3)
   10ea6:	0007c703          	lbu	a4,0(a5)
   10eaa:	0785                	c.addi	a5,1
   10eac:	8181c683          	lbu	a3,-2024(gp) # 1d060 <bench_sink>
   10eb0:	8f35                	c.xor	a4,a3
   10eb2:	80e18c23          	sb	a4,-2024(gp) # 1d060 <bench_sink>
   10eb6:	fef918e3          	bne	s2,a5,10ea6 <main+0x786>
   10eba:	09a1                	c.addi	s3,8
   10ebc:	f73a94e3          	bne	s5,s3,10e24 <main+0x704>
   10ec0:	001a3d37          	lui	s10,0x1a3
   10ec4:	6e3d0d13          	addi	s10,s10,1763 # 1a36e3 <__BSS_END__+0xf6ef3>
   10ec8:	0d3a                	c.slli	s10,0xe
   10eca:	85a2                	c.mv	a1,s0
   10ecc:	ac7d0d13          	addi	s10,s10,-1337
   10ed0:	656d                	c.lui	a0,0x1b
   10ed2:	a6850513          	addi	a0,a0,-1432 # 1aa68 <SM2_GY_BYTES+0x150>
   10ed6:	0d3a                	c.slli	s10,0xe
   10ed8:	568070ef          	jal	ra,18440 <print_stats.constprop.0>
   10edc:	433d0d13          	addi	s10,s10,1075
   10ee0:	0a88                	c.addi4spn	a0,sp,336
   10ee2:	02000613          	addi	a2,zero,32
   10ee6:	02100593          	addi	a1,zero,33
   10eea:	0d36                	c.slli	s10,0xd
   10eec:	825ff0ef          	jal	ra,10710 <memset@plt>
   10ef0:	6c95                	c.lui	s9,0x5
   10ef2:	0b28                	c.addi4spn	a0,sp,408
   10ef4:	89a2                	c.mv	s3,s0
   10ef6:	e20c8c93          	addi	s9,s9,-480 # 4e20 <__abi_tag-0xb498>
   10efa:	94bd0d13          	addi	s10,s10,-1717
   10efe:	02000613          	addi	a2,zero,32
   10f02:	04300593          	addi	a1,zero,67
   10f06:	80bff0ef          	jal	ra,10710 <memset@plt>
   10f0a:	06400a13          	addi	s4,zero,100
   10f0e:	0b30                	c.addi4spn	a2,sp,408
   10f10:	0a8c                	c.addi4spn	a1,sp,336
   10f12:	1388                	c.addi4spn	a0,sp,480
   10f14:	3a7d                	c.addiw	s4,-1
   10f16:	44a060ef          	jal	ra,17360 <fn_mul>
   10f1a:	779e                	c.ldsp	a5,480(sp)
   10f1c:	eabe                	c.sdsp	a5,336(sp)
   10f1e:	77be                	c.ldsp	a5,488(sp)
   10f20:	eebe                	c.sdsp	a5,344(sp)
   10f22:	77de                	c.ldsp	a5,496(sp)
   10f24:	f2be                	c.sdsp	a5,352(sp)
   10f26:	77fe                	c.ldsp	a5,504(sp)
   10f28:	f6be                	c.sdsp	a5,360(sp)
   10f2a:	fe0a12e3          	bne	s4,zero,10f0e <main+0x7ee>
   10f2e:	c0002a73          	csrrs	s4,cycle,zero
   10f32:	4c01                	c.li	s8,0
   10f34:	a021                	c.j	10f3c <main+0x81c>
   10f36:	2c05                	c.addiw	s8,1
   10f38:	059c0063          	beq	s8,s9,10f78 <main+0x858>
   10f3c:	0b30                	c.addi4spn	a2,sp,408
   10f3e:	0a8c                	c.addi4spn	a1,sp,336
   10f40:	1388                	c.addi4spn	a0,sp,480
   10f42:	41e060ef          	jal	ra,17360 <fn_mul>
   10f46:	771e                	c.ldsp	a4,480(sp)
   10f48:	0ffc7793          	andi	a5,s8,255
   10f4c:	eaba                	c.sdsp	a4,336(sp)
   10f4e:	773e                	c.ldsp	a4,488(sp)
   10f50:	eeba                	c.sdsp	a4,344(sp)
   10f52:	775e                	c.ldsp	a4,496(sp)
   10f54:	f2ba                	c.sdsp	a4,352(sp)
   10f56:	777e                	c.ldsp	a4,504(sp)
   10f58:	f6ba                	c.sdsp	a4,360(sp)
   10f5a:	fff1                	c.bnez	a5,10f36 <main+0x816>
   10f5c:	139c                	c.addi4spn	a5,sp,480
   10f5e:	0007c703          	lbu	a4,0(a5)
   10f62:	0785                	c.addi	a5,1
   10f64:	8181c683          	lbu	a3,-2024(gp) # 1d060 <bench_sink>
   10f68:	8f35                	c.xor	a4,a3
   10f6a:	80e18c23          	sb	a4,-2024(gp) # 1d060 <bench_sink>
   10f6e:	fef918e3          	bne	s2,a5,10f5e <main+0x83e>
   10f72:	2c05                	c.addiw	s8,1
   10f74:	fd9c14e3          	bne	s8,s9,10f3c <main+0x81c>
   10f78:	c0002773          	csrrs	a4,cycle,zero
   10f7c:	41470733          	sub	a4,a4,s4
   10f80:	139c                	c.addi4spn	a5,sp,480
   10f82:	03a73733          	mulhu	a4,a4,s10
   10f86:	8331                	c.srli	a4,0xc
   10f88:	00e9b023          	sd	a4,0(s3)
   10f8c:	0007c703          	lbu	a4,0(a5)
   10f90:	0785                	c.addi	a5,1
   10f92:	8181c683          	lbu	a3,-2024(gp) # 1d060 <bench_sink>
   10f96:	8f35                	c.xor	a4,a3
   10f98:	80e18c23          	sb	a4,-2024(gp) # 1d060 <bench_sink>
   10f9c:	fef918e3          	bne	s2,a5,10f8c <main+0x86c>
   10fa0:	09a1                	c.addi	s3,8
   10fa2:	f73a94e3          	bne	s5,s3,10f0a <main+0x7ea>
   10fa6:	01062cb7          	lui	s9,0x1062
   10faa:	4ddc8c93          	addi	s9,s9,1245 # 10624dd <__BSS_END__+0xfb5ced>
   10fae:	0cb6                	c.slli	s9,0xd
   10fb0:	85a2                	c.mv	a1,s0
   10fb2:	5e3c8c93          	addi	s9,s9,1507
   10fb6:	656d                	c.lui	a0,0x1b
   10fb8:	0cb2                	c.slli	s9,0xc
   10fba:	a8050513          	addi	a0,a0,-1408 # 1aa80 <SM2_GY_BYTES+0x168>
   10fbe:	53fc8c93          	addi	s9,s9,1343
   10fc2:	47e070ef          	jal	ra,18440 <print_stats.constprop.0>
   10fc6:	0cb2                	c.slli	s9,0xc
   10fc8:	022c                	c.addi4spn	a1,sp,264
   10fca:	1388                	c.addi4spn	a0,sp,480
   10fcc:	19810913          	addi	s2,sp,408
   10fd0:	1c010993          	addi	s3,sp,448
   10fd4:	28810c13          	addi	s8,sp,648
   10fd8:	7cfc8c93          	addi	s9,s9,1999
   10fdc:	1a5010ef          	jal	ra,12980 <sm2_affine_to_mont>
   10fe0:	0001dd37          	lui	s10,0x1d
   10fe4:	050d3703          	ld	a4,80(s10) # 1d050 <g_state>
   10fe8:	0fac                	c.addi4spn	a1,sp,984
   10fea:	0a88                	c.addi4spn	a0,sp,336
   10fec:	00d71793          	slli	a5,a4,0xd
   10ff0:	8fb9                	c.xor	a5,a4
   10ff2:	0077d713          	srli	a4,a5,0x7
   10ff6:	8fb9                	c.xor	a5,a4
   10ff8:	01179713          	slli	a4,a5,0x11
   10ffc:	8fb9                	c.xor	a5,a4
   10ffe:	00d79693          	slli	a3,a5,0xd
   11002:	6b87d713          	rev8	a4,a5
   11006:	8fb5                	c.xor	a5,a3
   11008:	3ce13c23          	sd	a4,984(sp)
   1100c:	0077d713          	srli	a4,a5,0x7
   11010:	8fb9                	c.xor	a5,a4
   11012:	01179713          	slli	a4,a5,0x11
   11016:	8fb9                	c.xor	a5,a4
   11018:	00d79693          	slli	a3,a5,0xd
   1101c:	6b87d713          	rev8	a4,a5
   11020:	8fb5                	c.xor	a5,a3
   11022:	3ee13023          	sd	a4,992(sp)
   11026:	0077d713          	srli	a4,a5,0x7
   1102a:	8fb9                	c.xor	a5,a4
   1102c:	01179713          	slli	a4,a5,0x11
   11030:	8fb9                	c.xor	a5,a4
   11032:	00d79713          	slli	a4,a5,0xd
   11036:	6b87d693          	rev8	a3,a5
   1103a:	8fb9                	c.xor	a5,a4
   1103c:	3ed13423          	sd	a3,1000(sp)
   11040:	0077d713          	srli	a4,a5,0x7
   11044:	8fb9                	c.xor	a5,a4
   11046:	01179713          	slli	a4,a5,0x11
   1104a:	8fb9                	c.xor	a5,a4
   1104c:	6b87d713          	rev8	a4,a5
   11050:	04fd3823          	sd	a5,80(s10)
   11054:	3ee13823          	sd	a4,1008(sp)
   11058:	5c9050ef          	jal	ra,16e20 <fn_from_be>
   1105c:	0a8c                	c.addi4spn	a1,sp,336
   1105e:	1f28                	c.addi4spn	a0,sp,952
   11060:	000060ef          	jal	ra,17060 <fn_to_be>
   11064:	1f3c                	c.addi4spn	a5,sp,952
   11066:	0007c703          	lbu	a4,0(a5)
   1106a:	0785                	c.addi	a5,1
   1106c:	8181c683          	lbu	a3,-2024(gp) # 1d060 <bench_sink>
   11070:	8f35                	c.xor	a4,a3
   11072:	80e18c23          	sb	a4,-2024(gp) # 1d060 <bench_sink>
   11076:	0fb8                	c.addi4spn	a4,sp,984
   11078:	fef717e3          	bne	a4,a5,11066 <main+0x946>
   1107c:	3c013783          	ld	a5,960(sp)
   11080:	3b813703          	ld	a4,952(sp)
   11084:	8f5d                	c.or	a4,a5
   11086:	3c813783          	ld	a5,968(sp)
   1108a:	8f5d                	c.or	a4,a5
   1108c:	3d013783          	ld	a5,976(sp)
   11090:	8f5d                	c.or	a4,a5
   11092:	00875793          	srli	a5,a4,0x8
   11096:	01075693          	srli	a3,a4,0x10
   1109a:	8fd9                	c.or	a5,a4
   1109c:	01875613          	srli	a2,a4,0x18
   110a0:	8fd5                	c.or	a5,a3
   110a2:	02075693          	srli	a3,a4,0x20
   110a6:	8fd1                	c.or	a5,a2
   110a8:	02875613          	srli	a2,a4,0x28
   110ac:	8fd5                	c.or	a5,a3
   110ae:	03075693          	srli	a3,a4,0x30
   110b2:	8fd1                	c.or	a5,a2
   110b4:	9361                	c.srli	a4,0x38
   110b6:	8fd5                	c.or	a5,a3
   110b8:	8fd9                	c.or	a5,a4
   110ba:	0ff7f793          	andi	a5,a5,255
   110be:	d39d                	c.beqz	a5,10fe4 <main+0x8c4>
   110c0:	4a29                	c.li	s4,10
   110c2:	1f30                	c.addi4spn	a2,sp,952
   110c4:	138c                	c.addi4spn	a1,sp,480
   110c6:	8522                	c.mv	a0,s0
   110c8:	3a7d                	c.addiw	s4,-1
   110ca:	677030ef          	jal	ra,14f40 <sm2_scalar_mul_window_ct_schemeB_mont_affine_to_jacobian_mont>
   110ce:	fe0a1ae3          	bne	s4,zero,110c2 <main+0x9a2>
   110d2:	c0002a73          	csrrs	s4,cycle,zero
   110d6:	3e800a93          	addi	s5,zero,1000
   110da:	1f30                	c.addi4spn	a2,sp,952
   110dc:	138c                	c.addi4spn	a1,sp,480
   110de:	8522                	c.mv	a0,s0
   110e0:	661030ef          	jal	ra,14f40 <sm2_scalar_mul_window_ct_schemeB_mont_affine_to_jacobian_mont>
   110e4:	87a2                	c.mv	a5,s0
   110e6:	0007c703          	lbu	a4,0(a5)
   110ea:	0785                	c.addi	a5,1
   110ec:	8181c683          	lbu	a3,-2024(gp) # 1d060 <bench_sink>
   110f0:	8f35                	c.xor	a4,a3
   110f2:	80e18c23          	sb	a4,-2024(gp) # 1d060 <bench_sink>
   110f6:	fefc18e3          	bne	s8,a5,110e6 <main+0x9c6>
   110fa:	3afd                	c.addiw	s5,-1
   110fc:	fc0a9fe3          	bne	s5,zero,110da <main+0x9ba>
   11100:	c00027f3          	csrrs	a5,cycle,zero
   11104:	414787b3          	sub	a5,a5,s4
   11108:	0921                	c.addi	s2,8
   1110a:	838d                	c.srli	a5,0x3
   1110c:	0397b7b3          	mulhu	a5,a5,s9
   11110:	8391                	c.srli	a5,0x4
   11112:	fef93c23          	sd	a5,-8(s2)
   11116:	ed2997e3          	bne	s3,s2,10fe4 <main+0x8c4>
   1111a:	0b2c                	c.addi4spn	a1,sp,408
   1111c:	656d                	c.lui	a0,0x1b
   1111e:	a9850513          	addi	a0,a0,-1384 # 1aa98 <SM2_GY_BYTES+0x180>
   11122:	31810913          	addi	s2,sp,792
   11126:	31a070ef          	jal	ra,18440 <print_stats.constprop.0>
   1112a:	29010a93          	addi	s5,sp,656
   1112e:	0051f737          	lui	a4,0x51f
   11132:	b8570713          	addi	a4,a4,-1147 # 51eb85 <__BSS_END__+0x472395>
   11136:	0736                	c.slli	a4,0xd
   11138:	119c                	c.addi4spn	a5,sp,224
   1113a:	3d770713          	addi	a4,a4,983
   1113e:	e4be                	c.sdsp	a5,72(sp)
   11140:	073a                	c.slli	a4,0xe
   11142:	193c                	c.addi4spn	a5,sp,184
   11144:	28f70713          	addi	a4,a4,655
   11148:	ecbe                	c.sdsp	a5,88(sp)
   1114a:	0732                	c.slli	a4,0xc
   1114c:	091c                	c.addi4spn	a5,sp,144
   1114e:	5c370713          	addi	a4,a4,1475
   11152:	e8be                	c.sdsp	a5,80(sp)
   11154:	35810993          	addi	s3,sp,856
   11158:	33810c93          	addi	s9,sp,824
   1115c:	f0ba                	c.sdsp	a4,96(sp)
   1115e:	4a15                	c.li	s4,5
   11160:	050d3703          	ld	a4,80(s10)
   11164:	0fac                	c.addi4spn	a1,sp,984
   11166:	1888                	c.addi4spn	a0,sp,112
   11168:	00d71793          	slli	a5,a4,0xd
   1116c:	8fb9                	c.xor	a5,a4
   1116e:	0077d713          	srli	a4,a5,0x7
   11172:	8fb9                	c.xor	a5,a4
   11174:	01179713          	slli	a4,a5,0x11
   11178:	8fb9                	c.xor	a5,a4
   1117a:	00d79693          	slli	a3,a5,0xd
   1117e:	6b87d713          	rev8	a4,a5
   11182:	8fb5                	c.xor	a5,a3
   11184:	3ce13c23          	sd	a4,984(sp)
   11188:	0077d713          	srli	a4,a5,0x7
   1118c:	8fb9                	c.xor	a5,a4
   1118e:	01179713          	slli	a4,a5,0x11
   11192:	8fb9                	c.xor	a5,a4
   11194:	00d79693          	slli	a3,a5,0xd
   11198:	6b87d713          	rev8	a4,a5
   1119c:	8fb5                	c.xor	a5,a3
   1119e:	3ee13023          	sd	a4,992(sp)
   111a2:	0077d713          	srli	a4,a5,0x7
   111a6:	8fb9                	c.xor	a5,a4
   111a8:	01179713          	slli	a4,a5,0x11
   111ac:	8fb9                	c.xor	a5,a4
   111ae:	00d79713          	slli	a4,a5,0xd
   111b2:	6b87d693          	rev8	a3,a5
   111b6:	8fb9                	c.xor	a5,a4
   111b8:	3ed13423          	sd	a3,1000(sp)
   111bc:	0077d713          	srli	a4,a5,0x7
   111c0:	8fb9                	c.xor	a5,a4
   111c2:	01179713          	slli	a4,a5,0x11
   111c6:	8fb9                	c.xor	a5,a4
   111c8:	6b87d713          	rev8	a4,a5
   111cc:	04fd3823          	sd	a5,80(s10)
   111d0:	3ee13823          	sd	a4,1008(sp)
   111d4:	44d050ef          	jal	ra,16e20 <fn_from_be>
   111d8:	188c                	c.addi4spn	a1,sp,112
   111da:	0d28                	c.addi4spn	a0,sp,664
   111dc:	685050ef          	jal	ra,17060 <fn_to_be>
   111e0:	0d3c                	c.addi4spn	a5,sp,664
   111e2:	0007c703          	lbu	a4,0(a5)
   111e6:	0785                	c.addi	a5,1
   111e8:	8181c683          	lbu	a3,-2024(gp) # 1d060 <bench_sink>
   111ec:	8f35                	c.xor	a4,a3
   111ee:	80e18c23          	sb	a4,-2024(gp) # 1d060 <bench_sink>
   111f2:	1d38                	c.addi4spn	a4,sp,696
   111f4:	fef717e3          	bne	a4,a5,111e2 <main+0xac2>
   111f8:	29813783          	ld	a5,664(sp)
   111fc:	2a013703          	ld	a4,672(sp)
   11200:	8f5d                	c.or	a4,a5
   11202:	2a813783          	ld	a5,680(sp)
   11206:	8f5d                	c.or	a4,a5
   11208:	2b013783          	ld	a5,688(sp)
   1120c:	8f5d                	c.or	a4,a5
   1120e:	00875793          	srli	a5,a4,0x8
   11212:	01075693          	srli	a3,a4,0x10
   11216:	8fd9                	c.or	a5,a4
   11218:	01875613          	srli	a2,a4,0x18
   1121c:	8fd5                	c.or	a5,a3
   1121e:	02075693          	srli	a3,a4,0x20
   11222:	8fd1                	c.or	a5,a2
   11224:	02875613          	srli	a2,a4,0x28
   11228:	8fd5                	c.or	a5,a3
   1122a:	03075693          	srli	a3,a4,0x30
   1122e:	8fd1                	c.or	a5,a2
   11230:	9361                	c.srli	a4,0x38
   11232:	8fd5                	c.or	a5,a3
   11234:	8fd9                	c.or	a5,a4
   11236:	0ff7f793          	andi	a5,a5,255
   1123a:	d39d                	c.beqz	a5,11160 <main+0xa40>
   1123c:	050d3703          	ld	a4,80(s10)
   11240:	0fac                	c.addi4spn	a1,sp,984
   11242:	1888                	c.addi4spn	a0,sp,112
   11244:	00d71793          	slli	a5,a4,0xd
   11248:	8fb9                	c.xor	a5,a4
   1124a:	0077d713          	srli	a4,a5,0x7
   1124e:	8fb9                	c.xor	a5,a4
   11250:	01179713          	slli	a4,a5,0x11
   11254:	8fb9                	c.xor	a5,a4
   11256:	00d79693          	slli	a3,a5,0xd
   1125a:	6b87d713          	rev8	a4,a5
   1125e:	8fb5                	c.xor	a5,a3
   11260:	3ce13c23          	sd	a4,984(sp)
   11264:	0077d713          	srli	a4,a5,0x7
   11268:	8fb9                	c.xor	a5,a4
   1126a:	01179713          	slli	a4,a5,0x11
   1126e:	8fb9                	c.xor	a5,a4
   11270:	00d79693          	slli	a3,a5,0xd
   11274:	6b87d713          	rev8	a4,a5
   11278:	8fb5                	c.xor	a5,a3
   1127a:	3ee13023          	sd	a4,992(sp)
   1127e:	0077d713          	srli	a4,a5,0x7
   11282:	8fb9                	c.xor	a5,a4
   11284:	01179713          	slli	a4,a5,0x11
   11288:	8fb9                	c.xor	a5,a4
   1128a:	00d79713          	slli	a4,a5,0xd
   1128e:	6b87d693          	rev8	a3,a5
   11292:	8fb9                	c.xor	a5,a4
   11294:	3ed13423          	sd	a3,1000(sp)
   11298:	0077d713          	srli	a4,a5,0x7
   1129c:	8fb9                	c.xor	a5,a4
   1129e:	01179713          	slli	a4,a5,0x11
   112a2:	8fb9                	c.xor	a5,a4
   112a4:	6b87d713          	rev8	a4,a5
   112a8:	04fd3823          	sd	a5,80(s10)
   112ac:	3ee13823          	sd	a4,1008(sp)
   112b0:	371050ef          	jal	ra,16e20 <fn_from_be>
   112b4:	188c                	c.addi4spn	a1,sp,112
   112b6:	1d28                	c.addi4spn	a0,sp,696
   112b8:	5a9050ef          	jal	ra,17060 <fn_to_be>
   112bc:	1d3c                	c.addi4spn	a5,sp,696
   112be:	0007c703          	lbu	a4,0(a5)
   112c2:	0785                	c.addi	a5,1
   112c4:	8181c683          	lbu	a3,-2024(gp) # 1d060 <bench_sink>
   112c8:	8f35                	c.xor	a4,a3
   112ca:	80e18c23          	sb	a4,-2024(gp) # 1d060 <bench_sink>
   112ce:	fef498e3          	bne	s1,a5,112be <main+0xb9e>
   112d2:	2b813783          	ld	a5,696(sp)
   112d6:	2c013703          	ld	a4,704(sp)
   112da:	8f5d                	c.or	a4,a5
   112dc:	2c813783          	ld	a5,712(sp)
   112e0:	8f5d                	c.or	a4,a5
   112e2:	2d013783          	ld	a5,720(sp)
   112e6:	8f5d                	c.or	a4,a5
   112e8:	00875793          	srli	a5,a4,0x8
   112ec:	01075693          	srli	a3,a4,0x10
   112f0:	8fd9                	c.or	a5,a4
   112f2:	01875613          	srli	a2,a4,0x18
   112f6:	8fd5                	c.or	a5,a3
   112f8:	02075693          	srli	a3,a4,0x20
   112fc:	8fd1                	c.or	a5,a2
   112fe:	02875613          	srli	a2,a4,0x28
   11302:	8fd5                	c.or	a5,a3
   11304:	03075693          	srli	a3,a4,0x30
   11308:	8fd1                	c.or	a5,a2
   1130a:	9361                	c.srli	a4,0x38
   1130c:	8fd5                	c.or	a5,a3
   1130e:	8fd9                	c.or	a5,a4
   11310:	0ff7f793          	andi	a5,a5,255
   11314:	d785                	c.beqz	a5,1123c <main+0xb1c>
   11316:	050d3703          	ld	a4,80(s10)
   1131a:	0fac                	c.addi4spn	a1,sp,984
   1131c:	1888                	c.addi4spn	a0,sp,112
   1131e:	00d71793          	slli	a5,a4,0xd
   11322:	8fb9                	c.xor	a5,a4
   11324:	0077d713          	srli	a4,a5,0x7
   11328:	8fb9                	c.xor	a5,a4
   1132a:	01179713          	slli	a4,a5,0x11
   1132e:	8fb9                	c.xor	a5,a4
   11330:	00d79693          	slli	a3,a5,0xd
   11334:	6b87d713          	rev8	a4,a5
   11338:	8fb5                	c.xor	a5,a3
   1133a:	3ce13c23          	sd	a4,984(sp)
   1133e:	0077d713          	srli	a4,a5,0x7
   11342:	8fb9                	c.xor	a5,a4
   11344:	01179713          	slli	a4,a5,0x11
   11348:	8fb9                	c.xor	a5,a4
   1134a:	00d79693          	slli	a3,a5,0xd
   1134e:	6b87d713          	rev8	a4,a5
   11352:	8fb5                	c.xor	a5,a3
   11354:	3ee13023          	sd	a4,992(sp)
   11358:	0077d713          	srli	a4,a5,0x7
   1135c:	8fb9                	c.xor	a5,a4
   1135e:	01179713          	slli	a4,a5,0x11
   11362:	8fb9                	c.xor	a5,a4
   11364:	00d79713          	slli	a4,a5,0xd
   11368:	6b87d693          	rev8	a3,a5
   1136c:	8fb9                	c.xor	a5,a4
   1136e:	3ed13423          	sd	a3,1000(sp)
   11372:	0077d713          	srli	a4,a5,0x7
   11376:	8fb9                	c.xor	a5,a4
   11378:	01179713          	slli	a4,a5,0x11
   1137c:	8fb9                	c.xor	a5,a4
   1137e:	6b87d713          	rev8	a4,a5
   11382:	04fd3823          	sd	a5,80(s10)
   11386:	3ee13823          	sd	a4,1008(sp)
   1138a:	297050ef          	jal	ra,16e20 <fn_from_be>
   1138e:	188c                	c.addi4spn	a1,sp,112
   11390:	8526                	c.mv	a0,s1
   11392:	4cf050ef          	jal	ra,17060 <fn_to_be>
   11396:	87a6                	c.mv	a5,s1
   11398:	0007c703          	lbu	a4,0(a5)
   1139c:	0785                	c.addi	a5,1
   1139e:	8181c683          	lbu	a3,-2024(gp) # 1d060 <bench_sink>
   113a2:	8f35                	c.xor	a4,a3
   113a4:	80e18c23          	sb	a4,-2024(gp) # 1d060 <bench_sink>
   113a8:	fefb98e3          	bne	s7,a5,11398 <main+0xc78>
   113ac:	2e013783          	ld	a5,736(sp)
   113b0:	2d813703          	ld	a4,728(sp)
   113b4:	8f5d                	c.or	a4,a5
   113b6:	2e813783          	ld	a5,744(sp)
   113ba:	8f5d                	c.or	a4,a5
   113bc:	2f013783          	ld	a5,752(sp)
   113c0:	8f5d                	c.or	a4,a5
   113c2:	00875793          	srli	a5,a4,0x8
   113c6:	01075693          	srli	a3,a4,0x10
   113ca:	8fd9                	c.or	a5,a4
   113cc:	01875613          	srli	a2,a4,0x18
   113d0:	8fd5                	c.or	a5,a3
   113d2:	02075693          	srli	a3,a4,0x20
   113d6:	8fd1                	c.or	a5,a2
   113d8:	02875613          	srli	a2,a4,0x28
   113dc:	8fd5                	c.or	a5,a3
   113de:	03075693          	srli	a3,a4,0x30
   113e2:	8fd1                	c.or	a5,a2
   113e4:	9361                	c.srli	a4,0x38
   113e6:	8fd5                	c.or	a5,a3
   113e8:	8fd9                	c.or	a5,a4
   113ea:	0ff7f793          	andi	a5,a5,255
   113ee:	d785                	c.beqz	a5,11316 <main+0xbf6>
   113f0:	050d3703          	ld	a4,80(s10)
   113f4:	0fac                	c.addi4spn	a1,sp,984
   113f6:	1888                	c.addi4spn	a0,sp,112
   113f8:	00d71793          	slli	a5,a4,0xd
   113fc:	8fb9                	c.xor	a5,a4
   113fe:	0077d713          	srli	a4,a5,0x7
   11402:	8fb9                	c.xor	a5,a4
   11404:	01179713          	slli	a4,a5,0x11
   11408:	8fb9                	c.xor	a5,a4
   1140a:	00d79713          	slli	a4,a5,0xd
   1140e:	6b87d693          	rev8	a3,a5
   11412:	8f3d                	c.xor	a4,a5
   11414:	3cd13c23          	sd	a3,984(sp)
   11418:	00775793          	srli	a5,a4,0x7
   1141c:	8fb9                	c.xor	a5,a4
   1141e:	01179713          	slli	a4,a5,0x11
   11422:	8f3d                	c.xor	a4,a5
   11424:	00d71793          	slli	a5,a4,0xd
   11428:	6b875693          	rev8	a3,a4
   1142c:	8fb9                	c.xor	a5,a4
   1142e:	3ed13023          	sd	a3,992(sp)
   11432:	0077d713          	srli	a4,a5,0x7
   11436:	8fb9                	c.xor	a5,a4
   11438:	01179713          	slli	a4,a5,0x11
   1143c:	8fb9                	c.xor	a5,a4
   1143e:	00d79693          	slli	a3,a5,0xd
   11442:	6b87d713          	rev8	a4,a5
   11446:	8fb5                	c.xor	a5,a3
   11448:	3ee13423          	sd	a4,1000(sp)
   1144c:	0077d713          	srli	a4,a5,0x7
   11450:	8fb9                	c.xor	a5,a4
   11452:	01179713          	slli	a4,a5,0x11
   11456:	8fb9                	c.xor	a5,a4
   11458:	6b87d713          	rev8	a4,a5
   1145c:	04fd3823          	sd	a5,80(s10)
   11460:	3ee13823          	sd	a4,1008(sp)
   11464:	1bd050ef          	jal	ra,16e20 <fn_from_be>
   11468:	188c                	c.addi4spn	a1,sp,112
   1146a:	855e                	c.mv	a0,s7
   1146c:	3f5050ef          	jal	ra,17060 <fn_to_be>
   11470:	87de                	c.mv	a5,s7
   11472:	0007c703          	lbu	a4,0(a5)
   11476:	0785                	c.addi	a5,1
   11478:	8181c683          	lbu	a3,-2024(gp) # 1d060 <bench_sink>
   1147c:	8f35                	c.xor	a4,a3
   1147e:	80e18c23          	sb	a4,-2024(gp) # 1d060 <bench_sink>
   11482:	fef918e3          	bne	s2,a5,11472 <main+0xd52>
   11486:	30013783          	ld	a5,768(sp)
   1148a:	2f813703          	ld	a4,760(sp)
   1148e:	8f5d                	c.or	a4,a5
   11490:	30813783          	ld	a5,776(sp)
   11494:	8f5d                	c.or	a4,a5
   11496:	31013783          	ld	a5,784(sp)
   1149a:	8f5d                	c.or	a4,a5
   1149c:	00875793          	srli	a5,a4,0x8
   114a0:	01075693          	srli	a3,a4,0x10
   114a4:	8fd9                	c.or	a5,a4
   114a6:	01875613          	srli	a2,a4,0x18
   114aa:	8fd5                	c.or	a5,a3
   114ac:	02075693          	srli	a3,a4,0x20
   114b0:	8fd1                	c.or	a5,a2
   114b2:	02875613          	srli	a2,a4,0x28
   114b6:	8fd5                	c.or	a5,a3
   114b8:	03075693          	srli	a3,a4,0x30
   114bc:	8fd1                	c.or	a5,a2
   114be:	9361                	c.srli	a4,0x38
   114c0:	8fd5                	c.or	a5,a3
   114c2:	8fd9                	c.or	a5,a4
   114c4:	0ff7f793          	andi	a5,a5,255
   114c8:	d785                	c.beqz	a5,113f0 <main+0xcd0>
   114ca:	0d30                	c.addi4spn	a2,sp,664
   114cc:	022c                	c.addi4spn	a1,sp,264
   114ce:	0a88                	c.addi4spn	a0,sp,336
   114d0:	4d95                	c.li	s11,5
   114d2:	08f030ef          	jal	ra,14d60 <sm2_scalar_mul_window_ct_schemeB_mont_to_affine>
   114d6:	1d30                	c.addi4spn	a2,sp,696
   114d8:	022c                	c.addi4spn	a1,sp,264
   114da:	0b28                	c.addi4spn	a0,sp,408
   114dc:	085030ef          	jal	ra,14d60 <sm2_scalar_mul_window_ct_schemeB_mont_to_affine>
   114e0:	85a6                	c.mv	a1,s1
   114e2:	1388                	c.addi4spn	a0,sp,480
   114e4:	3dfd                	c.addiw	s11,-1
   114e6:	2ba050ef          	jal	ra,167a0 <sm2_kex_initiator_gen_RA_mont>
   114ea:	fe0d9be3          	bne	s11,zero,114e0 <main+0xdc0>
   114ee:	c0002773          	csrrs	a4,cycle,zero
   114f2:	f4ba                	c.sdsp	a4,104(sp)
   114f4:	0c800d93          	addi	s11,zero,200
   114f8:	85a6                	c.mv	a1,s1
   114fa:	1388                	c.addi4spn	a0,sp,480
   114fc:	2a4050ef          	jal	ra,167a0 <sm2_kex_initiator_gen_RA_mont>
   11500:	139c                	c.addi4spn	a5,sp,480
   11502:	0007c703          	lbu	a4,0(a5)
   11506:	0785                	c.addi	a5,1
   11508:	8181c683          	lbu	a3,-2024(gp) # 1d060 <bench_sink>
   1150c:	8f35                	c.xor	a4,a3
   1150e:	80e18c23          	sb	a4,-2024(gp) # 1d060 <bench_sink>
   11512:	fef418e3          	bne	s0,a5,11502 <main+0xde2>
   11516:	3dfd                	c.addiw	s11,-1
   11518:	fe0d90e3          	bne	s11,zero,114f8 <main+0xdd8>
   1151c:	7726                	c.ldsp	a4,104(sp)
   1151e:	c00027f3          	csrrs	a5,cycle,zero
   11522:	8f99                	c.sub	a5,a4
   11524:	7706                	c.ldsp	a4,96(sp)
   11526:	838d                	c.srli	a5,0x3
   11528:	85a6                	c.mv	a1,s1
   1152a:	1388                	c.addi4spn	a0,sp,480
   1152c:	02e7b7b3          	mulhu	a5,a5,a4
   11530:	6746                	c.ldsp	a4,80(sp)
   11532:	8389                	c.srli	a5,0x2
   11534:	e31c                	c.sd	a5,0(a4)
   11536:	26a050ef          	jal	ra,167a0 <sm2_kex_initiator_gen_RA_mont>
   1153a:	24050363          	beq	a0,zero,11780 <main+0x1060>
   1153e:	85de                	c.mv	a1,s7
   11540:	8522                	c.mv	a0,s0
   11542:	25e050ef          	jal	ra,167a0 <sm2_kex_initiator_gen_RA_mont>
   11546:	22050d63          	beq	a0,zero,11780 <main+0x1060>
   1154a:	478d                	c.li	a5,3
   1154c:	1398                	c.addi4spn	a4,sp,480
   1154e:	f43e                	c.sdsp	a5,40(sp)
   11550:	0b3c                	c.addi4spn	a5,sp,408
   11552:	ec3e                	c.sdsp	a5,24(sp)
   11554:	88d6                	c.mv	a7,s5
   11556:	e83a                	c.sdsp	a4,16(sp)
   11558:	15010813          	addi	a6,sp,336
   1155c:	f822                	c.sdsp	s0,48(sp)
   1155e:	0d3c                	c.addi4spn	a5,sp,664
   11560:	f062                	c.sdsp	s8,32(sp)
   11562:	0f34                	c.addi4spn	a3,sp,920
   11564:	e426                	c.sdsp	s1,8(sp)
   11566:	864e                	c.mv	a2,s3
   11568:	e052                	c.sdsp	s4,0(sp)
   1156a:	854a                	c.mv	a0,s2
   1156c:	4701                	c.li	a4,0
   1156e:	02000593          	addi	a1,zero,32
   11572:	2ae050ef          	jal	ra,16820 <sm2_kex_initiator_compute_key_mont>
   11576:	20050563          	beq	a0,zero,11780 <main+0x1060>
   1157a:	4d8d                	c.li	s11,3
   1157c:	0a9c                	c.addi4spn	a5,sp,336
   1157e:	1398                	c.addi4spn	a4,sp,480
   11580:	f03e                	c.sdsp	a5,32(sp)
   11582:	460d                	c.li	a2,3
   11584:	ec3a                	c.sdsp	a4,24(sp)
   11586:	19810893          	addi	a7,sp,408
   1158a:	e432                	c.sdsp	a2,8(sp)
   1158c:	2b810813          	addi	a6,sp,696
   11590:	f852                	c.sdsp	s4,48(sp)
   11592:	87ce                	c.mv	a5,s3
   11594:	f456                	c.sdsp	s5,40(sp)
   11596:	1f38                	c.addi4spn	a4,sp,952
   11598:	e85e                	c.sdsp	s7,16(sp)
   1159a:	1eb4                	c.addi4spn	a3,sp,888
   1159c:	85e6                	c.mv	a1,s9
   1159e:	e062                	c.sdsp	s8,0(sp)
   115a0:	8522                	c.mv	a0,s0
   115a2:	3dfd                	c.addiw	s11,-1
   115a4:	02000613          	addi	a2,zero,32
   115a8:	518050ef          	jal	ra,16ac0 <sm2_kex_responder_compute_key_mont>
   115ac:	fc0d98e3          	bne	s11,zero,1157c <main+0xe5c>
   115b0:	c0002773          	csrrs	a4,cycle,zero
   115b4:	f4ba                	c.sdsp	a4,104(sp)
   115b6:	0c800d93          	addi	s11,zero,200
   115ba:	0a9c                	c.addi4spn	a5,sp,336
   115bc:	1398                	c.addi4spn	a4,sp,480
   115be:	f03e                	c.sdsp	a5,32(sp)
   115c0:	460d                	c.li	a2,3
   115c2:	87ce                	c.mv	a5,s3
   115c4:	ec3a                	c.sdsp	a4,24(sp)
   115c6:	e432                	c.sdsp	a2,8(sp)
   115c8:	19810893          	addi	a7,sp,408
   115cc:	f852                	c.sdsp	s4,48(sp)
   115ce:	2b810813          	addi	a6,sp,696
   115d2:	f456                	c.sdsp	s5,40(sp)
   115d4:	1f38                	c.addi4spn	a4,sp,952
   115d6:	e85e                	c.sdsp	s7,16(sp)
   115d8:	1eb4                	c.addi4spn	a3,sp,888
   115da:	85e6                	c.mv	a1,s9
   115dc:	e062                	c.sdsp	s8,0(sp)
   115de:	8522                	c.mv	a0,s0
   115e0:	02000613          	addi	a2,zero,32
   115e4:	4dc050ef          	jal	ra,16ac0 <sm2_kex_responder_compute_key_mont>
   115e8:	87e6                	c.mv	a5,s9
   115ea:	0007c703          	lbu	a4,0(a5)
   115ee:	0785                	c.addi	a5,1
   115f0:	8181c683          	lbu	a3,-2024(gp) # 1d060 <bench_sink>
   115f4:	8f35                	c.xor	a4,a3
   115f6:	80e18c23          	sb	a4,-2024(gp) # 1d060 <bench_sink>
   115fa:	ff3798e3          	bne	a5,s3,115ea <main+0xeca>
   115fe:	3dfd                	c.addiw	s11,-1
   11600:	fa0d9de3          	bne	s11,zero,115ba <main+0xe9a>
   11604:	7726                	c.ldsp	a4,104(sp)
   11606:	c00027f3          	csrrs	a5,cycle,zero
   1160a:	8f99                	c.sub	a5,a4
   1160c:	7706                	c.ldsp	a4,96(sp)
   1160e:	838d                	c.srli	a5,0x3
   11610:	4d8d                	c.li	s11,3
   11612:	02e7b7b3          	mulhu	a5,a5,a4
   11616:	6766                	c.ldsp	a4,88(sp)
   11618:	8389                	c.srli	a5,0x2
   1161a:	e31c                	c.sd	a5,0(a4)
   1161c:	0b38                	c.addi4spn	a4,sp,408
   1161e:	1394                	c.addi4spn	a3,sp,480
   11620:	478d                	c.li	a5,3
   11622:	ec3a                	c.sdsp	a4,24(sp)
   11624:	f43e                	c.sdsp	a5,40(sp)
   11626:	88d6                	c.mv	a7,s5
   11628:	e836                	c.sdsp	a3,16(sp)
   1162a:	15010813          	addi	a6,sp,336
   1162e:	f822                	c.sdsp	s0,48(sp)
   11630:	0d3c                	c.addi4spn	a5,sp,664
   11632:	f062                	c.sdsp	s8,32(sp)
   11634:	1eb8                	c.addi4spn	a4,sp,888
   11636:	0f34                	c.addi4spn	a3,sp,920
   11638:	e426                	c.sdsp	s1,8(sp)
   1163a:	864e                	c.mv	a2,s3
   1163c:	e052                	c.sdsp	s4,0(sp)
   1163e:	854a                	c.mv	a0,s2
   11640:	3dfd                	c.addiw	s11,-1
   11642:	02000593          	addi	a1,zero,32
   11646:	1da050ef          	jal	ra,16820 <sm2_kex_initiator_compute_key_mont>
   1164a:	fc0d99e3          	bne	s11,zero,1161c <main+0xefc>
   1164e:	c00026f3          	csrrs	a3,cycle,zero
   11652:	f4b6                	c.sdsp	a3,104(sp)
   11654:	0c800d93          	addi	s11,zero,200
   11658:	0b38                	c.addi4spn	a4,sp,408
   1165a:	1394                	c.addi4spn	a3,sp,480
   1165c:	478d                	c.li	a5,3
   1165e:	ec3a                	c.sdsp	a4,24(sp)
   11660:	f43e                	c.sdsp	a5,40(sp)
   11662:	88d6                	c.mv	a7,s5
   11664:	0d3c                	c.addi4spn	a5,sp,664
   11666:	e836                	c.sdsp	a3,16(sp)
   11668:	f822                	c.sdsp	s0,48(sp)
   1166a:	15010813          	addi	a6,sp,336
   1166e:	f062                	c.sdsp	s8,32(sp)
   11670:	1eb8                	c.addi4spn	a4,sp,888
   11672:	0f34                	c.addi4spn	a3,sp,920
   11674:	e426                	c.sdsp	s1,8(sp)
   11676:	864e                	c.mv	a2,s3
   11678:	e052                	c.sdsp	s4,0(sp)
   1167a:	854a                	c.mv	a0,s2
   1167c:	02000593          	addi	a1,zero,32
   11680:	1a0050ef          	jal	ra,16820 <sm2_kex_initiator_compute_key_mont>
   11684:	87ca                	c.mv	a5,s2
   11686:	0007c703          	lbu	a4,0(a5)
   1168a:	0785                	c.addi	a5,1
   1168c:	8181c683          	lbu	a3,-2024(gp) # 1d060 <bench_sink>
   11690:	8f35                	c.xor	a4,a3
   11692:	80e18c23          	sb	a4,-2024(gp) # 1d060 <bench_sink>
   11696:	fefc98e3          	bne	s9,a5,11686 <main+0xf66>
   1169a:	3dfd                	c.addiw	s11,-1
   1169c:	fa0d9ee3          	bne	s11,zero,11658 <main+0xf38>
   116a0:	76a6                	c.ldsp	a3,104(sp)
   116a2:	c0002773          	csrrs	a4,cycle,zero
   116a6:	8f15                	c.sub	a4,a3
   116a8:	7686                	c.ldsp	a3,96(sp)
   116aa:	830d                	c.srli	a4,0x3
   116ac:	87ce                	c.mv	a5,s3
   116ae:	02d73733          	mulhu	a4,a4,a3
   116b2:	66a6                	c.ldsp	a3,72(sp)
   116b4:	8309                	c.srli	a4,0x2
   116b6:	e298                	c.sd	a4,0(a3)
   116b8:	0007c703          	lbu	a4,0(a5)
   116bc:	0785                	c.addi	a5,1
   116be:	8181c683          	lbu	a3,-2024(gp) # 1d060 <bench_sink>
   116c2:	8f35                	c.xor	a4,a3
   116c4:	80e18c23          	sb	a4,-2024(gp) # 1d060 <bench_sink>
   116c8:	1eb8                	c.addi4spn	a4,sp,888
   116ca:	fef717e3          	bne	a4,a5,116b8 <main+0xf98>
   116ce:	87ba                	c.mv	a5,a4
   116d0:	0007c703          	lbu	a4,0(a5)
   116d4:	0785                	c.addi	a5,1
   116d6:	8181c683          	lbu	a3,-2024(gp) # 1d060 <bench_sink>
   116da:	8f35                	c.xor	a4,a3
   116dc:	80e18c23          	sb	a4,-2024(gp) # 1d060 <bench_sink>
   116e0:	0f38                	c.addi4spn	a4,sp,920
   116e2:	fef717e3          	bne	a4,a5,116d0 <main+0xfb0>
   116e6:	6766                	c.ldsp	a4,88(sp)
   116e8:	67a6                	c.ldsp	a5,72(sp)
   116ea:	0721                	c.addi	a4,8
   116ec:	ecba                	c.sdsp	a4,88(sp)
   116ee:	6746                	c.ldsp	a4,80(sp)
   116f0:	07a1                	c.addi	a5,8
   116f2:	e4be                	c.sdsp	a5,72(sp)
   116f4:	0721                	c.addi	a4,8
   116f6:	e8ba                	c.sdsp	a4,80(sp)
   116f8:	0238                	c.addi4spn	a4,sp,264
   116fa:	a6f713e3          	bne	a4,a5,11160 <main+0xa40>
   116fe:	090c                	c.addi4spn	a1,sp,144
   11700:	656d                	c.lui	a0,0x1b
   11702:	ac050513          	addi	a0,a0,-1344 # 1aac0 <SM2_GY_BYTES+0x1a8>
   11706:	53b060ef          	jal	ra,18440 <print_stats.constprop.0>
   1170a:	192c                	c.addi4spn	a1,sp,184
   1170c:	656d                	c.lui	a0,0x1b
   1170e:	ae050513          	addi	a0,a0,-1312 # 1aae0 <SM2_GY_BYTES+0x1c8>
   11712:	52f060ef          	jal	ra,18440 <print_stats.constprop.0>
   11716:	118c                	c.addi4spn	a1,sp,224
   11718:	656d                	c.lui	a0,0x1b
   1171a:	b0050513          	addi	a0,a0,-1280 # 1ab00 <SM2_GY_BYTES+0x1e8>
   1171e:	523060ef          	jal	ra,18440 <print_stats.constprop.0>
   11722:	8181c603          	lbu	a2,-2024(gp) # 1d060 <bench_sink>
   11726:	65ed                	c.lui	a1,0x1b
   11728:	b2058593          	addi	a1,a1,-1248 # 1ab20 <SM2_GY_BYTES+0x208>
   1172c:	4509                	c.li	a0,2
   1172e:	f83fe0ef          	jal	ra,106b0 <__printf_chk@plt>
   11732:	4501                	c.li	a0,0
   11734:	0001d7b7          	lui	a5,0x1d
   11738:	3f813703          	ld	a4,1016(sp)
   1173c:	e007b783          	ld	a5,-512(a5) # 1ce00 <__stack_chk_guard@GLIBC_2.27>
   11740:	8fb9                	c.xor	a5,a4
   11742:	4701                	c.li	a4,0
   11744:	e3a1                	c.bnez	a5,11784 <main+0x1064>
   11746:	46813083          	ld	ra,1128(sp)
   1174a:	46013403          	ld	s0,1120(sp)
   1174e:	45813483          	ld	s1,1112(sp)
   11752:	45013903          	ld	s2,1104(sp)
   11756:	44813983          	ld	s3,1096(sp)
   1175a:	44013a03          	ld	s4,1088(sp)
   1175e:	43813a83          	ld	s5,1080(sp)
   11762:	43013b03          	ld	s6,1072(sp)
   11766:	42813b83          	ld	s7,1064(sp)
   1176a:	42013c03          	ld	s8,1056(sp)
   1176e:	41813c83          	ld	s9,1048(sp)
   11772:	41013d03          	ld	s10,1040(sp)
   11776:	40813d83          	ld	s11,1032(sp)
   1177a:	47010113          	addi	sp,sp,1136
   1177e:	8082                	c.jr	ra
   11780:	4505                	c.li	a0,1
   11782:	bf4d                	c.j	11734 <main+0x1014>
   11784:	f3dfe0ef          	jal	ra,106c0 <__stack_chk_fail@plt>
	...

000000000001179c <_start>:
   1179c:	026000ef          	jal	ra,117c2 <load_gp>
   117a0:	87aa                	c.mv	a5,a0
   117a2:	00000517          	auipc	a0,0x0
   117a6:	01c50513          	addi	a0,a0,28 # 117be <__wrap_main>
   117aa:	6582                	c.ldsp	a1,0(sp)
   117ac:	0030                	c.addi4spn	a2,sp,8
   117ae:	ff017113          	andi	sp,sp,-16
   117b2:	4681                	c.li	a3,0
   117b4:	4701                	c.li	a4,0
   117b6:	880a                	c.mv	a6,sp
   117b8:	ed9fe0ef          	jal	ra,10690 <__libc_start_main@plt>
   117bc:	9002                	c.ebreak

00000000000117be <__wrap_main>:
   117be:	f63fe06f          	jal	zero,10720 <main>

00000000000117c2 <load_gp>:
   117c2:	0000c197          	auipc	gp,0xc
   117c6:	08618193          	addi	gp,gp,134 # 1d848 <__global_pointer$>
   117ca:	8082                	c.jr	ra
	...

00000000000117ce <deregister_tm_clones>:
   117ce:	6575                	c.lui	a0,0x1d
   117d0:	04850793          	addi	a5,a0,72 # 1d048 <__TMC_END__>
   117d4:	6775                	c.lui	a4,0x1d
   117d6:	04870713          	addi	a4,a4,72 # 1d048 <__TMC_END__>
   117da:	00f70863          	beq	a4,a5,117ea <deregister_tm_clones+0x1c>
   117de:	00000793          	addi	a5,zero,0
   117e2:	c781                	c.beqz	a5,117ea <deregister_tm_clones+0x1c>
   117e4:	04850513          	addi	a0,a0,72
   117e8:	8782                	c.jr	a5
   117ea:	8082                	c.jr	ra

00000000000117ec <register_tm_clones>:
   117ec:	6575                	c.lui	a0,0x1d
   117ee:	04850793          	addi	a5,a0,72 # 1d048 <__TMC_END__>
   117f2:	6775                	c.lui	a4,0x1d
   117f4:	04870593          	addi	a1,a4,72 # 1d048 <__TMC_END__>
   117f8:	8d9d                	c.sub	a1,a5
   117fa:	4035d793          	srai	a5,a1,0x3
   117fe:	91fd                	c.srli	a1,0x3f
   11800:	95be                	c.add	a1,a5
   11802:	8585                	c.srai	a1,0x1
   11804:	c599                	c.beqz	a1,11812 <register_tm_clones+0x26>
   11806:	00000793          	addi	a5,zero,0
   1180a:	c781                	c.beqz	a5,11812 <register_tm_clones+0x26>
   1180c:	04850513          	addi	a0,a0,72
   11810:	8782                	c.jr	a5
   11812:	8082                	c.jr	ra

0000000000011814 <__do_global_dtors_aux>:
   11814:	1141                	c.addi	sp,-16
   11816:	e022                	c.sdsp	s0,0(sp)
   11818:	8201c783          	lbu	a5,-2016(gp) # 1d068 <completed.0>
   1181c:	e406                	c.sdsp	ra,8(sp)
   1181e:	e791                	c.bnez	a5,1182a <__do_global_dtors_aux+0x16>
   11820:	fafff0ef          	jal	ra,117ce <deregister_tm_clones>
   11824:	4785                	c.li	a5,1
   11826:	82f18023          	sb	a5,-2016(gp) # 1d068 <completed.0>
   1182a:	60a2                	c.ldsp	ra,8(sp)
   1182c:	6402                	c.ldsp	s0,0(sp)
   1182e:	0141                	c.addi	sp,16
   11830:	8082                	c.jr	ra

0000000000011832 <frame_dummy>:
   11832:	bf6d                	c.j	117ec <register_tm_clones>
	...

0000000000011840 <fp_mont_reduce>:
   11840:	1101                	c.addi	sp,-32
   11842:	587d                	c.li	a6,-1
   11844:	ec22                	c.sdsp	s0,24(sp)
   11846:	02081e13          	slli	t3,a6,0x20
   1184a:	e826                	c.sdsp	s1,16(sp)
   1184c:	2a001893          	bseti	a7,zero,0x20
   11850:	e44a                	c.sdsp	s2,8(sp)
   11852:	fff8c893          	xori	a7,a7,-1
   11856:	6198                	c.ld	a4,0(a1)
   11858:	0005b023          	sd	zero,0(a1)
   1185c:	659c                	c.ld	a5,8(a1)
   1185e:	6990                	c.ld	a2,16(a1)
   11860:	03c70333          	mul	t1,a4,t3
   11864:	6d94                	c.ld	a3,24(a1)
   11866:	03c73f33          	mulhu	t5,a4,t3
   1186a:	40e00e33          	sub	t3,zero,a4
   1186e:	8e19                	c.sub	a2,a4
   11870:	03073eb3          	mulhu	t4,a4,a6
   11874:	03170833          	mul	a6,a4,a7
   11878:	01c63e33          	sltu	t3,a2,t3
   1187c:	979a                	c.add	a5,t1
   1187e:	031738b3          	mulhu	a7,a4,a7
   11882:	0067b333          	sltu	t1,a5,t1
   11886:	973e                	c.add	a4,a5
   11888:	937a                	c.add	t1,t5
   1188a:	00f737b3          	sltu	a5,a4,a5
   1188e:	979a                	c.add	a5,t1
   11890:	01de0333          	add	t1,t3,t4
   11894:	97b2                	c.add	a5,a2
   11896:	96c2                	c.add	a3,a6
   11898:	00c7b633          	sltu	a2,a5,a2
   1189c:	0106b833          	sltu	a6,a3,a6
   118a0:	961a                	c.add	a2,t1
   118a2:	9846                	c.add	a6,a7
   118a4:	9636                	c.add	a2,a3
   118a6:	e598                	c.sd	a4,8(a1)
   118a8:	00d636b3          	sltu	a3,a2,a3
   118ac:	e99c                	c.sd	a5,16(a1)
   118ae:	96c2                	c.add	a3,a6
   118b0:	ed90                	c.sd	a2,24(a1)
   118b2:	c2a1                	c.beqz	a3,118f2 <fp_mont_reduce+0xb2>
   118b4:	0205b803          	ld	a6,32(a1)
   118b8:	9836                	c.add	a6,a3
   118ba:	0305b023          	sd	a6,32(a1)
   118be:	02d87a63          	bgeu	a6,a3,118f2 <fp_mont_reduce+0xb2>
   118c2:	7594                	c.ld	a3,40(a1)
   118c4:	00168813          	addi	a6,a3,1
   118c8:	0305b423          	sd	a6,40(a1)
   118cc:	02d87363          	bgeu	a6,a3,118f2 <fp_mont_reduce+0xb2>
   118d0:	7994                	c.ld	a3,48(a1)
   118d2:	00168813          	addi	a6,a3,1
   118d6:	0305b823          	sd	a6,48(a1)
   118da:	00d87c63          	bgeu	a6,a3,118f2 <fp_mont_reduce+0xb2>
   118de:	7d94                	c.ld	a3,56(a1)
   118e0:	00168813          	addi	a6,a3,1
   118e4:	0305bc23          	sd	a6,56(a1)
   118e8:	00d87563          	bgeu	a6,a3,118f2 <fp_mont_reduce+0xb2>
   118ec:	61b4                	c.ld	a3,64(a1)
   118ee:	0685                	c.addi	a3,1
   118f0:	e1b4                	c.sd	a3,64(a1)
   118f2:	587d                	c.li	a6,-1
   118f4:	02081893          	slli	a7,a6,0x20
   118f8:	03170333          	mul	t1,a4,a7
   118fc:	00f706b3          	add	a3,a4,a5
   11900:	03173f33          	mulhu	t5,a4,a7
   11904:	00e6bfb3          	sltu	t6,a3,a4
   11908:	02e838b3          	mulhu	a7,a6,a4
   1190c:	2a001e93          	bseti	t4,zero,0x20
   11910:	fffece93          	xori	t4,t4,-1
   11914:	40e607b3          	sub	a5,a2,a4
   11918:	9336                	c.add	t1,a3
   1191a:	03d70e33          	mul	t3,a4,t4
   1191e:	00d336b3          	sltu	a3,t1,a3
   11922:	9f7e                	c.add	t5,t6
   11924:	0205b803          	ld	a6,32(a1)
   11928:	96fa                	c.add	a3,t5
   1192a:	96be                	c.add	a3,a5
   1192c:	00c7b633          	sltu	a2,a5,a2
   11930:	03d73733          	mulhu	a4,a4,t4
   11934:	00f6b7b3          	sltu	a5,a3,a5
   11938:	98b2                	c.add	a7,a2
   1193a:	9872                	c.add	a6,t3
   1193c:	97c6                	c.add	a5,a7
   1193e:	01c83e33          	sltu	t3,a6,t3
   11942:	97c2                	c.add	a5,a6
   11944:	0005b423          	sd	zero,8(a1)
   11948:	9e3a                	c.add	t3,a4
   1194a:	0107b833          	sltu	a6,a5,a6
   1194e:	0065b823          	sd	t1,16(a1)
   11952:	9872                	c.add	a6,t3
   11954:	ed94                	c.sd	a3,24(a1)
   11956:	f19c                	c.sd	a5,32(a1)
   11958:	02080663          	beq	a6,zero,11984 <fp_mont_reduce+0x144>
   1195c:	7598                	c.ld	a4,40(a1)
   1195e:	9742                	c.add	a4,a6
   11960:	f598                	c.sd	a4,40(a1)
   11962:	03077163          	bgeu	a4,a6,11984 <fp_mont_reduce+0x144>
   11966:	7998                	c.ld	a4,48(a1)
   11968:	00170613          	addi	a2,a4,1
   1196c:	f990                	c.sd	a2,48(a1)
   1196e:	00e67b63          	bgeu	a2,a4,11984 <fp_mont_reduce+0x144>
   11972:	7d98                	c.ld	a4,56(a1)
   11974:	00170613          	addi	a2,a4,1
   11978:	fd90                	c.sd	a2,56(a1)
   1197a:	00e67563          	bgeu	a2,a4,11984 <fp_mont_reduce+0x144>
   1197e:	61b8                	c.ld	a4,64(a1)
   11980:	0705                	c.addi	a4,1
   11982:	e1b8                	c.sd	a4,64(a1)
   11984:	577d                	c.li	a4,-1
   11986:	02071813          	slli	a6,a4,0x20
   1198a:	03030633          	mul	a2,t1,a6
   1198e:	2a001f13          	bseti	t5,zero,0x20
   11992:	03033fb3          	mulhu	t6,t1,a6
   11996:	ffff4f13          	xori	t5,t5,-1
   1199a:	02673eb3          	mulhu	t4,a4,t1
   1199e:	406787b3          	sub	a5,a5,t1
   119a2:	03e308b3          	mul	a7,t1,t5
   119a6:	0285b803          	ld	a6,40(a1)
   119aa:	00d60733          	add	a4,a2,a3
   119ae:	40600e33          	sub	t3,zero,t1
   119b2:	006706b3          	add	a3,a4,t1
   119b6:	00c73633          	sltu	a2,a4,a2
   119ba:	967e                	c.add	a2,t6
   119bc:	00e6b733          	sltu	a4,a3,a4
   119c0:	9732                	c.add	a4,a2
   119c2:	03e33633          	mulhu	a2,t1,t5
   119c6:	973e                	c.add	a4,a5
   119c8:	01c7b333          	sltu	t1,a5,t3
   119cc:	9376                	c.add	t1,t4
   119ce:	00f737b3          	sltu	a5,a4,a5
   119d2:	9846                	c.add	a6,a7
   119d4:	979a                	c.add	a5,t1
   119d6:	97c2                	c.add	a5,a6
   119d8:	011838b3          	sltu	a7,a6,a7
   119dc:	98b2                	c.add	a7,a2
   119de:	0107b833          	sltu	a6,a5,a6
   119e2:	0005b823          	sd	zero,16(a1)
   119e6:	9846                	c.add	a6,a7
   119e8:	ed94                	c.sd	a3,24(a1)
   119ea:	f198                	c.sd	a4,32(a1)
   119ec:	f59c                	c.sd	a5,40(a1)
   119ee:	02080163          	beq	a6,zero,11a10 <fp_mont_reduce+0x1d0>
   119f2:	7990                	c.ld	a2,48(a1)
   119f4:	9642                	c.add	a2,a6
   119f6:	f990                	c.sd	a2,48(a1)
   119f8:	01067c63          	bgeu	a2,a6,11a10 <fp_mont_reduce+0x1d0>
   119fc:	7d90                	c.ld	a2,56(a1)
   119fe:	00160813          	addi	a6,a2,1
   11a02:	0305bc23          	sd	a6,56(a1)
   11a06:	00c87563          	bgeu	a6,a2,11a10 <fp_mont_reduce+0x1d0>
   11a0a:	61b0                	c.ld	a2,64(a1)
   11a0c:	0605                	c.addi	a2,1
   11a0e:	e1b0                	c.sd	a2,64(a1)
   11a10:	567d                	c.li	a2,-1
   11a12:	02061813          	slli	a6,a2,0x20
   11a16:	03068333          	mul	t1,a3,a6
   11a1a:	2a001f13          	bseti	t5,zero,0x20
   11a1e:	0306bfb3          	mulhu	t6,a3,a6
   11a22:	ffff4f13          	xori	t5,t5,-1
   11a26:	02d63eb3          	mulhu	t4,a2,a3
   11a2a:	8f95                	c.sub	a5,a3
   11a2c:	03e68833          	mul	a6,a3,t5
   11a30:	7990                	c.ld	a2,48(a1)
   11a32:	971a                	c.add	a4,t1
   11a34:	40d00e33          	sub	t3,zero,a3
   11a38:	00d708b3          	add	a7,a4,a3
   11a3c:	00673333          	sltu	t1,a4,t1
   11a40:	937e                	c.add	t1,t6
   11a42:	00e8b733          	sltu	a4,a7,a4
   11a46:	971a                	c.add	a4,t1
   11a48:	03e6b6b3          	mulhu	a3,a3,t5
   11a4c:	973e                	c.add	a4,a5
   11a4e:	01c7b333          	sltu	t1,a5,t3
   11a52:	9376                	c.add	t1,t4
   11a54:	00f737b3          	sltu	a5,a4,a5
   11a58:	9642                	c.add	a2,a6
   11a5a:	979a                	c.add	a5,t1
   11a5c:	97b2                	c.add	a5,a2
   11a5e:	01063833          	sltu	a6,a2,a6
   11a62:	9836                	c.add	a6,a3
   11a64:	00c7b633          	sltu	a2,a5,a2
   11a68:	0005bc23          	sd	zero,24(a1)
   11a6c:	9642                	c.add	a2,a6
   11a6e:	0315b023          	sd	a7,32(a1)
   11a72:	f598                	c.sd	a4,40(a1)
   11a74:	f99c                	c.sd	a5,48(a1)
   11a76:	ca09                	c.beqz	a2,11a88 <fp_mont_reduce+0x248>
   11a78:	7d9c                	c.ld	a5,56(a1)
   11a7a:	97b2                	c.add	a5,a2
   11a7c:	fd9c                	c.sd	a5,56(a1)
   11a7e:	00c7f563          	bgeu	a5,a2,11a88 <fp_mont_reduce+0x248>
   11a82:	61bc                	c.ld	a5,64(a1)
   11a84:	0785                	c.addi	a5,1
   11a86:	e1bc                	c.sd	a5,64(a1)
   11a88:	01153023          	sd	a7,0(a0)
   11a8c:	2a001813          	bseti	a6,zero,0x20
   11a90:	7590                	c.ld	a2,40(a1)
   11a92:	5efd                	c.li	t4,-1
   11a94:	1e82                	c.slli	t4,0x20
   11a96:	2a001713          	bseti	a4,zero,0x20
   11a9a:	0705                	c.addi	a4,1
   11a9c:	2a001793          	bseti	a5,zero,0x20
   11aa0:	e510                	c.sd	a2,8(a0)
   11aa2:	fff7c793          	xori	a5,a5,-1
   11aa6:	0305b283          	ld	t0,48(a1)
   11aaa:	00553823          	sd	t0,16(a0)
   11aae:	0385b383          	ld	t2,56(a1)
   11ab2:	00753c23          	sd	t2,24(a0)
   11ab6:	61b4                	c.ld	a3,64(a1)
   11ab8:	8a85                	c.andi	a3,1
   11aba:	00d88fb3          	add	t6,a7,a3
   11abe:	40d006b3          	sub	a3,zero,a3
   11ac2:	08c6833b          	add.uw	t1,a3,a2
   11ac6:	011fb8b3          	sltu	a7,t6,a7
   11aca:	011305b3          	add	a1,t1,a7
   11ace:	001f8f13          	addi	t5,t6,1
   11ad2:	00c33633          	sltu	a2,t1,a2
   11ad6:	0065b333          	sltu	t1,a1,t1
   11ada:	01e03433          	sltu	s0,zero,t5
   11ade:	01058e33          	add	t3,a1,a6
   11ae2:	00666633          	or	a2,a2,t1
   11ae6:	008e38b3          	sltu	a7,t3,s0
   11aea:	01d5b333          	sltu	t1,a1,t4
   11aee:	0ff67613          	andi	a2,a2,255
   11af2:	9616                	c.add	a2,t0
   11af4:	011368b3          	or	a7,t1,a7
   11af8:	00160493          	addi	s1,a2,1
   11afc:	0ff8f313          	andi	t1,a7,255
   11b00:	0106f6b3          	and	a3,a3,a6
   11b04:	0064b8b3          	sltu	a7,s1,t1
   11b08:	005632b3          	sltu	t0,a2,t0
   11b0c:	969e                	c.add	a3,t2
   11b0e:	009033b3          	sltu	t2,zero,s1
   11b12:	9696                	c.add	a3,t0
   11b14:	0113e3b3          	or	t2,t2,a7
   11b18:	00e682b3          	add	t0,a3,a4
   11b1c:	0ff3f393          	andi	t2,t2,255
   11b20:	00f6b8b3          	sltu	a7,a3,a5
   11b24:	0072b933          	sltu	s2,t0,t2
   11b28:	407282b3          	sub	t0,t0,t2
   11b2c:	0128e8b3          	or	a7,a7,s2
   11b30:	408e0e33          	sub	t3,t3,s0
   11b34:	0018c893          	xori	a7,a7,1
   11b38:	40648333          	sub	t1,s1,t1
   11b3c:	0ff8f893          	andi	a7,a7,255
   11b40:	64c2                	c.ldsp	s1,16(sp)
   11b42:	411003b3          	sub	t2,zero,a7
   11b46:	18fd                	c.addi	a7,-1
   11b48:	011fffb3          	and	t6,t6,a7
   11b4c:	007f7f33          	and	t5,t5,t2
   11b50:	0115f5b3          	and	a1,a1,a7
   11b54:	01ff6f33          	or	t5,t5,t6
   11b58:	007e7e33          	and	t3,t3,t2
   11b5c:	001f0f93          	addi	t6,t5,1
   11b60:	00be6e33          	or	t3,t3,a1
   11b64:	01f03433          	sltu	s0,zero,t6
   11b68:	9872                	c.add	a6,t3
   11b6a:	01167633          	and	a2,a2,a7
   11b6e:	01de35b3          	sltu	a1,t3,t4
   11b72:	00737333          	and	t1,t1,t2
   11b76:	00883eb3          	sltu	t4,a6,s0
   11b7a:	00c36333          	or	t1,t1,a2
   11b7e:	01d5e5b3          	or	a1,a1,t4
   11b82:	00130613          	addi	a2,t1,1
   11b86:	0ff5f593          	andi	a1,a1,255
   11b8a:	0072f2b3          	and	t0,t0,t2
   11b8e:	0116f6b3          	and	a3,a3,a7
   11b92:	00b633b3          	sltu	t2,a2,a1
   11b96:	00c03eb3          	sltu	t4,zero,a2
   11b9a:	00d2e8b3          	or	a7,t0,a3
   11b9e:	007eeeb3          	or	t4,t4,t2
   11ba2:	9746                	c.add	a4,a7
   11ba4:	0ffefe93          	andi	t4,t4,255
   11ba8:	00f8b7b3          	sltu	a5,a7,a5
   11bac:	01d736b3          	sltu	a3,a4,t4
   11bb0:	40880833          	sub	a6,a6,s0
   11bb4:	8fd5                	c.or	a5,a3
   11bb6:	41d70733          	sub	a4,a4,t4
   11bba:	0017c793          	xori	a5,a5,1
   11bbe:	40b606b3          	sub	a3,a2,a1
   11bc2:	0ff7f793          	andi	a5,a5,255
   11bc6:	6462                	c.ldsp	s0,24(sp)
   11bc8:	40f005b3          	sub	a1,zero,a5
   11bcc:	17fd                	c.addi	a5,-1
   11bce:	01e7ff33          	and	t5,a5,t5
   11bd2:	01c7fe33          	and	t3,a5,t3
   11bd6:	0067f333          	and	t1,a5,t1
   11bda:	00bfffb3          	and	t6,t6,a1
   11bde:	00b87633          	and	a2,a6,a1
   11be2:	8eed                	c.and	a3,a1
   11be4:	8f6d                	c.and	a4,a1
   11be6:	0117f7b3          	and	a5,a5,a7
   11bea:	01efefb3          	or	t6,t6,t5
   11bee:	01c66633          	or	a2,a2,t3
   11bf2:	0066e6b3          	or	a3,a3,t1
   11bf6:	8fd9                	c.or	a5,a4
   11bf8:	01f53023          	sd	t6,0(a0)
   11bfc:	6922                	c.ldsp	s2,8(sp)
   11bfe:	e510                	c.sd	a2,8(a0)
   11c00:	e914                	c.sd	a3,16(a0)
   11c02:	ed1c                	c.sd	a5,24(a0)
   11c04:	6105                	c.addi16sp	sp,32
   11c06:	8082                	c.jr	ra
   11c08:	00000013          	addi	zero,zero,0
   11c0c:	00000013          	addi	zero,zero,0
   11c10:	00000013          	addi	zero,zero,0
   11c14:	00000013          	addi	zero,zero,0
   11c18:	00000013          	addi	zero,zero,0
   11c1c:	00000013          	addi	zero,zero,0

0000000000011c20 <fp_cmp>:
   11c20:	01853303          	ld	t1,24(a0)
   11c24:	6d9c                	c.ld	a5,24(a1)
   11c26:	6998                	c.ld	a4,16(a1)
   11c28:	01053803          	ld	a6,16(a0)
   11c2c:	406786b3          	sub	a3,a5,t1
   11c30:	6510                	c.ld	a2,8(a0)
   11c32:	0016b693          	sltiu	a3,a3,1
   11c36:	0085be03          	ld	t3,8(a1)
   11c3a:	010738b3          	sltu	a7,a4,a6
   11c3e:	00e83833          	sltu	a6,a6,a4
   11c42:	0116f8b3          	and	a7,a3,a7
   11c46:	0067b733          	sltu	a4,a5,t1
   11c4a:	0106f6b3          	and	a3,a3,a6
   11c4e:	00f337b3          	sltu	a5,t1,a5
   11c52:	01176733          	or	a4,a4,a7
   11c56:	8fd5                	c.or	a5,a3
   11c58:	00e7e6b3          	or	a3,a5,a4
   11c5c:	00ce38b3          	sltu	a7,t3,a2
   11c60:	01c63833          	sltu	a6,a2,t3
   11c64:	0016c693          	xori	a3,a3,1
   11c68:	6110                	c.ld	a2,0(a0)
   11c6a:	0116f533          	and	a0,a3,a7
   11c6e:	618c                	c.ld	a1,0(a1)
   11c70:	0106f6b3          	and	a3,a3,a6
   11c74:	8fd5                	c.or	a5,a3
   11c76:	8d59                	c.or	a0,a4
   11c78:	00a7e733          	or	a4,a5,a0
   11c7c:	00c5b6b3          	sltu	a3,a1,a2
   11c80:	00174713          	xori	a4,a4,1
   11c84:	00b63633          	sltu	a2,a2,a1
   11c88:	8ef9                	c.and	a3,a4
   11c8a:	8f71                	c.and	a4,a2
   11c8c:	8d55                	c.or	a0,a3
   11c8e:	8fd9                	c.or	a5,a4
   11c90:	9d1d                	c.subw	a0,a5
   11c92:	8082                	c.jr	ra
   11c94:	00000013          	addi	zero,zero,0
   11c98:	00000013          	addi	zero,zero,0
   11c9c:	00000013          	addi	zero,zero,0

0000000000011ca0 <fp_copy>:
   11ca0:	6190                	c.ld	a2,0(a1)
   11ca2:	6594                	c.ld	a3,8(a1)
   11ca4:	6998                	c.ld	a4,16(a1)
   11ca6:	6d9c                	c.ld	a5,24(a1)
   11ca8:	e110                	c.sd	a2,0(a0)
   11caa:	e514                	c.sd	a3,8(a0)
   11cac:	e918                	c.sd	a4,16(a0)
   11cae:	ed1c                	c.sd	a5,24(a0)
   11cb0:	8082                	c.jr	ra
   11cb2:	00000013          	addi	zero,zero,0
   11cb6:	00000013          	addi	zero,zero,0
   11cba:	00000013          	addi	zero,zero,0
   11cbe:	0001                	c.addi	zero,0

0000000000011cc0 <fp_set_zero>:
   11cc0:	00053023          	sd	zero,0(a0)
   11cc4:	00053423          	sd	zero,8(a0)
   11cc8:	00053823          	sd	zero,16(a0)
   11ccc:	00053c23          	sd	zero,24(a0)
   11cd0:	8082                	c.jr	ra
   11cd2:	00000013          	addi	zero,zero,0
   11cd6:	00000013          	addi	zero,zero,0
   11cda:	00000013          	addi	zero,zero,0
   11cde:	0001                	c.addi	zero,0

0000000000011ce0 <fp_set_one>:
   11ce0:	4785                	c.li	a5,1
   11ce2:	00053423          	sd	zero,8(a0)
   11ce6:	e11c                	c.sd	a5,0(a0)
   11ce8:	00053823          	sd	zero,16(a0)
   11cec:	00053c23          	sd	zero,24(a0)
   11cf0:	8082                	c.jr	ra
   11cf2:	00000013          	addi	zero,zero,0
   11cf6:	00000013          	addi	zero,zero,0
   11cfa:	00000013          	addi	zero,zero,0
   11cfe:	0001                	c.addi	zero,0

0000000000011d00 <fp_is_zero>:
   11d00:	611c                	c.ld	a5,0(a0)
   11d02:	6510                	c.ld	a2,8(a0)
   11d04:	6914                	c.ld	a3,16(a0)
   11d06:	6d18                	c.ld	a4,24(a0)
   11d08:	00c7e533          	or	a0,a5,a2
   11d0c:	8d55                	c.or	a0,a3
   11d0e:	8d59                	c.or	a0,a4
   11d10:	00153513          	sltiu	a0,a0,1
   11d14:	8082                	c.jr	ra
   11d16:	00000013          	addi	zero,zero,0
   11d1a:	00000013          	addi	zero,zero,0
   11d1e:	0001                	c.addi	zero,0

0000000000011d20 <fp_is_equal>:
   11d20:	6198                	c.ld	a4,0(a1)
   11d22:	611c                	c.ld	a5,0(a0)
   11d24:	6510                	c.ld	a2,8(a0)
   11d26:	0085b883          	ld	a7,8(a1)
   11d2a:	6914                	c.ld	a3,16(a0)
   11d2c:	8fb9                	c.xor	a5,a4
   11d2e:	0105b803          	ld	a6,16(a1)
   11d32:	6d18                	c.ld	a4,24(a0)
   11d34:	01164633          	xor	a2,a2,a7
   11d38:	6d8c                	c.ld	a1,24(a1)
   11d3a:	00c7e533          	or	a0,a5,a2
   11d3e:	0106c7b3          	xor	a5,a3,a6
   11d42:	8d5d                	c.or	a0,a5
   11d44:	00b747b3          	xor	a5,a4,a1
   11d48:	8d5d                	c.or	a0,a5
   11d4a:	00153513          	sltiu	a0,a0,1
   11d4e:	8082                	c.jr	ra
   11d50:	00000013          	addi	zero,zero,0
   11d54:	00000013          	addi	zero,zero,0
   11d58:	00000013          	addi	zero,zero,0
   11d5c:	00000013          	addi	zero,zero,0

0000000000011d60 <fp_from_bytes>:
   11d60:	711d                	c.addi16sp	sp,-96
   11d62:	0001d837          	lui	a6,0x1d
   11d66:	e8a2                	c.sdsp	s0,80(sp)
   11d68:	e0083783          	ld	a5,-512(a6) # 1ce00 <__stack_chk_guard@GLIBC_2.27>
   11d6c:	f43e                	c.sdsp	a5,40(sp)
   11d6e:	4781                	c.li	a5,0
   11d70:	fc4e                	c.sdsp	s3,56(sp)
   11d72:	ec86                	c.sdsp	ra,88(sp)
   11d74:	e4a6                	c.sdsp	s1,72(sp)
   11d76:	e0ca                	c.sdsp	s2,64(sp)
   11d78:	f852                	c.sdsp	s4,48(sp)
   11d7a:	0185c783          	lbu	a5,24(a1)
   11d7e:	0195c883          	lbu	a7,25(a1)
   11d82:	0105c683          	lbu	a3,16(a1)
   11d86:	0115c603          	lbu	a2,17(a1)
   11d8a:	07a2                	c.slli	a5,0x8
   11d8c:	0085c703          	lbu	a4,8(a1)
   11d90:	0117e7b3          	or	a5,a5,a7
   11d94:	06a2                	c.slli	a3,0x8
   11d96:	0125c883          	lbu	a7,18(a1)
   11d9a:	0095c283          	lbu	t0,9(a1)
   11d9e:	8ed1                	c.or	a3,a2
   11da0:	01a5cf03          	lbu	t5,26(a1)
   11da4:	06a2                	c.slli	a3,0x8
   11da6:	0135c303          	lbu	t1,19(a1)
   11daa:	07a2                	c.slli	a5,0x8
   11dac:	01b5ce83          	lbu	t4,27(a1)
   11db0:	00d8e6b3          	or	a3,a7,a3
   11db4:	00a5c603          	lbu	a2,10(a1)
   11db8:	0722                	c.slli	a4,0x8
   11dba:	0145c883          	lbu	a7,20(a1)
   11dbe:	00ff6f33          	or	t5,t5,a5
   11dc2:	00576733          	or	a4,a4,t0
   11dc6:	0005c783          	lbu	a5,0(a1)
   11dca:	06a2                	c.slli	a3,0x8
   11dcc:	0015cf83          	lbu	t6,1(a1)
   11dd0:	01c5ce03          	lbu	t3,28(a1)
   11dd4:	00d366b3          	or	a3,t1,a3
   11dd8:	0f22                	c.slli	t5,0x8
   11dda:	0722                	c.slli	a4,0x8
   11ddc:	01eeeeb3          	or	t4,t4,t5
   11de0:	8e59                	c.or	a2,a4
   11de2:	0155cf03          	lbu	t5,21(a1)
   11de6:	00869713          	slli	a4,a3,0x8
   11dea:	00b5ca03          	lbu	s4,11(a1)
   11dee:	008e9313          	slli	t1,t4,0x8
   11df2:	01d5c903          	lbu	s2,29(a1)
   11df6:	00e8e8b3          	or	a7,a7,a4
   11dfa:	0025c483          	lbu	s1,2(a1)
   11dfe:	07a2                	c.slli	a5,0x8
   11e00:	006e6e33          	or	t3,t3,t1
   11e04:	01f7e7b3          	or	a5,a5,t6
   11e08:	08a2                	c.slli	a7,0x8
   11e0a:	0035c283          	lbu	t0,3(a1)
   11e0e:	0045c683          	lbu	a3,4(a1)
   11e12:	0622                	c.slli	a2,0x8
   11e14:	0065c703          	lbu	a4,6(a1)
   11e18:	0e22                	c.slli	t3,0x8
   11e1a:	0055cf83          	lbu	t6,5(a1)
   11e1e:	07a2                	c.slli	a5,0x8
   11e20:	0075ce83          	lbu	t4,7(a1)
   11e24:	011f6f33          	or	t5,t5,a7
   11e28:	00c5c383          	lbu	t2,12(a1)
   11e2c:	00ca6a33          	or	s4,s4,a2
   11e30:	01e5c883          	lbu	a7,30(a1)
   11e34:	01c96933          	or	s2,s2,t3
   11e38:	8cdd                	c.or	s1,a5
   11e3a:	0165c783          	lbu	a5,22(a1)
   11e3e:	00d5c303          	lbu	t1,13(a1)
   11e42:	0a22                	c.slli	s4,0x8
   11e44:	01f5c983          	lbu	s3,31(a1)
   11e48:	0922                	c.slli	s2,0x8
   11e4a:	00e5c603          	lbu	a2,14(a1)
   11e4e:	0f22                	c.slli	t5,0x8
   11e50:	00f5ce03          	lbu	t3,15(a1)
   11e54:	0128e8b3          	or	a7,a7,s2
   11e58:	0175c403          	lbu	s0,23(a1)
   11e5c:	0143e3b3          	or	t2,t2,s4
   11e60:	00849593          	slli	a1,s1,0x8
   11e64:	03a2                	c.slli	t2,0x8
   11e66:	00b2e5b3          	or	a1,t0,a1
   11e6a:	01e7e2b3          	or	t0,a5,t5
   11e6e:	00889793          	slli	a5,a7,0x8
   11e72:	02a2                	c.slli	t0,0x8
   11e74:	00f9ef33          	or	t5,s3,a5
   11e78:	05a2                	c.slli	a1,0x8
   11e7a:	007367b3          	or	a5,t1,t2
   11e7e:	005468b3          	or	a7,s0,t0
   11e82:	001f0313          	addi	t1,t5,1
   11e86:	8dd5                	c.or	a1,a3
   11e88:	07a2                	c.slli	a5,0x8
   11e8a:	006032b3          	sltu	t0,zero,t1
   11e8e:	05a2                	c.slli	a1,0x8
   11e90:	8fd1                	c.or	a5,a2
   11e92:	2a001693          	bseti	a3,zero,0x20
   11e96:	567d                	c.li	a2,-1
   11e98:	96c6                	c.add	a3,a7
   11e9a:	1602                	c.slli	a2,0x20
   11e9c:	00c8b633          	sltu	a2,a7,a2
   11ea0:	00bfefb3          	or	t6,t6,a1
   11ea4:	07a2                	c.slli	a5,0x8
   11ea6:	0056b5b3          	sltu	a1,a3,t0
   11eaa:	00fe6e33          	or	t3,t3,a5
   11eae:	0fa2                	c.slli	t6,0x8
   11eb0:	00b667b3          	or	a5,a2,a1
   11eb4:	001e0593          	addi	a1,t3,1
   11eb8:	0ff7f613          	andi	a2,a5,255
   11ebc:	01f767b3          	or	a5,a4,t6
   11ec0:	07a2                	c.slli	a5,0x8
   11ec2:	00c5b733          	sltu	a4,a1,a2
   11ec6:	00b03fb3          	sltu	t6,zero,a1
   11eca:	00feeeb3          	or	t4,t4,a5
   11ece:	00efefb3          	or	t6,t6,a4
   11ed2:	2a001793          	bseti	a5,zero,0x20
   11ed6:	0785                	c.addi	a5,1
   11ed8:	0fffff93          	andi	t6,t6,255
   11edc:	00fe8733          	add	a4,t4,a5
   11ee0:	2a001793          	bseti	a5,zero,0x20
   11ee4:	fff7c793          	xori	a5,a5,-1
   11ee8:	01f733b3          	sltu	t2,a4,t6
   11eec:	00feb7b3          	sltu	a5,t4,a5
   11ef0:	40c58633          	sub	a2,a1,a2
   11ef4:	0077e7b3          	or	a5,a5,t2
   11ef8:	405686b3          	sub	a3,a3,t0
   11efc:	0017c793          	xori	a5,a5,1
   11f00:	41f70733          	sub	a4,a4,t6
   11f04:	0ff7f793          	andi	a5,a5,255
   11f08:	40f005b3          	sub	a1,zero,a5
   11f0c:	17fd                	c.addi	a5,-1
   11f0e:	01e7ff33          	and	t5,a5,t5
   11f12:	00b37333          	and	t1,t1,a1
   11f16:	0117f8b3          	and	a7,a5,a7
   11f1a:	01c7fe33          	and	t3,a5,t3
   11f1e:	01e36333          	or	t1,t1,t5
   11f22:	01d7f7b3          	and	a5,a5,t4
   11f26:	8eed                	c.and	a3,a1
   11f28:	8e6d                	c.and	a2,a1
   11f2a:	8f6d                	c.and	a4,a1
   11f2c:	0116e6b3          	or	a3,a3,a7
   11f30:	8f5d                	c.or	a4,a5
   11f32:	01c66633          	or	a2,a2,t3
   11f36:	00653023          	sd	t1,0(a0)
   11f3a:	e514                	c.sd	a3,8(a0)
   11f3c:	76a2                	c.ldsp	a3,40(sp)
   11f3e:	e0083783          	ld	a5,-512(a6)
   11f42:	8fb5                	c.xor	a5,a3
   11f44:	4681                	c.li	a3,0
   11f46:	e910                	c.sd	a2,16(a0)
   11f48:	ed18                	c.sd	a4,24(a0)
   11f4a:	eb89                	c.bnez	a5,11f5c <fp_from_bytes+0x1fc>
   11f4c:	60e6                	c.ldsp	ra,88(sp)
   11f4e:	6446                	c.ldsp	s0,80(sp)
   11f50:	64a6                	c.ldsp	s1,72(sp)
   11f52:	6906                	c.ldsp	s2,64(sp)
   11f54:	79e2                	c.ldsp	s3,56(sp)
   11f56:	7a42                	c.ldsp	s4,48(sp)
   11f58:	6125                	c.addi16sp	sp,96
   11f5a:	8082                	c.jr	ra
   11f5c:	f64fe0ef          	jal	ra,106c0 <__stack_chk_fail@plt>

0000000000011f60 <fp_to_bytes>:
   11f60:	6d9c                	c.ld	a5,24(a1)
   11f62:	6b87d793          	rev8	a5,a5
   11f66:	e11c                	c.sd	a5,0(a0)
   11f68:	699c                	c.ld	a5,16(a1)
   11f6a:	6b87d793          	rev8	a5,a5
   11f6e:	e51c                	c.sd	a5,8(a0)
   11f70:	659c                	c.ld	a5,8(a1)
   11f72:	6b87d793          	rev8	a5,a5
   11f76:	e91c                	c.sd	a5,16(a0)
   11f78:	619c                	c.ld	a5,0(a1)
   11f7a:	6b87d793          	rev8	a5,a5
   11f7e:	ed1c                	c.sd	a5,24(a0)
   11f80:	8082                	c.jr	ra
   11f82:	0001                	c.addi	zero,0
   11f84:	00000013          	addi	zero,zero,0
   11f88:	00000013          	addi	zero,zero,0
   11f8c:	00000013          	addi	zero,zero,0
   11f90:	00000013          	addi	zero,zero,0
   11f94:	00000013          	addi	zero,zero,0
   11f98:	00000013          	addi	zero,zero,0
   11f9c:	00000013          	addi	zero,zero,0

0000000000011fa0 <fp_mont_set_zero>:
   11fa0:	00053023          	sd	zero,0(a0)
   11fa4:	00053423          	sd	zero,8(a0)
   11fa8:	00053823          	sd	zero,16(a0)
   11fac:	00053c23          	sd	zero,24(a0)
   11fb0:	8082                	c.jr	ra
   11fb2:	00000013          	addi	zero,zero,0
   11fb6:	00000013          	addi	zero,zero,0
   11fba:	00000013          	addi	zero,zero,0
   11fbe:	0001                	c.addi	zero,0

0000000000011fc0 <fp_mont_set_one>:
   11fc0:	67ed                	c.lui	a5,0x1b
   11fc2:	81878793          	addi	a5,a5,-2024 # 1a818 <FP_MONT_ONE>
   11fc6:	6390                	c.ld	a2,0(a5)
   11fc8:	6794                	c.ld	a3,8(a5)
   11fca:	6b98                	c.ld	a4,16(a5)
   11fcc:	6f9c                	c.ld	a5,24(a5)
   11fce:	e110                	c.sd	a2,0(a0)
   11fd0:	e514                	c.sd	a3,8(a0)
   11fd2:	e918                	c.sd	a4,16(a0)
   11fd4:	ed1c                	c.sd	a5,24(a0)
   11fd6:	8082                	c.jr	ra
   11fd8:	00000013          	addi	zero,zero,0
   11fdc:	00000013          	addi	zero,zero,0

0000000000011fe0 <fp_mul_4x4_u512_ct>:
   11fe0:	711d                	c.addi16sp	sp,-96
   11fe2:	eca2                	c.sdsp	s0,88(sp)
   11fe4:	e8a6                	c.sdsp	s1,80(sp)
   11fe6:	e4ca                	c.sdsp	s2,72(sp)
   11fe8:	e0ce                	c.sdsp	s3,64(sp)
   11fea:	fc52                	c.sdsp	s4,56(sp)
   11fec:	f856                	c.sdsp	s5,48(sp)
   11fee:	f45a                	c.sdsp	s6,40(sp)
   11ff0:	f05e                	c.sdsp	s7,32(sp)
   11ff2:	ec62                	c.sdsp	s8,24(sp)
   11ff4:	e866                	c.sdsp	s9,16(sp)
   11ff6:	e46a                	c.sdsp	s10,8(sp)
   11ff8:	e06e                	c.sdsp	s11,0(sp)
   11ffa:	00063883          	ld	a7,0(a2)
   11ffe:	00863283          	ld	t0,8(a2)
   12002:	0005b803          	ld	a6,0(a1)
   12006:	0085b383          	ld	t2,8(a1)
   1200a:	0105bf83          	ld	t6,16(a1)
   1200e:	031837b3          	mulhu	a5,a6,a7
   12012:	0185be03          	ld	t3,24(a1)
   12016:	03028733          	mul	a4,t0,a6
   1201a:	01863e83          	ld	t4,24(a2)
   1201e:	031386b3          	mul	a3,t2,a7
   12022:	01063f03          	ld	t5,16(a2)
   12026:	0302b333          	mulhu	t1,t0,a6
   1202a:	0313b5b3          	mulhu	a1,t2,a7
   1202e:	00f70633          	add	a2,a4,a5
   12032:	030f04b3          	mul	s1,t5,a6
   12036:	00e63733          	sltu	a4,a2,a4
   1203a:	9636                	c.add	a2,a3
   1203c:	971a                	c.add	a4,t1
   1203e:	00d636b3          	sltu	a3,a2,a3
   12042:	972e                	c.add	a4,a1
   12044:	030f3933          	mulhu	s2,t5,a6
   12048:	00e68333          	add	t1,a3,a4
   1204c:	02538ab3          	mul	s5,t2,t0
   12050:	00b737b3          	sltu	a5,a4,a1
   12054:	00d336b3          	sltu	a3,t1,a3
   12058:	0253b433          	mulhu	s0,t2,t0
   1205c:	8fd5                	c.or	a5,a3
   1205e:	031f89b3          	mul	s3,t6,a7
   12062:	9326                	c.add	t1,s1
   12064:	0ff7f793          	andi	a5,a5,255
   12068:	031fba33          	mulhu	s4,t6,a7
   1206c:	009334b3          	sltu	s1,t1,s1
   12070:	97ca                	c.add	a5,s2
   12072:	97a6                	c.add	a5,s1
   12074:	9356                	c.add	t1,s5
   12076:	00f405b3          	add	a1,s0,a5
   1207a:	01533ab3          	sltu	s5,t1,s5
   1207e:	00ba8b33          	add	s6,s5,a1
   12082:	934e                	c.add	t1,s3
   12084:	016a0733          	add	a4,s4,s6
   12088:	013339b3          	sltu	s3,t1,s3
   1208c:	030e8933          	mul	s2,t4,a6
   12090:	00e986b3          	add	a3,s3,a4
   12094:	0085b5b3          	sltu	a1,a1,s0
   12098:	015b3433          	sltu	s0,s6,s5
   1209c:	8c4d                	c.or	s0,a1
   1209e:	030ebb33          	mulhu	s6,t4,a6
   120a2:	014735b3          	sltu	a1,a4,s4
   120a6:	0136ba33          	sltu	s4,a3,s3
   120aa:	0ff47713          	andi	a4,s0,255
   120ae:	027f09b3          	mul	s3,t5,t2
   120b2:	0097b7b3          	sltu	a5,a5,s1
   120b6:	0145e5b3          	or	a1,a1,s4
   120ba:	027f3bb3          	mulhu	s7,t5,t2
   120be:	97ba                	c.add	a5,a4
   120c0:	0ff5f593          	andi	a1,a1,255
   120c4:	025f8cb3          	mul	s9,t6,t0
   120c8:	96ca                	c.add	a3,s2
   120ca:	95be                	c.add	a1,a5
   120cc:	025fbc33          	mulhu	s8,t6,t0
   120d0:	0126b933          	sltu	s2,a3,s2
   120d4:	95da                	c.add	a1,s6
   120d6:	031e07b3          	mul	a5,t3,a7
   120da:	00b90a33          	add	s4,s2,a1
   120de:	96ce                	c.add	a3,s3
   120e0:	031e3733          	mulhu	a4,t3,a7
   120e4:	014b8ab3          	add	s5,s7,s4
   120e8:	0136b9b3          	sltu	s3,a3,s3
   120ec:	96e6                	c.add	a3,s9
   120ee:	015984b3          	add	s1,s3,s5
   120f2:	0196bcb3          	sltu	s9,a3,s9
   120f6:	009c0433          	add	s0,s8,s1
   120fa:	96be                	c.add	a3,a5
   120fc:	008c8d33          	add	s10,s9,s0
   12100:	00f6bdb3          	sltu	s11,a3,a5
   12104:	017abab3          	sltu	s5,s5,s7
   12108:	01a707b3          	add	a5,a4,s10
   1210c:	012a3a33          	sltu	s4,s4,s2
   12110:	0134b4b3          	sltu	s1,s1,s3
   12114:	0165b5b3          	sltu	a1,a1,s6
   12118:	027e8933          	mul	s2,t4,t2
   1211c:	00fd89b3          	add	s3,s11,a5
   12120:	019d3d33          	sltu	s10,s10,s9
   12124:	009ae4b3          	or	s1,s5,s1
   12128:	0145e5b3          	or	a1,a1,s4
   1212c:	01843433          	sltu	s0,s0,s8
   12130:	027eb3b3          	mulhu	t2,t4,t2
   12134:	0ff5f593          	andi	a1,a1,255
   12138:	01a46433          	or	s0,s0,s10
   1213c:	00e7b733          	sltu	a4,a5,a4
   12140:	0ff4f493          	andi	s1,s1,255
   12144:	01b9b7b3          	sltu	a5,s3,s11
   12148:	03ef8b33          	mul	s6,t6,t5
   1214c:	94ae                	c.add	s1,a1
   1214e:	8f5d                	c.or	a4,a5
   12150:	0ff47413          	andi	s0,s0,255
   12154:	03efba33          	mulhu	s4,t6,t5
   12158:	9426                	c.add	s0,s1
   1215a:	0ff77713          	andi	a4,a4,255
   1215e:	025e04b3          	mul	s1,t3,t0
   12162:	013905b3          	add	a1,s2,s3
   12166:	9722                	c.add	a4,s0
   12168:	025e3ab3          	mulhu	s5,t3,t0
   1216c:	0125b933          	sltu	s2,a1,s2
   12170:	971e                	c.add	a4,t2
   12172:	00e90bb3          	add	s7,s2,a4
   12176:	95da                	c.add	a1,s6
   12178:	017a02b3          	add	t0,s4,s7
   1217c:	0165bb33          	sltu	s6,a1,s6
   12180:	005b0c33          	add	s8,s6,t0
   12184:	95a6                	c.add	a1,s1
   12186:	018a87b3          	add	a5,s5,s8
   1218a:	0095b9b3          	sltu	s3,a1,s1
   1218e:	03fe8433          	mul	s0,t4,t6
   12192:	00f984b3          	add	s1,s3,a5
   12196:	016c3c33          	sltu	s8,s8,s6
   1219a:	012bbbb3          	sltu	s7,s7,s2
   1219e:	0142b2b3          	sltu	t0,t0,s4
   121a2:	00773733          	sltu	a4,a4,t2
   121a6:	03febfb3          	mulhu	t6,t4,t6
   121aa:	0134b9b3          	sltu	s3,s1,s3
   121ae:	0182e2b3          	or	t0,t0,s8
   121b2:	01776733          	or	a4,a4,s7
   121b6:	0157b7b3          	sltu	a5,a5,s5
   121ba:	03ee03b3          	mul	t2,t3,t5
   121be:	0ff77713          	andi	a4,a4,255
   121c2:	0137e7b3          	or	a5,a5,s3
   121c6:	0ff2f293          	andi	t0,t0,255
   121ca:	03ee3f33          	mulhu	t5,t3,t5
   121ce:	92ba                	c.add	t0,a4
   121d0:	0ff7f793          	andi	a5,a5,255
   121d4:	94a2                	c.add	s1,s0
   121d6:	9796                	c.add	a5,t0
   121d8:	0084b433          	sltu	s0,s1,s0
   121dc:	97fe                	c.add	a5,t6
   121de:	00f40933          	add	s2,s0,a5
   121e2:	009382b3          	add	t0,t2,s1
   121e6:	012f0733          	add	a4,t5,s2
   121ea:	03de04b3          	mul	s1,t3,t4
   121ee:	0072b3b3          	sltu	t2,t0,t2
   121f2:	03de3e33          	mulhu	t3,t3,t4
   121f6:	00893933          	sltu	s2,s2,s0
   121fa:	00e38eb3          	add	t4,t2,a4
   121fe:	01f7b7b3          	sltu	a5,a5,t6
   12202:	01e73733          	sltu	a4,a4,t5
   12206:	0127e7b3          	or	a5,a5,s2
   1220a:	007eb3b3          	sltu	t2,t4,t2
   1220e:	03180833          	mul	a6,a6,a7
   12212:	0ff7f793          	andi	a5,a5,255
   12216:	00776733          	or	a4,a4,t2
   1221a:	6466                	c.ldsp	s0,88(sp)
   1221c:	01d488b3          	add	a7,s1,t4
   12220:	97f2                	c.add	a5,t3
   12222:	0ff77713          	andi	a4,a4,255
   12226:	0098b4b3          	sltu	s1,a7,s1
   1222a:	97ba                	c.add	a5,a4
   1222c:	6926                	c.ldsp	s2,72(sp)
   1222e:	97a6                	c.add	a5,s1
   12230:	6986                	c.ldsp	s3,64(sp)
   12232:	64c6                	c.ldsp	s1,80(sp)
   12234:	01053023          	sd	a6,0(a0)
   12238:	e510                	c.sd	a2,8(a0)
   1223a:	00653823          	sd	t1,16(a0)
   1223e:	ed14                	c.sd	a3,24(a0)
   12240:	f10c                	c.sd	a1,32(a0)
   12242:	02553423          	sd	t0,40(a0)
   12246:	03153823          	sd	a7,48(a0)
   1224a:	fd1c                	c.sd	a5,56(a0)
   1224c:	7a62                	c.ldsp	s4,56(sp)
   1224e:	7ac2                	c.ldsp	s5,48(sp)
   12250:	7b22                	c.ldsp	s6,40(sp)
   12252:	7b82                	c.ldsp	s7,32(sp)
   12254:	6c62                	c.ldsp	s8,24(sp)
   12256:	6cc2                	c.ldsp	s9,16(sp)
   12258:	6d22                	c.ldsp	s10,8(sp)
   1225a:	6d82                	c.ldsp	s11,0(sp)
   1225c:	6125                	c.addi16sp	sp,96
   1225e:	8082                	c.jr	ra

0000000000012260 <fp_mont_reduce_ct>:
   12260:	de0ff06f          	jal	zero,11840 <fp_mont_reduce>
   12264:	00000013          	addi	zero,zero,0
   12268:	00000013          	addi	zero,zero,0
   1226c:	00000013          	addi	zero,zero,0
   12270:	00000013          	addi	zero,zero,0
   12274:	00000013          	addi	zero,zero,0
   12278:	00000013          	addi	zero,zero,0
   1227c:	00000013          	addi	zero,zero,0

0000000000012280 <fp_mont_mul_ct>:
   12280:	7171                	c.addi16sp	sp,-176
   12282:	f122                	c.sdsp	s0,160(sp)
   12284:	842a                	c.mv	s0,a0
   12286:	ed26                	c.sdsp	s1,152(sp)
   12288:	850a                	c.mv	a0,sp
   1228a:	0001d4b7          	lui	s1,0x1d
   1228e:	e004b783          	ld	a5,-512(s1) # 1ce00 <__stack_chk_guard@GLIBC_2.27>
   12292:	e53e                	c.sdsp	a5,136(sp)
   12294:	4781                	c.li	a5,0
   12296:	f506                	c.sdsp	ra,168(sp)
   12298:	d49ff0ef          	jal	ra,11fe0 <fp_mul_4x4_u512_ct>
   1229c:	6782                	c.ldsp	a5,0(sp)
   1229e:	008c                	c.addi4spn	a1,sp,64
   122a0:	8522                	c.mv	a0,s0
   122a2:	e102                	c.sdsp	zero,128(sp)
   122a4:	e0be                	c.sdsp	a5,64(sp)
   122a6:	67a2                	c.ldsp	a5,8(sp)
   122a8:	e4be                	c.sdsp	a5,72(sp)
   122aa:	67c2                	c.ldsp	a5,16(sp)
   122ac:	e8be                	c.sdsp	a5,80(sp)
   122ae:	67e2                	c.ldsp	a5,24(sp)
   122b0:	ecbe                	c.sdsp	a5,88(sp)
   122b2:	7782                	c.ldsp	a5,32(sp)
   122b4:	f0be                	c.sdsp	a5,96(sp)
   122b6:	77a2                	c.ldsp	a5,40(sp)
   122b8:	f4be                	c.sdsp	a5,104(sp)
   122ba:	77c2                	c.ldsp	a5,48(sp)
   122bc:	f8be                	c.sdsp	a5,112(sp)
   122be:	77e2                	c.ldsp	a5,56(sp)
   122c0:	fcbe                	c.sdsp	a5,120(sp)
   122c2:	d7eff0ef          	jal	ra,11840 <fp_mont_reduce>
   122c6:	672a                	c.ldsp	a4,136(sp)
   122c8:	e004b783          	ld	a5,-512(s1)
   122cc:	8fb9                	c.xor	a5,a4
   122ce:	4701                	c.li	a4,0
   122d0:	e791                	c.bnez	a5,122dc <fp_mont_mul_ct+0x5c>
   122d2:	70aa                	c.ldsp	ra,168(sp)
   122d4:	740a                	c.ldsp	s0,160(sp)
   122d6:	64ea                	c.ldsp	s1,152(sp)
   122d8:	614d                	c.addi16sp	sp,176
   122da:	8082                	c.jr	ra
   122dc:	be4fe0ef          	jal	ra,106c0 <__stack_chk_fail@plt>

00000000000122e0 <fp_mont_inv>:
   122e0:	7121                	c.addi16sp	sp,-448
   122e2:	f34a                	c.sdsp	s2,416(sp)
   122e4:	892a                	c.mv	s2,a0
   122e6:	ef4e                	c.sdsp	s3,408(sp)
   122e8:	0028                	c.addi4spn	a0,sp,8
   122ea:	0001d9b7          	lui	s3,0x1d
   122ee:	e009b783          	ld	a5,-512(s3) # 1ce00 <__stack_chk_guard@GLIBC_2.27>
   122f2:	e73e                	c.sdsp	a5,392(sp)
   122f4:	4781                	c.li	a5,0
   122f6:	ff06                	c.sdsp	ra,440(sp)
   122f8:	fb22                	c.sdsp	s0,432(sp)
   122fa:	441d                	c.li	s0,7
   122fc:	f726                	c.sdsp	s1,424(sp)
   122fe:	84ae                	c.mv	s1,a1
   12300:	181060ef          	jal	ra,18c80 <fp_mont_sqr>
   12304:	002c                	c.addi4spn	a1,sp,8
   12306:	8626                	c.mv	a2,s1
   12308:	852e                	c.mv	a0,a1
   1230a:	402060ef          	jal	ra,1870c <fp_mont_mul>
   1230e:	002c                	c.addi4spn	a1,sp,8
   12310:	1028                	c.addi4spn	a0,sp,40
   12312:	16f060ef          	jal	ra,18c80 <fp_mont_sqr>
   12316:	102c                	c.addi4spn	a1,sp,40
   12318:	852e                	c.mv	a0,a1
   1231a:	167060ef          	jal	ra,18c80 <fp_mont_sqr>
   1231e:	102c                	c.addi4spn	a1,sp,40
   12320:	0030                	c.addi4spn	a2,sp,8
   12322:	852e                	c.mv	a0,a1
   12324:	3e8060ef          	jal	ra,1870c <fp_mont_mul>
   12328:	102c                	c.addi4spn	a1,sp,40
   1232a:	00a8                	c.addi4spn	a0,sp,72
   1232c:	155060ef          	jal	ra,18c80 <fp_mont_sqr>
   12330:	00ac                	c.addi4spn	a1,sp,72
   12332:	852e                	c.mv	a0,a1
   12334:	14d060ef          	jal	ra,18c80 <fp_mont_sqr>
   12338:	00ac                	c.addi4spn	a1,sp,72
   1233a:	852e                	c.mv	a0,a1
   1233c:	145060ef          	jal	ra,18c80 <fp_mont_sqr>
   12340:	00ac                	c.addi4spn	a1,sp,72
   12342:	852e                	c.mv	a0,a1
   12344:	13d060ef          	jal	ra,18c80 <fp_mont_sqr>
   12348:	00ac                	c.addi4spn	a1,sp,72
   1234a:	1030                	c.addi4spn	a2,sp,40
   1234c:	852e                	c.mv	a0,a1
   1234e:	3be060ef          	jal	ra,1870c <fp_mont_mul>
   12352:	00ac                	c.addi4spn	a1,sp,72
   12354:	10a8                	c.addi4spn	a0,sp,104
   12356:	12b060ef          	jal	ra,18c80 <fp_mont_sqr>
   1235a:	10ac                	c.addi4spn	a1,sp,104
   1235c:	347d                	c.addiw	s0,-1
   1235e:	852e                	c.mv	a0,a1
   12360:	121060ef          	jal	ra,18c80 <fp_mont_sqr>
   12364:	f87d                	c.bnez	s0,1235a <fp_mont_inv+0x7a>
   12366:	10ac                	c.addi4spn	a1,sp,104
   12368:	00b0                	c.addi4spn	a2,sp,72
   1236a:	852e                	c.mv	a0,a1
   1236c:	443d                	c.li	s0,15
   1236e:	39e060ef          	jal	ra,1870c <fp_mont_mul>
   12372:	10ac                	c.addi4spn	a1,sp,104
   12374:	0128                	c.addi4spn	a0,sp,136
   12376:	10b060ef          	jal	ra,18c80 <fp_mont_sqr>
   1237a:	012c                	c.addi4spn	a1,sp,136
   1237c:	347d                	c.addiw	s0,-1
   1237e:	852e                	c.mv	a0,a1
   12380:	101060ef          	jal	ra,18c80 <fp_mont_sqr>
   12384:	f87d                	c.bnez	s0,1237a <fp_mont_inv+0x9a>
   12386:	012c                	c.addi4spn	a1,sp,136
   12388:	10b0                	c.addi4spn	a2,sp,104
   1238a:	852e                	c.mv	a0,a1
   1238c:	4415                	c.li	s0,5
   1238e:	37e060ef          	jal	ra,1870c <fp_mont_mul>
   12392:	102c                	c.addi4spn	a1,sp,40
   12394:	1128                	c.addi4spn	a0,sp,168
   12396:	0eb060ef          	jal	ra,18c80 <fp_mont_sqr>
   1239a:	112c                	c.addi4spn	a1,sp,168
   1239c:	852e                	c.mv	a0,a1
   1239e:	0e3060ef          	jal	ra,18c80 <fp_mont_sqr>
   123a2:	112c                	c.addi4spn	a1,sp,168
   123a4:	0030                	c.addi4spn	a2,sp,8
   123a6:	852e                	c.mv	a0,a1
   123a8:	364060ef          	jal	ra,1870c <fp_mont_mul>
   123ac:	00ac                	c.addi4spn	a1,sp,72
   123ae:	01a8                	c.addi4spn	a0,sp,200
   123b0:	0d1060ef          	jal	ra,18c80 <fp_mont_sqr>
   123b4:	01ac                	c.addi4spn	a1,sp,200
   123b6:	347d                	c.addiw	s0,-1
   123b8:	852e                	c.mv	a0,a1
   123ba:	0c7060ef          	jal	ra,18c80 <fp_mont_sqr>
   123be:	f87d                	c.bnez	s0,123b4 <fp_mont_inv+0xd4>
   123c0:	01ac                	c.addi4spn	a1,sp,200
   123c2:	1130                	c.addi4spn	a2,sp,168
   123c4:	852e                	c.mv	a0,a1
   123c6:	4435                	c.li	s0,13
   123c8:	344060ef          	jal	ra,1870c <fp_mont_mul>
   123cc:	10ac                	c.addi4spn	a1,sp,104
   123ce:	11a8                	c.addi4spn	a0,sp,232
   123d0:	0b1060ef          	jal	ra,18c80 <fp_mont_sqr>
   123d4:	11ac                	c.addi4spn	a1,sp,232
   123d6:	347d                	c.addiw	s0,-1
   123d8:	852e                	c.mv	a0,a1
   123da:	0a7060ef          	jal	ra,18c80 <fp_mont_sqr>
   123de:	f87d                	c.bnez	s0,123d4 <fp_mont_inv+0xf4>
   123e0:	11ac                	c.addi4spn	a1,sp,232
   123e2:	01b0                	c.addi4spn	a2,sp,200
   123e4:	852e                	c.mv	a0,a1
   123e6:	447d                	c.li	s0,31
   123e8:	324060ef          	jal	ra,1870c <fp_mont_mul>
   123ec:	11ac                	c.addi4spn	a1,sp,232
   123ee:	0228                	c.addi4spn	a0,sp,264
   123f0:	091060ef          	jal	ra,18c80 <fp_mont_sqr>
   123f4:	022c                	c.addi4spn	a1,sp,264
   123f6:	8626                	c.mv	a2,s1
   123f8:	852e                	c.mv	a0,a1
   123fa:	312060ef          	jal	ra,1870c <fp_mont_mul>
   123fe:	012c                	c.addi4spn	a1,sp,136
   12400:	1228                	c.addi4spn	a0,sp,296
   12402:	07f060ef          	jal	ra,18c80 <fp_mont_sqr>
   12406:	122c                	c.addi4spn	a1,sp,296
   12408:	347d                	c.addiw	s0,-1
   1240a:	852e                	c.mv	a0,a1
   1240c:	075060ef          	jal	ra,18c80 <fp_mont_sqr>
   12410:	f87d                	c.bnez	s0,12406 <fp_mont_inv+0x126>
   12412:	122c                	c.addi4spn	a1,sp,296
   12414:	0130                	c.addi4spn	a2,sp,136
   12416:	852e                	c.mv	a0,a1
   12418:	02000413          	addi	s0,zero,32
   1241c:	2f0060ef          	jal	ra,1870c <fp_mont_mul>
   12420:	022c                	c.addi4spn	a1,sp,264
   12422:	12a8                	c.addi4spn	a0,sp,360
   12424:	05d060ef          	jal	ra,18c80 <fp_mont_sqr>
   12428:	12ac                	c.addi4spn	a1,sp,360
   1242a:	347d                	c.addiw	s0,-1
   1242c:	852e                	c.mv	a0,a1
   1242e:	053060ef          	jal	ra,18c80 <fp_mont_sqr>
   12432:	f87d                	c.bnez	s0,12428 <fp_mont_inv+0x148>
   12434:	12b0                	c.addi4spn	a2,sp,360
   12436:	012c                	c.addi4spn	a1,sp,136
   12438:	02a8                	c.addi4spn	a0,sp,328
   1243a:	03f00413          	addi	s0,zero,63
   1243e:	2ce060ef          	jal	ra,1870c <fp_mont_mul>
   12442:	02ac                	c.addi4spn	a1,sp,328
   12444:	852e                	c.mv	a0,a1
   12446:	03b060ef          	jal	ra,18c80 <fp_mont_sqr>
   1244a:	02ac                	c.addi4spn	a1,sp,328
   1244c:	347d                	c.addiw	s0,-1
   1244e:	852e                	c.mv	a0,a1
   12450:	031060ef          	jal	ra,18c80 <fp_mont_sqr>
   12454:	f87d                	c.bnez	s0,1244a <fp_mont_inv+0x16a>
   12456:	02ac                	c.addi4spn	a1,sp,328
   12458:	1230                	c.addi4spn	a2,sp,296
   1245a:	852e                	c.mv	a0,a1
   1245c:	447d                	c.li	s0,31
   1245e:	2ae060ef          	jal	ra,1870c <fp_mont_mul>
   12462:	02ac                	c.addi4spn	a1,sp,328
   12464:	852e                	c.mv	a0,a1
   12466:	01b060ef          	jal	ra,18c80 <fp_mont_sqr>
   1246a:	02ac                	c.addi4spn	a1,sp,328
   1246c:	347d                	c.addiw	s0,-1
   1246e:	852e                	c.mv	a0,a1
   12470:	011060ef          	jal	ra,18c80 <fp_mont_sqr>
   12474:	f87d                	c.bnez	s0,1246a <fp_mont_inv+0x18a>
   12476:	02ac                	c.addi4spn	a1,sp,328
   12478:	0130                	c.addi4spn	a2,sp,136
   1247a:	852e                	c.mv	a0,a1
   1247c:	447d                	c.li	s0,31
   1247e:	28e060ef          	jal	ra,1870c <fp_mont_mul>
   12482:	02ac                	c.addi4spn	a1,sp,328
   12484:	852e                	c.mv	a0,a1
   12486:	7fa060ef          	jal	ra,18c80 <fp_mont_sqr>
   1248a:	02ac                	c.addi4spn	a1,sp,328
   1248c:	347d                	c.addiw	s0,-1
   1248e:	852e                	c.mv	a0,a1
   12490:	7f0060ef          	jal	ra,18c80 <fp_mont_sqr>
   12494:	f87d                	c.bnez	s0,1248a <fp_mont_inv+0x1aa>
   12496:	02ac                	c.addi4spn	a1,sp,328
   12498:	447d                	c.li	s0,31
   1249a:	852e                	c.mv	a0,a1
   1249c:	7e4060ef          	jal	ra,18c80 <fp_mont_sqr>
   124a0:	02ac                	c.addi4spn	a1,sp,328
   124a2:	347d                	c.addiw	s0,-1
   124a4:	852e                	c.mv	a0,a1
   124a6:	7da060ef          	jal	ra,18c80 <fp_mont_sqr>
   124aa:	f87d                	c.bnez	s0,124a0 <fp_mont_inv+0x1c0>
   124ac:	02ac                	c.addi4spn	a1,sp,328
   124ae:	0130                	c.addi4spn	a2,sp,136
   124b0:	852e                	c.mv	a0,a1
   124b2:	4475                	c.li	s0,29
   124b4:	258060ef          	jal	ra,1870c <fp_mont_mul>
   124b8:	02ac                	c.addi4spn	a1,sp,328
   124ba:	852e                	c.mv	a0,a1
   124bc:	7c4060ef          	jal	ra,18c80 <fp_mont_sqr>
   124c0:	02ac                	c.addi4spn	a1,sp,328
   124c2:	347d                	c.addiw	s0,-1
   124c4:	852e                	c.mv	a0,a1
   124c6:	7ba060ef          	jal	ra,18c80 <fp_mont_sqr>
   124ca:	f87d                	c.bnez	s0,124c0 <fp_mont_inv+0x1e0>
   124cc:	02ac                	c.addi4spn	a1,sp,328
   124ce:	11b0                	c.addi4spn	a2,sp,232
   124d0:	852e                	c.mv	a0,a1
   124d2:	23a060ef          	jal	ra,1870c <fp_mont_mul>
   124d6:	02ac                	c.addi4spn	a1,sp,328
   124d8:	852e                	c.mv	a0,a1
   124da:	7a6060ef          	jal	ra,18c80 <fp_mont_sqr>
   124de:	02ac                	c.addi4spn	a1,sp,328
   124e0:	852e                	c.mv	a0,a1
   124e2:	79e060ef          	jal	ra,18c80 <fp_mont_sqr>
   124e6:	8626                	c.mv	a2,s1
   124e8:	02ac                	c.addi4spn	a1,sp,328
   124ea:	854a                	c.mv	a0,s2
   124ec:	220060ef          	jal	ra,1870c <fp_mont_mul>
   124f0:	673a                	c.ldsp	a4,392(sp)
   124f2:	e009b783          	ld	a5,-512(s3)
   124f6:	8fb9                	c.xor	a5,a4
   124f8:	4701                	c.li	a4,0
   124fa:	eb81                	c.bnez	a5,1250a <fp_mont_inv+0x22a>
   124fc:	70fa                	c.ldsp	ra,440(sp)
   124fe:	745a                	c.ldsp	s0,432(sp)
   12500:	74ba                	c.ldsp	s1,424(sp)
   12502:	791a                	c.ldsp	s2,416(sp)
   12504:	69fa                	c.ldsp	s3,408(sp)
   12506:	6139                	c.addi16sp	sp,448
   12508:	8082                	c.jr	ra
   1250a:	9b6fe0ef          	jal	ra,106c0 <__stack_chk_fail@plt>
	...

0000000000012520 <sm2_jacobian_cmov_local>:
   12520:	0005b803          	ld	a6,0(a1)
   12524:	080607bb          	add.uw	a5,a2,zero
   12528:	6114                	c.ld	a3,0(a0)
   1252a:	40f00733          	sub	a4,zero,a5
   1252e:	17fd                	c.addi	a5,-1
   12530:	6510                	c.ld	a2,8(a0)
   12532:	010778b3          	and	a7,a4,a6
   12536:	01853f03          	ld	t5,24(a0)
   1253a:	00d7f833          	and	a6,a5,a3
   1253e:	6914                	c.ld	a3,16(a0)
   12540:	01186833          	or	a6,a6,a7
   12544:	8e7d                	c.and	a2,a5
   12546:	01053023          	sd	a6,0(a0)
   1254a:	01e7ff33          	and	t5,a5,t5
   1254e:	0085b803          	ld	a6,8(a1)
   12552:	8efd                	c.and	a3,a5
   12554:	02053e03          	ld	t3,32(a0)
   12558:	02853303          	ld	t1,40(a0)
   1255c:	01077833          	and	a6,a4,a6
   12560:	03053883          	ld	a7,48(a0)
   12564:	01066633          	or	a2,a2,a6
   12568:	01c7fe33          	and	t3,a5,t3
   1256c:	e510                	c.sd	a2,8(a0)
   1256e:	0067f333          	and	t1,a5,t1
   12572:	6990                	c.ld	a2,16(a1)
   12574:	0117f8b3          	and	a7,a5,a7
   12578:	03853803          	ld	a6,56(a0)
   1257c:	04053f83          	ld	t6,64(a0)
   12580:	8e79                	c.and	a2,a4
   12582:	04853e83          	ld	t4,72(a0)
   12586:	8ed1                	c.or	a3,a2
   12588:	0107f833          	and	a6,a5,a6
   1258c:	e914                	c.sd	a3,16(a0)
   1258e:	6934                	c.ld	a3,80(a0)
   12590:	0185b283          	ld	t0,24(a1)
   12594:	01f7ffb3          	and	t6,a5,t6
   12598:	01d7feb3          	and	t4,a5,t4
   1259c:	00d7f633          	and	a2,a5,a3
   125a0:	005772b3          	and	t0,a4,t0
   125a4:	005f6f33          	or	t5,t5,t0
   125a8:	01e53c23          	sd	t5,24(a0)
   125ac:	7194                	c.ld	a3,32(a1)
   125ae:	8ef9                	c.and	a3,a4
   125b0:	00de66b3          	or	a3,t3,a3
   125b4:	f114                	c.sd	a3,32(a0)
   125b6:	7594                	c.ld	a3,40(a1)
   125b8:	8ef9                	c.and	a3,a4
   125ba:	00d366b3          	or	a3,t1,a3
   125be:	f514                	c.sd	a3,40(a0)
   125c0:	7994                	c.ld	a3,48(a1)
   125c2:	8ef9                	c.and	a3,a4
   125c4:	00d8e6b3          	or	a3,a7,a3
   125c8:	f914                	c.sd	a3,48(a0)
   125ca:	7d94                	c.ld	a3,56(a1)
   125cc:	8ef9                	c.and	a3,a4
   125ce:	00d866b3          	or	a3,a6,a3
   125d2:	fd14                	c.sd	a3,56(a0)
   125d4:	61b4                	c.ld	a3,64(a1)
   125d6:	8ef9                	c.and	a3,a4
   125d8:	01f6e6b3          	or	a3,a3,t6
   125dc:	e134                	c.sd	a3,64(a0)
   125de:	65b4                	c.ld	a3,72(a1)
   125e0:	8ef9                	c.and	a3,a4
   125e2:	01d6e6b3          	or	a3,a3,t4
   125e6:	e534                	c.sd	a3,72(a0)
   125e8:	69b4                	c.ld	a3,80(a1)
   125ea:	8ef9                	c.and	a3,a4
   125ec:	8ed1                	c.or	a3,a2
   125ee:	e934                	c.sd	a3,80(a0)
   125f0:	6d30                	c.ld	a2,88(a0)
   125f2:	6db4                	c.ld	a3,88(a1)
   125f4:	8ff1                	c.and	a5,a2
   125f6:	8f75                	c.and	a4,a3
   125f8:	8fd9                	c.or	a5,a4
   125fa:	ed3c                	c.sd	a5,88(a0)
   125fc:	8082                	c.jr	ra
   125fe:	0001                	c.addi	zero,0

0000000000012600 <sm2_affine_is_infinity>:
   12600:	4128                	c.lw	a0,64(a0)
   12602:	00a03533          	sltu	a0,zero,a0
   12606:	8082                	c.jr	ra
   12608:	00000013          	addi	zero,zero,0
   1260c:	00000013          	addi	zero,zero,0
   12610:	00000013          	addi	zero,zero,0
   12614:	00000013          	addi	zero,zero,0
   12618:	00000013          	addi	zero,zero,0
   1261c:	00000013          	addi	zero,zero,0

0000000000012620 <sm2_jacobian_is_infinity>:
   12620:	04050513          	addi	a0,a0,64
   12624:	edcff06f          	jal	zero,11d00 <fp_is_zero>
   12628:	00000013          	addi	zero,zero,0
   1262c:	00000013          	addi	zero,zero,0
   12630:	00000013          	addi	zero,zero,0
   12634:	00000013          	addi	zero,zero,0
   12638:	00000013          	addi	zero,zero,0
   1263c:	00000013          	addi	zero,zero,0

0000000000012640 <sm2_jacobian_set_infinity>:
   12640:	1141                	c.addi	sp,-16
   12642:	e406                	c.sdsp	ra,8(sp)
   12644:	e022                	c.sdsp	s0,0(sp)
   12646:	842a                	c.mv	s0,a0
   12648:	e78ff0ef          	jal	ra,11cc0 <fp_set_zero>
   1264c:	02040513          	addi	a0,s0,32
   12650:	e90ff0ef          	jal	ra,11ce0 <fp_set_one>
   12654:	04040513          	addi	a0,s0,64
   12658:	6402                	c.ldsp	s0,0(sp)
   1265a:	60a2                	c.ldsp	ra,8(sp)
   1265c:	0141                	c.addi	sp,16
   1265e:	e62ff06f          	jal	zero,11cc0 <fp_set_zero>
   12662:	0001                	c.addi	zero,0
   12664:	00000013          	addi	zero,zero,0
   12668:	00000013          	addi	zero,zero,0
   1266c:	00000013          	addi	zero,zero,0
   12670:	00000013          	addi	zero,zero,0
   12674:	00000013          	addi	zero,zero,0
   12678:	00000013          	addi	zero,zero,0
   1267c:	00000013          	addi	zero,zero,0

0000000000012680 <sm2_curve_init_once_mont>:
   12680:	7171                	c.addi16sp	sp,-176
   12682:	e94a                	c.sdsp	s2,144(sp)
   12684:	8101a783          	lw	a5,-2032(gp) # 1d058 <g_sm2_curve_mont_inited>
   12688:	ed26                	c.sdsp	s1,152(sp)
   1268a:	f506                	c.sdsp	ra,168(sp)
   1268c:	0001d4b7          	lui	s1,0x1d
   12690:	e004b703          	ld	a4,-512(s1) # 1ce00 <__stack_chk_guard@GLIBC_2.27>
   12694:	e53a                	c.sdsp	a4,136(sp)
   12696:	4701                	c.li	a4,0
   12698:	e3bd                	c.bnez	a5,126fe <sm2_curve_init_once_mont+0x7e>
   1269a:	f122                	c.sdsp	s0,160(sp)
   1269c:	0028                	c.addi4spn	a0,sp,8
   1269e:	646d                	c.lui	s0,0x1b
   126a0:	8b840593          	addi	a1,s0,-1864 # 1a8b8 <SM2_A_BYTES>
   126a4:	ebcff0ef          	jal	ra,11d60 <fp_from_bytes>
   126a8:	8b840413          	addi	s0,s0,-1864
   126ac:	02040593          	addi	a1,s0,32
   126b0:	1028                	c.addi4spn	a0,sp,40
   126b2:	eaeff0ef          	jal	ra,11d60 <fp_from_bytes>
   126b6:	04040593          	addi	a1,s0,64
   126ba:	00a8                	c.addi4spn	a0,sp,72
   126bc:	ea4ff0ef          	jal	ra,11d60 <fp_from_bytes>
   126c0:	06040593          	addi	a1,s0,96
   126c4:	10a8                	c.addi4spn	a0,sp,104
   126c6:	e9aff0ef          	jal	ra,11d60 <fp_from_bytes>
   126ca:	002c                	c.addi4spn	a1,sp,8
   126cc:	82818513          	addi	a0,gp,-2008 # 1d070 <SM2_A_MONT>
   126d0:	1f2070ef          	jal	ra,198c2 <fp_to_mont>
   126d4:	82818413          	addi	s0,gp,-2008 # 1d070 <SM2_A_MONT>
   126d8:	02040513          	addi	a0,s0,32
   126dc:	102c                	c.addi4spn	a1,sp,40
   126de:	1e4070ef          	jal	ra,198c2 <fp_to_mont>
   126e2:	04040513          	addi	a0,s0,64
   126e6:	00ac                	c.addi4spn	a1,sp,72
   126e8:	1da070ef          	jal	ra,198c2 <fp_to_mont>
   126ec:	06040513          	addi	a0,s0,96
   126f0:	10ac                	c.addi4spn	a1,sp,104
   126f2:	1d0070ef          	jal	ra,198c2 <fp_to_mont>
   126f6:	740a                	c.ldsp	s0,160(sp)
   126f8:	4785                	c.li	a5,1
   126fa:	80f1a823          	sw	a5,-2032(gp) # 1d058 <g_sm2_curve_mont_inited>
   126fe:	672a                	c.ldsp	a4,136(sp)
   12700:	e004b783          	ld	a5,-512(s1)
   12704:	8fb9                	c.xor	a5,a4
   12706:	4701                	c.li	a4,0
   12708:	e791                	c.bnez	a5,12714 <sm2_curve_init_once_mont+0x94>
   1270a:	70aa                	c.ldsp	ra,168(sp)
   1270c:	64ea                	c.ldsp	s1,152(sp)
   1270e:	694a                	c.ldsp	s2,144(sp)
   12710:	614d                	c.addi16sp	sp,176
   12712:	8082                	c.jr	ra
   12714:	f122                	c.sdsp	s0,160(sp)
   12716:	fabfd0ef          	jal	ra,106c0 <__stack_chk_fail@plt>
   1271a:	00000013          	addi	zero,zero,0
   1271e:	0001                	c.addi	zero,0

0000000000012720 <sm2_curve_init_once>:
   12720:	7171                	c.addi16sp	sp,-176
   12722:	e94a                	c.sdsp	s2,144(sp)
   12724:	8101a783          	lw	a5,-2032(gp) # 1d058 <g_sm2_curve_mont_inited>
   12728:	ed26                	c.sdsp	s1,152(sp)
   1272a:	f506                	c.sdsp	ra,168(sp)
   1272c:	0001d4b7          	lui	s1,0x1d
   12730:	e004b703          	ld	a4,-512(s1) # 1ce00 <__stack_chk_guard@GLIBC_2.27>
   12734:	e53a                	c.sdsp	a4,136(sp)
   12736:	4701                	c.li	a4,0
   12738:	e3bd                	c.bnez	a5,1279e <sm2_curve_init_once+0x7e>
   1273a:	f122                	c.sdsp	s0,160(sp)
   1273c:	0028                	c.addi4spn	a0,sp,8
   1273e:	646d                	c.lui	s0,0x1b
   12740:	8b840593          	addi	a1,s0,-1864 # 1a8b8 <SM2_A_BYTES>
   12744:	e1cff0ef          	jal	ra,11d60 <fp_from_bytes>
   12748:	8b840413          	addi	s0,s0,-1864
   1274c:	02040593          	addi	a1,s0,32
   12750:	1028                	c.addi4spn	a0,sp,40
   12752:	e0eff0ef          	jal	ra,11d60 <fp_from_bytes>
   12756:	04040593          	addi	a1,s0,64
   1275a:	00a8                	c.addi4spn	a0,sp,72
   1275c:	e04ff0ef          	jal	ra,11d60 <fp_from_bytes>
   12760:	06040593          	addi	a1,s0,96
   12764:	10a8                	c.addi4spn	a0,sp,104
   12766:	dfaff0ef          	jal	ra,11d60 <fp_from_bytes>
   1276a:	002c                	c.addi4spn	a1,sp,8
   1276c:	82818513          	addi	a0,gp,-2008 # 1d070 <SM2_A_MONT>
   12770:	152070ef          	jal	ra,198c2 <fp_to_mont>
   12774:	82818413          	addi	s0,gp,-2008 # 1d070 <SM2_A_MONT>
   12778:	02040513          	addi	a0,s0,32
   1277c:	102c                	c.addi4spn	a1,sp,40
   1277e:	144070ef          	jal	ra,198c2 <fp_to_mont>
   12782:	04040513          	addi	a0,s0,64
   12786:	00ac                	c.addi4spn	a1,sp,72
   12788:	13a070ef          	jal	ra,198c2 <fp_to_mont>
   1278c:	06040513          	addi	a0,s0,96
   12790:	10ac                	c.addi4spn	a1,sp,104
   12792:	130070ef          	jal	ra,198c2 <fp_to_mont>
   12796:	740a                	c.ldsp	s0,160(sp)
   12798:	4785                	c.li	a5,1
   1279a:	80f1a823          	sw	a5,-2032(gp) # 1d058 <g_sm2_curve_mont_inited>
   1279e:	672a                	c.ldsp	a4,136(sp)
   127a0:	e004b783          	ld	a5,-512(s1)
   127a4:	8fb9                	c.xor	a5,a4
   127a6:	4701                	c.li	a4,0
   127a8:	e791                	c.bnez	a5,127b4 <sm2_curve_init_once+0x94>
   127aa:	70aa                	c.ldsp	ra,168(sp)
   127ac:	64ea                	c.ldsp	s1,152(sp)
   127ae:	694a                	c.ldsp	s2,144(sp)
   127b0:	614d                	c.addi16sp	sp,176
   127b2:	8082                	c.jr	ra
   127b4:	f122                	c.sdsp	s0,160(sp)
   127b6:	f0bfd0ef          	jal	ra,106c0 <__stack_chk_fail@plt>
   127ba:	00000013          	addi	zero,zero,0
   127be:	0001                	c.addi	zero,0

00000000000127c0 <sm2_get_base_affine>:
   127c0:	7131                	c.addi16sp	sp,-192
   127c2:	e952                	c.sdsp	s4,144(sp)
   127c4:	8101a783          	lw	a5,-2032(gp) # 1d058 <g_sm2_curve_mont_inited>
   127c8:	f526                	c.sdsp	s1,168(sp)
   127ca:	ed4e                	c.sdsp	s3,152(sp)
   127cc:	0001d9b7          	lui	s3,0x1d
   127d0:	fd06                	c.sdsp	ra,184(sp)
   127d2:	e009b703          	ld	a4,-512(s3) # 1ce00 <__stack_chk_guard@GLIBC_2.27>
   127d6:	e53a                	c.sdsp	a4,136(sp)
   127d8:	4701                	c.li	a4,0
   127da:	f922                	c.sdsp	s0,176(sp)
   127dc:	84aa                	c.mv	s1,a0
   127de:	f14a                	c.sdsp	s2,160(sp)
   127e0:	cf95                	c.beqz	a5,1281c <sm2_get_base_affine+0x5c>
   127e2:	86818913          	addi	s2,gp,-1944 # 1d0b0 <SM2_GX_MONT>
   127e6:	88818413          	addi	s0,gp,-1912 # 1d0d0 <SM2_GY_MONT>
   127ea:	85ca                	c.mv	a1,s2
   127ec:	8526                	c.mv	a0,s1
   127ee:	42b060ef          	jal	ra,19418 <fp_from_mont>
   127f2:	85a2                	c.mv	a1,s0
   127f4:	02048513          	addi	a0,s1,32
   127f8:	421060ef          	jal	ra,19418 <fp_from_mont>
   127fc:	0404a023          	sw	zero,64(s1)
   12800:	672a                	c.ldsp	a4,136(sp)
   12802:	e009b783          	ld	a5,-512(s3)
   12806:	8fb9                	c.xor	a5,a4
   12808:	4701                	c.li	a4,0
   1280a:	efa5                	c.bnez	a5,12882 <sm2_get_base_affine+0xc2>
   1280c:	70ea                	c.ldsp	ra,184(sp)
   1280e:	744a                	c.ldsp	s0,176(sp)
   12810:	74aa                	c.ldsp	s1,168(sp)
   12812:	790a                	c.ldsp	s2,160(sp)
   12814:	69ea                	c.ldsp	s3,152(sp)
   12816:	6a4a                	c.ldsp	s4,144(sp)
   12818:	6129                	c.addi16sp	sp,192
   1281a:	8082                	c.jr	ra
   1281c:	0028                	c.addi4spn	a0,sp,8
   1281e:	646d                	c.lui	s0,0x1b
   12820:	8b840593          	addi	a1,s0,-1864 # 1a8b8 <SM2_A_BYTES>
   12824:	8b840413          	addi	s0,s0,-1864
   12828:	d38ff0ef          	jal	ra,11d60 <fp_from_bytes>
   1282c:	02040593          	addi	a1,s0,32
   12830:	1028                	c.addi4spn	a0,sp,40
   12832:	d2eff0ef          	jal	ra,11d60 <fp_from_bytes>
   12836:	04040593          	addi	a1,s0,64
   1283a:	00a8                	c.addi4spn	a0,sp,72
   1283c:	d24ff0ef          	jal	ra,11d60 <fp_from_bytes>
   12840:	06040593          	addi	a1,s0,96
   12844:	10a8                	c.addi4spn	a0,sp,104
   12846:	d1aff0ef          	jal	ra,11d60 <fp_from_bytes>
   1284a:	002c                	c.addi4spn	a1,sp,8
   1284c:	82818513          	addi	a0,gp,-2008 # 1d070 <SM2_A_MONT>
   12850:	072070ef          	jal	ra,198c2 <fp_to_mont>
   12854:	82818413          	addi	s0,gp,-2008 # 1d070 <SM2_A_MONT>
   12858:	02040513          	addi	a0,s0,32
   1285c:	102c                	c.addi4spn	a1,sp,40
   1285e:	064070ef          	jal	ra,198c2 <fp_to_mont>
   12862:	04040913          	addi	s2,s0,64
   12866:	00ac                	c.addi4spn	a1,sp,72
   12868:	854a                	c.mv	a0,s2
   1286a:	058070ef          	jal	ra,198c2 <fp_to_mont>
   1286e:	06040413          	addi	s0,s0,96
   12872:	10ac                	c.addi4spn	a1,sp,104
   12874:	8522                	c.mv	a0,s0
   12876:	04c070ef          	jal	ra,198c2 <fp_to_mont>
   1287a:	4785                	c.li	a5,1
   1287c:	80f1a823          	sw	a5,-2032(gp) # 1d058 <g_sm2_curve_mont_inited>
   12880:	b7ad                	c.j	127ea <sm2_get_base_affine+0x2a>
   12882:	e3ffd0ef          	jal	ra,106c0 <__stack_chk_fail@plt>
   12886:	00000013          	addi	zero,zero,0
   1288a:	00000013          	addi	zero,zero,0
   1288e:	00000013          	addi	zero,zero,0
   12892:	00000013          	addi	zero,zero,0
   12896:	00000013          	addi	zero,zero,0
   1289a:	00000013          	addi	zero,zero,0
   1289e:	0001                	c.addi	zero,0

00000000000128a0 <sm2_get_base_affine_mont>:
   128a0:	7131                	c.addi16sp	sp,-192
   128a2:	e952                	c.sdsp	s4,144(sp)
   128a4:	8101a783          	lw	a5,-2032(gp) # 1d058 <g_sm2_curve_mont_inited>
   128a8:	f526                	c.sdsp	s1,168(sp)
   128aa:	ed4e                	c.sdsp	s3,152(sp)
   128ac:	0001d9b7          	lui	s3,0x1d
   128b0:	fd06                	c.sdsp	ra,184(sp)
   128b2:	e009b703          	ld	a4,-512(s3) # 1ce00 <__stack_chk_guard@GLIBC_2.27>
   128b6:	e53a                	c.sdsp	a4,136(sp)
   128b8:	4701                	c.li	a4,0
   128ba:	f922                	c.sdsp	s0,176(sp)
   128bc:	84aa                	c.mv	s1,a0
   128be:	f14a                	c.sdsp	s2,160(sp)
   128c0:	cf95                	c.beqz	a5,128fc <sm2_get_base_affine_mont+0x5c>
   128c2:	86818913          	addi	s2,gp,-1944 # 1d0b0 <SM2_GX_MONT>
   128c6:	88818413          	addi	s0,gp,-1912 # 1d0d0 <SM2_GY_MONT>
   128ca:	85ca                	c.mv	a1,s2
   128cc:	8526                	c.mv	a0,s1
   128ce:	bd2ff0ef          	jal	ra,11ca0 <fp_copy>
   128d2:	85a2                	c.mv	a1,s0
   128d4:	02048513          	addi	a0,s1,32
   128d8:	bc8ff0ef          	jal	ra,11ca0 <fp_copy>
   128dc:	0404a023          	sw	zero,64(s1)
   128e0:	672a                	c.ldsp	a4,136(sp)
   128e2:	e009b783          	ld	a5,-512(s3)
   128e6:	8fb9                	c.xor	a5,a4
   128e8:	4701                	c.li	a4,0
   128ea:	efa5                	c.bnez	a5,12962 <sm2_get_base_affine_mont+0xc2>
   128ec:	70ea                	c.ldsp	ra,184(sp)
   128ee:	744a                	c.ldsp	s0,176(sp)
   128f0:	74aa                	c.ldsp	s1,168(sp)
   128f2:	790a                	c.ldsp	s2,160(sp)
   128f4:	69ea                	c.ldsp	s3,152(sp)
   128f6:	6a4a                	c.ldsp	s4,144(sp)
   128f8:	6129                	c.addi16sp	sp,192
   128fa:	8082                	c.jr	ra
   128fc:	0028                	c.addi4spn	a0,sp,8
   128fe:	646d                	c.lui	s0,0x1b
   12900:	8b840593          	addi	a1,s0,-1864 # 1a8b8 <SM2_A_BYTES>
   12904:	8b840413          	addi	s0,s0,-1864
   12908:	c58ff0ef          	jal	ra,11d60 <fp_from_bytes>
   1290c:	02040593          	addi	a1,s0,32
   12910:	1028                	c.addi4spn	a0,sp,40
   12912:	c4eff0ef          	jal	ra,11d60 <fp_from_bytes>
   12916:	04040593          	addi	a1,s0,64
   1291a:	00a8                	c.addi4spn	a0,sp,72
   1291c:	c44ff0ef          	jal	ra,11d60 <fp_from_bytes>
   12920:	06040593          	addi	a1,s0,96
   12924:	10a8                	c.addi4spn	a0,sp,104
   12926:	c3aff0ef          	jal	ra,11d60 <fp_from_bytes>
   1292a:	002c                	c.addi4spn	a1,sp,8
   1292c:	82818513          	addi	a0,gp,-2008 # 1d070 <SM2_A_MONT>
   12930:	793060ef          	jal	ra,198c2 <fp_to_mont>
   12934:	82818413          	addi	s0,gp,-2008 # 1d070 <SM2_A_MONT>
   12938:	02040513          	addi	a0,s0,32
   1293c:	102c                	c.addi4spn	a1,sp,40
   1293e:	785060ef          	jal	ra,198c2 <fp_to_mont>
   12942:	04040913          	addi	s2,s0,64
   12946:	00ac                	c.addi4spn	a1,sp,72
   12948:	854a                	c.mv	a0,s2
   1294a:	779060ef          	jal	ra,198c2 <fp_to_mont>
   1294e:	06040413          	addi	s0,s0,96
   12952:	10ac                	c.addi4spn	a1,sp,104
   12954:	8522                	c.mv	a0,s0
   12956:	76d060ef          	jal	ra,198c2 <fp_to_mont>
   1295a:	4785                	c.li	a5,1
   1295c:	80f1a823          	sw	a5,-2032(gp) # 1d058 <g_sm2_curve_mont_inited>
   12960:	b7ad                	c.j	128ca <sm2_get_base_affine_mont+0x2a>
   12962:	d5ffd0ef          	jal	ra,106c0 <__stack_chk_fail@plt>
   12966:	00000013          	addi	zero,zero,0
   1296a:	00000013          	addi	zero,zero,0
   1296e:	00000013          	addi	zero,zero,0
   12972:	00000013          	addi	zero,zero,0
   12976:	00000013          	addi	zero,zero,0
   1297a:	00000013          	addi	zero,zero,0
   1297e:	0001                	c.addi	zero,0

0000000000012980 <sm2_affine_to_mont>:
   12980:	1101                	c.addi	sp,-32
   12982:	e426                	c.sdsp	s1,8(sp)
   12984:	84aa                	c.mv	s1,a0
   12986:	ec06                	c.sdsp	ra,24(sp)
   12988:	41bc                	c.lw	a5,64(a1)
   1298a:	e395                	c.bnez	a5,129ae <sm2_affine_to_mont+0x2e>
   1298c:	e822                	c.sdsp	s0,16(sp)
   1298e:	842e                	c.mv	s0,a1
   12990:	733060ef          	jal	ra,198c2 <fp_to_mont>
   12994:	02040593          	addi	a1,s0,32
   12998:	02048513          	addi	a0,s1,32
   1299c:	727060ef          	jal	ra,198c2 <fp_to_mont>
   129a0:	403c                	c.lw	a5,64(s0)
   129a2:	6442                	c.ldsp	s0,16(sp)
   129a4:	c0bc                	c.sw	a5,64(s1)
   129a6:	60e2                	c.ldsp	ra,24(sp)
   129a8:	64a2                	c.ldsp	s1,8(sp)
   129aa:	6105                	c.addi16sp	sp,32
   129ac:	8082                	c.jr	ra
   129ae:	b12ff0ef          	jal	ra,11cc0 <fp_set_zero>
   129b2:	02048513          	addi	a0,s1,32
   129b6:	b0aff0ef          	jal	ra,11cc0 <fp_set_zero>
   129ba:	4785                	c.li	a5,1
   129bc:	c0bc                	c.sw	a5,64(s1)
   129be:	60e2                	c.ldsp	ra,24(sp)
   129c0:	64a2                	c.ldsp	s1,8(sp)
   129c2:	6105                	c.addi16sp	sp,32
   129c4:	8082                	c.jr	ra
   129c6:	00000013          	addi	zero,zero,0
   129ca:	00000013          	addi	zero,zero,0
   129ce:	00000013          	addi	zero,zero,0
   129d2:	00000013          	addi	zero,zero,0
   129d6:	00000013          	addi	zero,zero,0
   129da:	00000013          	addi	zero,zero,0
   129de:	0001                	c.addi	zero,0

00000000000129e0 <sm2_affine_from_mont>:
   129e0:	1101                	c.addi	sp,-32
   129e2:	e426                	c.sdsp	s1,8(sp)
   129e4:	84aa                	c.mv	s1,a0
   129e6:	ec06                	c.sdsp	ra,24(sp)
   129e8:	41bc                	c.lw	a5,64(a1)
   129ea:	e395                	c.bnez	a5,12a0e <sm2_affine_from_mont+0x2e>
   129ec:	e822                	c.sdsp	s0,16(sp)
   129ee:	842e                	c.mv	s0,a1
   129f0:	229060ef          	jal	ra,19418 <fp_from_mont>
   129f4:	02040593          	addi	a1,s0,32
   129f8:	02048513          	addi	a0,s1,32
   129fc:	21d060ef          	jal	ra,19418 <fp_from_mont>
   12a00:	403c                	c.lw	a5,64(s0)
   12a02:	6442                	c.ldsp	s0,16(sp)
   12a04:	c0bc                	c.sw	a5,64(s1)
   12a06:	60e2                	c.ldsp	ra,24(sp)
   12a08:	64a2                	c.ldsp	s1,8(sp)
   12a0a:	6105                	c.addi16sp	sp,32
   12a0c:	8082                	c.jr	ra
   12a0e:	ab2ff0ef          	jal	ra,11cc0 <fp_set_zero>
   12a12:	02048513          	addi	a0,s1,32
   12a16:	aaaff0ef          	jal	ra,11cc0 <fp_set_zero>
   12a1a:	4785                	c.li	a5,1
   12a1c:	c0bc                	c.sw	a5,64(s1)
   12a1e:	60e2                	c.ldsp	ra,24(sp)
   12a20:	64a2                	c.ldsp	s1,8(sp)
   12a22:	6105                	c.addi16sp	sp,32
   12a24:	8082                	c.jr	ra
   12a26:	00000013          	addi	zero,zero,0
   12a2a:	00000013          	addi	zero,zero,0
   12a2e:	00000013          	addi	zero,zero,0
   12a32:	00000013          	addi	zero,zero,0
   12a36:	00000013          	addi	zero,zero,0
   12a3a:	00000013          	addi	zero,zero,0
   12a3e:	0001                	c.addi	zero,0

0000000000012a40 <sm2_jacobian_set_infinity_mont>:
   12a40:	7131                	c.addi16sp	sp,-192
   12a42:	ed4e                	c.sdsp	s3,152(sp)
   12a44:	8101a783          	lw	a5,-2032(gp) # 1d058 <g_sm2_curve_mont_inited>
   12a48:	f922                	c.sdsp	s0,176(sp)
   12a4a:	f14a                	c.sdsp	s2,160(sp)
   12a4c:	0001d937          	lui	s2,0x1d
   12a50:	fd06                	c.sdsp	ra,184(sp)
   12a52:	e0093703          	ld	a4,-512(s2) # 1ce00 <__stack_chk_guard@GLIBC_2.27>
   12a56:	e53a                	c.sdsp	a4,136(sp)
   12a58:	4701                	c.li	a4,0
   12a5a:	842a                	c.mv	s0,a0
   12a5c:	e3bd                	c.bnez	a5,12ac2 <sm2_jacobian_set_infinity_mont+0x82>
   12a5e:	f526                	c.sdsp	s1,168(sp)
   12a60:	0028                	c.addi4spn	a0,sp,8
   12a62:	64ed                	c.lui	s1,0x1b
   12a64:	8b848593          	addi	a1,s1,-1864 # 1a8b8 <SM2_A_BYTES>
   12a68:	af8ff0ef          	jal	ra,11d60 <fp_from_bytes>
   12a6c:	8b848493          	addi	s1,s1,-1864
   12a70:	02048593          	addi	a1,s1,32
   12a74:	1028                	c.addi4spn	a0,sp,40
   12a76:	aeaff0ef          	jal	ra,11d60 <fp_from_bytes>
   12a7a:	04048593          	addi	a1,s1,64
   12a7e:	00a8                	c.addi4spn	a0,sp,72
   12a80:	ae0ff0ef          	jal	ra,11d60 <fp_from_bytes>
   12a84:	06048593          	addi	a1,s1,96
   12a88:	10a8                	c.addi4spn	a0,sp,104
   12a8a:	ad6ff0ef          	jal	ra,11d60 <fp_from_bytes>
   12a8e:	002c                	c.addi4spn	a1,sp,8
   12a90:	82818513          	addi	a0,gp,-2008 # 1d070 <SM2_A_MONT>
   12a94:	62f060ef          	jal	ra,198c2 <fp_to_mont>
   12a98:	82818493          	addi	s1,gp,-2008 # 1d070 <SM2_A_MONT>
   12a9c:	02048513          	addi	a0,s1,32
   12aa0:	102c                	c.addi4spn	a1,sp,40
   12aa2:	621060ef          	jal	ra,198c2 <fp_to_mont>
   12aa6:	04048513          	addi	a0,s1,64
   12aaa:	00ac                	c.addi4spn	a1,sp,72
   12aac:	617060ef          	jal	ra,198c2 <fp_to_mont>
   12ab0:	06048513          	addi	a0,s1,96
   12ab4:	10ac                	c.addi4spn	a1,sp,104
   12ab6:	60d060ef          	jal	ra,198c2 <fp_to_mont>
   12aba:	74aa                	c.ldsp	s1,168(sp)
   12abc:	4785                	c.li	a5,1
   12abe:	80f1a823          	sw	a5,-2032(gp) # 1d058 <g_sm2_curve_mont_inited>
   12ac2:	8522                	c.mv	a0,s0
   12ac4:	9fcff0ef          	jal	ra,11cc0 <fp_set_zero>
   12ac8:	02040513          	addi	a0,s0,32
   12acc:	65ed                	c.lui	a1,0x1b
   12ace:	81858593          	addi	a1,a1,-2024 # 1a818 <FP_MONT_ONE>
   12ad2:	9ceff0ef          	jal	ra,11ca0 <fp_copy>
   12ad6:	672a                	c.ldsp	a4,136(sp)
   12ad8:	e0093783          	ld	a5,-512(s2)
   12adc:	8fb9                	c.xor	a5,a4
   12ade:	4701                	c.li	a4,0
   12ae0:	eb91                	c.bnez	a5,12af4 <sm2_jacobian_set_infinity_mont+0xb4>
   12ae2:	04040513          	addi	a0,s0,64
   12ae6:	744a                	c.ldsp	s0,176(sp)
   12ae8:	70ea                	c.ldsp	ra,184(sp)
   12aea:	790a                	c.ldsp	s2,160(sp)
   12aec:	69ea                	c.ldsp	s3,152(sp)
   12aee:	6129                	c.addi16sp	sp,192
   12af0:	9d0ff06f          	jal	zero,11cc0 <fp_set_zero>
   12af4:	f526                	c.sdsp	s1,168(sp)
   12af6:	bcbfd0ef          	jal	ra,106c0 <__stack_chk_fail@plt>
   12afa:	00000013          	addi	zero,zero,0
   12afe:	0001                	c.addi	zero,0

0000000000012b00 <sm2_affine_to_jacobian_mont>:
   12b00:	7131                	c.addi16sp	sp,-192
   12b02:	e952                	c.sdsp	s4,144(sp)
   12b04:	8101a783          	lw	a5,-2032(gp) # 1d058 <g_sm2_curve_mont_inited>
   12b08:	f922                	c.sdsp	s0,176(sp)
   12b0a:	f526                	c.sdsp	s1,168(sp)
   12b0c:	842a                	c.mv	s0,a0
   12b0e:	ed4e                	c.sdsp	s3,152(sp)
   12b10:	0001d9b7          	lui	s3,0x1d
   12b14:	fd06                	c.sdsp	ra,184(sp)
   12b16:	e009b703          	ld	a4,-512(s3) # 1ce00 <__stack_chk_guard@GLIBC_2.27>
   12b1a:	e53a                	c.sdsp	a4,136(sp)
   12b1c:	4701                	c.li	a4,0
   12b1e:	84ae                	c.mv	s1,a1
   12b20:	e3bd                	c.bnez	a5,12b86 <sm2_affine_to_jacobian_mont+0x86>
   12b22:	f14a                	c.sdsp	s2,160(sp)
   12b24:	0028                	c.addi4spn	a0,sp,8
   12b26:	696d                	c.lui	s2,0x1b
   12b28:	8b890593          	addi	a1,s2,-1864 # 1a8b8 <SM2_A_BYTES>
   12b2c:	a34ff0ef          	jal	ra,11d60 <fp_from_bytes>
   12b30:	8b890913          	addi	s2,s2,-1864
   12b34:	02090593          	addi	a1,s2,32
   12b38:	1028                	c.addi4spn	a0,sp,40
   12b3a:	a26ff0ef          	jal	ra,11d60 <fp_from_bytes>
   12b3e:	04090593          	addi	a1,s2,64
   12b42:	00a8                	c.addi4spn	a0,sp,72
   12b44:	a1cff0ef          	jal	ra,11d60 <fp_from_bytes>
   12b48:	06090593          	addi	a1,s2,96
   12b4c:	10a8                	c.addi4spn	a0,sp,104
   12b4e:	a12ff0ef          	jal	ra,11d60 <fp_from_bytes>
   12b52:	002c                	c.addi4spn	a1,sp,8
   12b54:	82818513          	addi	a0,gp,-2008 # 1d070 <SM2_A_MONT>
   12b58:	56b060ef          	jal	ra,198c2 <fp_to_mont>
   12b5c:	82818913          	addi	s2,gp,-2008 # 1d070 <SM2_A_MONT>
   12b60:	02090513          	addi	a0,s2,32
   12b64:	102c                	c.addi4spn	a1,sp,40
   12b66:	55d060ef          	jal	ra,198c2 <fp_to_mont>
   12b6a:	04090513          	addi	a0,s2,64
   12b6e:	00ac                	c.addi4spn	a1,sp,72
   12b70:	553060ef          	jal	ra,198c2 <fp_to_mont>
   12b74:	06090513          	addi	a0,s2,96
   12b78:	10ac                	c.addi4spn	a1,sp,104
   12b7a:	549060ef          	jal	ra,198c2 <fp_to_mont>
   12b7e:	790a                	c.ldsp	s2,160(sp)
   12b80:	4785                	c.li	a5,1
   12b82:	80f1a823          	sw	a5,-2032(gp) # 1d058 <g_sm2_curve_mont_inited>
   12b86:	85a6                	c.mv	a1,s1
   12b88:	8522                	c.mv	a0,s0
   12b8a:	539060ef          	jal	ra,198c2 <fp_to_mont>
   12b8e:	02048593          	addi	a1,s1,32
   12b92:	02040513          	addi	a0,s0,32
   12b96:	52d060ef          	jal	ra,198c2 <fp_to_mont>
   12b9a:	10a8                	c.addi4spn	a0,sp,104
   12b9c:	924ff0ef          	jal	ra,11cc0 <fp_set_zero>
   12ba0:	04040513          	addi	a0,s0,64
   12ba4:	65ed                	c.lui	a1,0x1b
   12ba6:	81858593          	addi	a1,a1,-2024 # 1a818 <FP_MONT_ONE>
   12baa:	8f6ff0ef          	jal	ra,11ca0 <fp_copy>
   12bae:	40bc                	c.lw	a5,64(s1)
   12bb0:	672a                	c.ldsp	a4,136(sp)
   12bb2:	e009b303          	ld	t1,-512(s3)
   12bb6:	00674333          	xor	t1,a4,t1
   12bba:	4701                	c.li	a4,0
   12bbc:	05843e03          	ld	t3,88(s0)
   12bc0:	04043883          	ld	a7,64(s0)
   12bc4:	6430                	c.ld	a2,72(s0)
   12bc6:	8b85                	c.andi	a5,1
   12bc8:	6834                	c.ld	a3,80(s0)
   12bca:	40f00733          	sub	a4,zero,a5
   12bce:	17fd                	c.addi	a5,-1
   12bd0:	75a6                	c.ldsp	a1,104(sp)
   12bd2:	0117f8b3          	and	a7,a5,a7
   12bd6:	8e7d                	c.and	a2,a5
   12bd8:	8efd                	c.and	a3,a5
   12bda:	7846                	c.ldsp	a6,112(sp)
   12bdc:	01c7f7b3          	and	a5,a5,t3
   12be0:	7566                	c.ldsp	a0,120(sp)
   12be2:	6e0a                	c.ldsp	t3,128(sp)
   12be4:	8df9                	c.and	a1,a4
   12be6:	01077833          	and	a6,a4,a6
   12bea:	0115e5b3          	or	a1,a1,a7
   12bee:	8d79                	c.and	a0,a4
   12bf0:	01066633          	or	a2,a2,a6
   12bf4:	01c77733          	and	a4,a4,t3
   12bf8:	8ec9                	c.or	a3,a0
   12bfa:	8fd9                	c.or	a5,a4
   12bfc:	e02c                	c.sd	a1,64(s0)
   12bfe:	e430                	c.sd	a2,72(s0)
   12c00:	e834                	c.sd	a3,80(s0)
   12c02:	ec3c                	c.sd	a5,88(s0)
   12c04:	00031963          	bne	t1,zero,12c16 <sm2_affine_to_jacobian_mont+0x116>
   12c08:	70ea                	c.ldsp	ra,184(sp)
   12c0a:	744a                	c.ldsp	s0,176(sp)
   12c0c:	74aa                	c.ldsp	s1,168(sp)
   12c0e:	69ea                	c.ldsp	s3,152(sp)
   12c10:	6a4a                	c.ldsp	s4,144(sp)
   12c12:	6129                	c.addi16sp	sp,192
   12c14:	8082                	c.jr	ra
   12c16:	f14a                	c.sdsp	s2,160(sp)
   12c18:	aa9fd0ef          	jal	ra,106c0 <__stack_chk_fail@plt>
   12c1c:	00000013          	addi	zero,zero,0

0000000000012c20 <sm2_affine_mont_to_jacobian_mont>:
   12c20:	7131                	c.addi16sp	sp,-192
   12c22:	e952                	c.sdsp	s4,144(sp)
   12c24:	8101a783          	lw	a5,-2032(gp) # 1d058 <g_sm2_curve_mont_inited>
   12c28:	f922                	c.sdsp	s0,176(sp)
   12c2a:	f526                	c.sdsp	s1,168(sp)
   12c2c:	842a                	c.mv	s0,a0
   12c2e:	ed4e                	c.sdsp	s3,152(sp)
   12c30:	0001d9b7          	lui	s3,0x1d
   12c34:	fd06                	c.sdsp	ra,184(sp)
   12c36:	e009b703          	ld	a4,-512(s3) # 1ce00 <__stack_chk_guard@GLIBC_2.27>
   12c3a:	e53a                	c.sdsp	a4,136(sp)
   12c3c:	4701                	c.li	a4,0
   12c3e:	84ae                	c.mv	s1,a1
   12c40:	e3bd                	c.bnez	a5,12ca6 <sm2_affine_mont_to_jacobian_mont+0x86>
   12c42:	f14a                	c.sdsp	s2,160(sp)
   12c44:	0028                	c.addi4spn	a0,sp,8
   12c46:	696d                	c.lui	s2,0x1b
   12c48:	8b890593          	addi	a1,s2,-1864 # 1a8b8 <SM2_A_BYTES>
   12c4c:	914ff0ef          	jal	ra,11d60 <fp_from_bytes>
   12c50:	8b890913          	addi	s2,s2,-1864
   12c54:	02090593          	addi	a1,s2,32
   12c58:	1028                	c.addi4spn	a0,sp,40
   12c5a:	906ff0ef          	jal	ra,11d60 <fp_from_bytes>
   12c5e:	04090593          	addi	a1,s2,64
   12c62:	00a8                	c.addi4spn	a0,sp,72
   12c64:	8fcff0ef          	jal	ra,11d60 <fp_from_bytes>
   12c68:	06090593          	addi	a1,s2,96
   12c6c:	10a8                	c.addi4spn	a0,sp,104
   12c6e:	8f2ff0ef          	jal	ra,11d60 <fp_from_bytes>
   12c72:	002c                	c.addi4spn	a1,sp,8
   12c74:	82818513          	addi	a0,gp,-2008 # 1d070 <SM2_A_MONT>
   12c78:	44b060ef          	jal	ra,198c2 <fp_to_mont>
   12c7c:	82818913          	addi	s2,gp,-2008 # 1d070 <SM2_A_MONT>
   12c80:	02090513          	addi	a0,s2,32
   12c84:	102c                	c.addi4spn	a1,sp,40
   12c86:	43d060ef          	jal	ra,198c2 <fp_to_mont>
   12c8a:	04090513          	addi	a0,s2,64
   12c8e:	00ac                	c.addi4spn	a1,sp,72
   12c90:	433060ef          	jal	ra,198c2 <fp_to_mont>
   12c94:	06090513          	addi	a0,s2,96
   12c98:	10ac                	c.addi4spn	a1,sp,104
   12c9a:	429060ef          	jal	ra,198c2 <fp_to_mont>
   12c9e:	790a                	c.ldsp	s2,160(sp)
   12ca0:	4785                	c.li	a5,1
   12ca2:	80f1a823          	sw	a5,-2032(gp) # 1d058 <g_sm2_curve_mont_inited>
   12ca6:	85a6                	c.mv	a1,s1
   12ca8:	8522                	c.mv	a0,s0
   12caa:	ff7fe0ef          	jal	ra,11ca0 <fp_copy>
   12cae:	02048593          	addi	a1,s1,32
   12cb2:	02040513          	addi	a0,s0,32
   12cb6:	febfe0ef          	jal	ra,11ca0 <fp_copy>
   12cba:	10a8                	c.addi4spn	a0,sp,104
   12cbc:	804ff0ef          	jal	ra,11cc0 <fp_set_zero>
   12cc0:	04040513          	addi	a0,s0,64
   12cc4:	65ed                	c.lui	a1,0x1b
   12cc6:	81858593          	addi	a1,a1,-2024 # 1a818 <FP_MONT_ONE>
   12cca:	fd7fe0ef          	jal	ra,11ca0 <fp_copy>
   12cce:	40bc                	c.lw	a5,64(s1)
   12cd0:	672a                	c.ldsp	a4,136(sp)
   12cd2:	e009b303          	ld	t1,-512(s3)
   12cd6:	00674333          	xor	t1,a4,t1
   12cda:	4701                	c.li	a4,0
   12cdc:	05843e03          	ld	t3,88(s0)
   12ce0:	04043883          	ld	a7,64(s0)
   12ce4:	6430                	c.ld	a2,72(s0)
   12ce6:	8b85                	c.andi	a5,1
   12ce8:	6834                	c.ld	a3,80(s0)
   12cea:	40f00733          	sub	a4,zero,a5
   12cee:	17fd                	c.addi	a5,-1
   12cf0:	75a6                	c.ldsp	a1,104(sp)
   12cf2:	0117f8b3          	and	a7,a5,a7
   12cf6:	8e7d                	c.and	a2,a5
   12cf8:	8efd                	c.and	a3,a5
   12cfa:	7846                	c.ldsp	a6,112(sp)
   12cfc:	01c7f7b3          	and	a5,a5,t3
   12d00:	7566                	c.ldsp	a0,120(sp)
   12d02:	6e0a                	c.ldsp	t3,128(sp)
   12d04:	8df9                	c.and	a1,a4
   12d06:	01077833          	and	a6,a4,a6
   12d0a:	0115e5b3          	or	a1,a1,a7
   12d0e:	8d79                	c.and	a0,a4
   12d10:	01066633          	or	a2,a2,a6
   12d14:	01c77733          	and	a4,a4,t3
   12d18:	8ec9                	c.or	a3,a0
   12d1a:	8fd9                	c.or	a5,a4
   12d1c:	e02c                	c.sd	a1,64(s0)
   12d1e:	e430                	c.sd	a2,72(s0)
   12d20:	e834                	c.sd	a3,80(s0)
   12d22:	ec3c                	c.sd	a5,88(s0)
   12d24:	00031963          	bne	t1,zero,12d36 <sm2_affine_mont_to_jacobian_mont+0x116>
   12d28:	70ea                	c.ldsp	ra,184(sp)
   12d2a:	744a                	c.ldsp	s0,176(sp)
   12d2c:	74aa                	c.ldsp	s1,168(sp)
   12d2e:	69ea                	c.ldsp	s3,152(sp)
   12d30:	6a4a                	c.ldsp	s4,144(sp)
   12d32:	6129                	c.addi16sp	sp,192
   12d34:	8082                	c.jr	ra
   12d36:	f14a                	c.sdsp	s2,160(sp)
   12d38:	989fd0ef          	jal	ra,106c0 <__stack_chk_fail@plt>
   12d3c:	00000013          	addi	zero,zero,0

0000000000012d40 <sm2_jacobian_mont_to_affine_mont>:
   12d40:	7121                	c.addi16sp	sp,-448
   12d42:	f726                	c.sdsp	s1,424(sp)
   12d44:	8101a783          	lw	a5,-2032(gp) # 1d058 <g_sm2_curve_mont_inited>
   12d48:	f34a                	c.sdsp	s2,416(sp)
   12d4a:	ef4e                	c.sdsp	s3,408(sp)
   12d4c:	892a                	c.mv	s2,a0
   12d4e:	e756                	c.sdsp	s5,392(sp)
   12d50:	0001dab7          	lui	s5,0x1d
   12d54:	fede                	c.sdsp	s7,376(sp)
   12d56:	e00ab703          	ld	a4,-512(s5) # 1ce00 <__stack_chk_guard@GLIBC_2.27>
   12d5a:	eeba                	c.sdsp	a4,344(sp)
   12d5c:	4701                	c.li	a4,0
   12d5e:	ff06                	c.sdsp	ra,440(sp)
   12d60:	89ae                	c.mv	s3,a1
   12d62:	fb22                	c.sdsp	s0,432(sp)
   12d64:	08810b93          	addi	s7,sp,136
   12d68:	eb52                	c.sdsp	s4,400(sp)
   12d6a:	e35a                	c.sdsp	s6,384(sp)
   12d6c:	fae2                	c.sdsp	s8,368(sp)
   12d6e:	f6e6                	c.sdsp	s9,360(sp)
   12d70:	1a078663          	beq	a5,zero,12f1c <sm2_jacobian_mont_to_affine_mont+0x1dc>
   12d74:	0a810b13          	addi	s6,sp,168
   12d78:	0c810c93          	addi	s9,sp,200
   12d7c:	11010c13          	addi	s8,sp,272
   12d80:	0409ba03          	ld	s4,64(s3)
   12d84:	04098593          	addi	a1,s3,64
   12d88:	0489b683          	ld	a3,72(s3)
   12d8c:	0028                	c.addi4spn	a0,sp,8
   12d8e:	0509b703          	ld	a4,80(s3)
   12d92:	0589b783          	ld	a5,88(s3)
   12d96:	00da6a33          	or	s4,s4,a3
   12d9a:	00ea6a33          	or	s4,s4,a4
   12d9e:	00fa6a33          	or	s4,s4,a5
   12da2:	efffe0ef          	jal	ra,11ca0 <fp_copy>
   12da6:	67a2                	c.ldsp	a5,8(sp)
   12da8:	001a3493          	sltiu	s1,s4,1
   12dac:	fff48413          	addi	s0,s1,-1
   12db0:	4701                	c.li	a4,0
   12db2:	8fe1                	c.and	a5,s0
   12db4:	c481                	c.beqz	s1,12dbc <sm2_jacobian_mont_to_affine_mont+0x7c>
   12db6:	676d                	c.lui	a4,0x1b
   12db8:	81873703          	ld	a4,-2024(a4) # 1a818 <FP_MONT_ONE>
   12dbc:	8fd9                	c.or	a5,a4
   12dbe:	4701                	c.li	a4,0
   12dc0:	e43e                	c.sdsp	a5,8(sp)
   12dc2:	67c2                	c.ldsp	a5,16(sp)
   12dc4:	8fe1                	c.and	a5,s0
   12dc6:	c481                	c.beqz	s1,12dce <sm2_jacobian_mont_to_affine_mont+0x8e>
   12dc8:	676d                	c.lui	a4,0x1b
   12dca:	82073703          	ld	a4,-2016(a4) # 1a820 <FP_MONT_ONE+0x8>
   12dce:	8fd9                	c.or	a5,a4
   12dd0:	4701                	c.li	a4,0
   12dd2:	e83e                	c.sdsp	a5,16(sp)
   12dd4:	67e2                	c.ldsp	a5,24(sp)
   12dd6:	8fe1                	c.and	a5,s0
   12dd8:	c481                	c.beqz	s1,12de0 <sm2_jacobian_mont_to_affine_mont+0xa0>
   12dda:	676d                	c.lui	a4,0x1b
   12ddc:	82873703          	ld	a4,-2008(a4) # 1a828 <FP_MONT_ONE+0x10>
   12de0:	8fd9                	c.or	a5,a4
   12de2:	4701                	c.li	a4,0
   12de4:	ec3e                	c.sdsp	a5,24(sp)
   12de6:	7782                	c.ldsp	a5,32(sp)
   12de8:	8fe1                	c.and	a5,s0
   12dea:	c481                	c.beqz	s1,12df2 <sm2_jacobian_mont_to_affine_mont+0xb2>
   12dec:	676d                	c.lui	a4,0x1b
   12dee:	83073703          	ld	a4,-2000(a4) # 1a830 <FP_MONT_ONE+0x18>
   12df2:	8fd9                	c.or	a5,a4
   12df4:	002c                	c.addi4spn	a1,sp,8
   12df6:	1028                	c.addi4spn	a0,sp,40
   12df8:	f03e                	c.sdsp	a5,32(sp)
   12dfa:	ce6ff0ef          	jal	ra,122e0 <fp_mont_inv>
   12dfe:	102c                	c.addi4spn	a1,sp,40
   12e00:	00a8                	c.addi4spn	a0,sp,72
   12e02:	67f050ef          	jal	ra,18c80 <fp_mont_sqr>
   12e06:	1030                	c.addi4spn	a2,sp,40
   12e08:	00ac                	c.addi4spn	a1,sp,72
   12e0a:	10a8                	c.addi4spn	a0,sp,104
   12e0c:	101050ef          	jal	ra,1870c <fp_mont_mul>
   12e10:	00b0                	c.addi4spn	a2,sp,72
   12e12:	85ce                	c.mv	a1,s3
   12e14:	855e                	c.mv	a0,s7
   12e16:	0f7050ef          	jal	ra,1870c <fp_mont_mul>
   12e1a:	10b0                	c.addi4spn	a2,sp,104
   12e1c:	02098593          	addi	a1,s3,32
   12e20:	855a                	c.mv	a0,s6
   12e22:	0eb050ef          	jal	ra,1870c <fp_mont_mul>
   12e26:	85de                	c.mv	a1,s7
   12e28:	8566                	c.mv	a0,s9
   12e2a:	e77fe0ef          	jal	ra,11ca0 <fp_copy>
   12e2e:	85da                	c.mv	a1,s6
   12e30:	11a8                	c.addi4spn	a0,sp,232
   12e32:	e6ffe0ef          	jal	ra,11ca0 <fp_copy>
   12e36:	10012423          	sw	zero,264(sp)
   12e3a:	8562                	c.mv	a0,s8
   12e3c:	e85fe0ef          	jal	ra,11cc0 <fp_set_zero>
   12e40:	1a08                	c.addi4spn	a0,sp,304
   12e42:	e7ffe0ef          	jal	ra,11cc0 <fp_set_zero>
   12e46:	4781                	c.li	a5,0
   12e48:	c091                	c.beqz	s1,12e4c <sm2_jacobian_mont_to_affine_mont+0x10c>
   12e4a:	67d2                	c.ldsp	a5,272(sp)
   12e4c:	672e                	c.ldsp	a4,200(sp)
   12e4e:	4681                	c.li	a3,0
   12e50:	8f61                	c.and	a4,s0
   12e52:	8f5d                	c.or	a4,a5
   12e54:	67ce                	c.ldsp	a5,208(sp)
   12e56:	e5ba                	c.sdsp	a4,200(sp)
   12e58:	8fe1                	c.and	a5,s0
   12e5a:	c091                	c.beqz	s1,12e5e <sm2_jacobian_mont_to_affine_mont+0x11e>
   12e5c:	66f2                	c.ldsp	a3,280(sp)
   12e5e:	8fd5                	c.or	a5,a3
   12e60:	4701                	c.li	a4,0
   12e62:	e9be                	c.sdsp	a5,208(sp)
   12e64:	67ee                	c.ldsp	a5,216(sp)
   12e66:	8fe1                	c.and	a5,s0
   12e68:	c091                	c.beqz	s1,12e6c <sm2_jacobian_mont_to_affine_mont+0x12c>
   12e6a:	7712                	c.ldsp	a4,288(sp)
   12e6c:	8fd9                	c.or	a5,a4
   12e6e:	4701                	c.li	a4,0
   12e70:	edbe                	c.sdsp	a5,216(sp)
   12e72:	778e                	c.ldsp	a5,224(sp)
   12e74:	8fe1                	c.and	a5,s0
   12e76:	c091                	c.beqz	s1,12e7a <sm2_jacobian_mont_to_affine_mont+0x13a>
   12e78:	7732                	c.ldsp	a4,296(sp)
   12e7a:	8fd9                	c.or	a5,a4
   12e7c:	4681                	c.li	a3,0
   12e7e:	f1be                	c.sdsp	a5,224(sp)
   12e80:	c091                	c.beqz	s1,12e84 <sm2_jacobian_mont_to_affine_mont+0x144>
   12e82:	76d2                	c.ldsp	a3,304(sp)
   12e84:	77ae                	c.ldsp	a5,232(sp)
   12e86:	4701                	c.li	a4,0
   12e88:	8fe1                	c.and	a5,s0
   12e8a:	8edd                	c.or	a3,a5
   12e8c:	f5b6                	c.sdsp	a3,232(sp)
   12e8e:	c091                	c.beqz	s1,12e92 <sm2_jacobian_mont_to_affine_mont+0x152>
   12e90:	7772                	c.ldsp	a4,312(sp)
   12e92:	76ce                	c.ldsp	a3,240(sp)
   12e94:	4781                	c.li	a5,0
   12e96:	8ee1                	c.and	a3,s0
   12e98:	8f55                	c.or	a4,a3
   12e9a:	f9ba                	c.sdsp	a4,240(sp)
   12e9c:	c091                	c.beqz	s1,12ea0 <sm2_jacobian_mont_to_affine_mont+0x160>
   12e9e:	6796                	c.ldsp	a5,320(sp)
   12ea0:	776e                	c.ldsp	a4,248(sp)
   12ea2:	4681                	c.li	a3,0
   12ea4:	8f61                	c.and	a4,s0
   12ea6:	8fd9                	c.or	a5,a4
   12ea8:	6712                	c.ldsp	a4,256(sp)
   12eaa:	fdbe                	c.sdsp	a5,248(sp)
   12eac:	8c79                	c.and	s0,a4
   12eae:	c091                	c.beqz	s1,12eb2 <sm2_jacobian_mont_to_affine_mont+0x172>
   12eb0:	66b6                	c.ldsp	a3,328(sp)
   12eb2:	8c55                	c.or	s0,a3
   12eb4:	e222                	c.sdsp	s0,256(sp)
   12eb6:	000a1563          	bne	s4,zero,12ec0 <sm2_jacobian_mont_to_affine_mont+0x180>
   12eba:	4785                	c.li	a5,1
   12ebc:	10f12423          	sw	a5,264(sp)
   12ec0:	67ae                	c.ldsp	a5,200(sp)
   12ec2:	00f93023          	sd	a5,0(s2)
   12ec6:	67ce                	c.ldsp	a5,208(sp)
   12ec8:	00f93423          	sd	a5,8(s2)
   12ecc:	67ee                	c.ldsp	a5,216(sp)
   12ece:	00f93823          	sd	a5,16(s2)
   12ed2:	778e                	c.ldsp	a5,224(sp)
   12ed4:	00f93c23          	sd	a5,24(s2)
   12ed8:	77ae                	c.ldsp	a5,232(sp)
   12eda:	02f93023          	sd	a5,32(s2)
   12ede:	77ce                	c.ldsp	a5,240(sp)
   12ee0:	02f93423          	sd	a5,40(s2)
   12ee4:	77ee                	c.ldsp	a5,248(sp)
   12ee6:	02f93823          	sd	a5,48(s2)
   12eea:	6776                	c.ldsp	a4,344(sp)
   12eec:	e00ab783          	ld	a5,-512(s5)
   12ef0:	8fb9                	c.xor	a5,a4
   12ef2:	4701                	c.li	a4,0
   12ef4:	6712                	c.ldsp	a4,256(sp)
   12ef6:	02e93c23          	sd	a4,56(s2)
   12efa:	6732                	c.ldsp	a4,264(sp)
   12efc:	04e93023          	sd	a4,64(s2)
   12f00:	e7c9                	c.bnez	a5,12f8a <sm2_jacobian_mont_to_affine_mont+0x24a>
   12f02:	70fa                	c.ldsp	ra,440(sp)
   12f04:	745a                	c.ldsp	s0,432(sp)
   12f06:	74ba                	c.ldsp	s1,424(sp)
   12f08:	791a                	c.ldsp	s2,416(sp)
   12f0a:	69fa                	c.ldsp	s3,408(sp)
   12f0c:	6a5a                	c.ldsp	s4,400(sp)
   12f0e:	6aba                	c.ldsp	s5,392(sp)
   12f10:	6b1a                	c.ldsp	s6,384(sp)
   12f12:	7bf6                	c.ldsp	s7,376(sp)
   12f14:	7c56                	c.ldsp	s8,368(sp)
   12f16:	7cb6                	c.ldsp	s9,360(sp)
   12f18:	6139                	c.addi16sp	sp,448
   12f1a:	8082                	c.jr	ra
   12f1c:	855e                	c.mv	a0,s7
   12f1e:	646d                	c.lui	s0,0x1b
   12f20:	8b840593          	addi	a1,s0,-1864 # 1a8b8 <SM2_A_BYTES>
   12f24:	0a810b13          	addi	s6,sp,168
   12f28:	8b840413          	addi	s0,s0,-1864
   12f2c:	e35fe0ef          	jal	ra,11d60 <fp_from_bytes>
   12f30:	02040593          	addi	a1,s0,32
   12f34:	855a                	c.mv	a0,s6
   12f36:	e2bfe0ef          	jal	ra,11d60 <fp_from_bytes>
   12f3a:	0c810c93          	addi	s9,sp,200
   12f3e:	04040593          	addi	a1,s0,64
   12f42:	8566                	c.mv	a0,s9
   12f44:	e1dfe0ef          	jal	ra,11d60 <fp_from_bytes>
   12f48:	11010c13          	addi	s8,sp,272
   12f4c:	06040593          	addi	a1,s0,96
   12f50:	8562                	c.mv	a0,s8
   12f52:	e0ffe0ef          	jal	ra,11d60 <fp_from_bytes>
   12f56:	85de                	c.mv	a1,s7
   12f58:	82818513          	addi	a0,gp,-2008 # 1d070 <SM2_A_MONT>
   12f5c:	167060ef          	jal	ra,198c2 <fp_to_mont>
   12f60:	82818413          	addi	s0,gp,-2008 # 1d070 <SM2_A_MONT>
   12f64:	85da                	c.mv	a1,s6
   12f66:	02040513          	addi	a0,s0,32
   12f6a:	159060ef          	jal	ra,198c2 <fp_to_mont>
   12f6e:	85e6                	c.mv	a1,s9
   12f70:	04040513          	addi	a0,s0,64
   12f74:	14f060ef          	jal	ra,198c2 <fp_to_mont>
   12f78:	85e2                	c.mv	a1,s8
   12f7a:	06040513          	addi	a0,s0,96
   12f7e:	145060ef          	jal	ra,198c2 <fp_to_mont>
   12f82:	4785                	c.li	a5,1
   12f84:	80f1a823          	sw	a5,-2032(gp) # 1d058 <g_sm2_curve_mont_inited>
   12f88:	bbe5                	c.j	12d80 <sm2_jacobian_mont_to_affine_mont+0x40>
   12f8a:	f36fd0ef          	jal	ra,106c0 <__stack_chk_fail@plt>
   12f8e:	00000013          	addi	zero,zero,0
   12f92:	00000013          	addi	zero,zero,0
   12f96:	00000013          	addi	zero,zero,0
   12f9a:	00000013          	addi	zero,zero,0
   12f9e:	0001                	c.addi	zero,0

0000000000012fa0 <sm2_jacobian_to_affine_mont>:
   12fa0:	7121                	c.addi16sp	sp,-448
   12fa2:	f726                	c.sdsp	s1,424(sp)
   12fa4:	8101a783          	lw	a5,-2032(gp) # 1d058 <g_sm2_curve_mont_inited>
   12fa8:	f34a                	c.sdsp	s2,416(sp)
   12faa:	ef4e                	c.sdsp	s3,408(sp)
   12fac:	892a                	c.mv	s2,a0
   12fae:	e756                	c.sdsp	s5,392(sp)
   12fb0:	0001dab7          	lui	s5,0x1d
   12fb4:	fede                	c.sdsp	s7,376(sp)
   12fb6:	e00ab703          	ld	a4,-512(s5) # 1ce00 <__stack_chk_guard@GLIBC_2.27>
   12fba:	eeba                	c.sdsp	a4,344(sp)
   12fbc:	4701                	c.li	a4,0
   12fbe:	ff06                	c.sdsp	ra,440(sp)
   12fc0:	89ae                	c.mv	s3,a1
   12fc2:	fb22                	c.sdsp	s0,432(sp)
   12fc4:	08810b93          	addi	s7,sp,136
   12fc8:	eb52                	c.sdsp	s4,400(sp)
   12fca:	e35a                	c.sdsp	s6,384(sp)
   12fcc:	fae2                	c.sdsp	s8,368(sp)
   12fce:	f6e6                	c.sdsp	s9,360(sp)
   12fd0:	1a078663          	beq	a5,zero,1317c <sm2_jacobian_to_affine_mont+0x1dc>
   12fd4:	0a810b13          	addi	s6,sp,168
   12fd8:	0c810c93          	addi	s9,sp,200
   12fdc:	11010c13          	addi	s8,sp,272
   12fe0:	0409ba03          	ld	s4,64(s3)
   12fe4:	04098593          	addi	a1,s3,64
   12fe8:	0489b683          	ld	a3,72(s3)
   12fec:	0028                	c.addi4spn	a0,sp,8
   12fee:	0509b703          	ld	a4,80(s3)
   12ff2:	0589b783          	ld	a5,88(s3)
   12ff6:	00da6a33          	or	s4,s4,a3
   12ffa:	00ea6a33          	or	s4,s4,a4
   12ffe:	00fa6a33          	or	s4,s4,a5
   13002:	c9ffe0ef          	jal	ra,11ca0 <fp_copy>
   13006:	67a2                	c.ldsp	a5,8(sp)
   13008:	001a3493          	sltiu	s1,s4,1
   1300c:	fff48413          	addi	s0,s1,-1
   13010:	4701                	c.li	a4,0
   13012:	8fe1                	c.and	a5,s0
   13014:	c481                	c.beqz	s1,1301c <sm2_jacobian_to_affine_mont+0x7c>
   13016:	676d                	c.lui	a4,0x1b
   13018:	81873703          	ld	a4,-2024(a4) # 1a818 <FP_MONT_ONE>
   1301c:	8fd9                	c.or	a5,a4
   1301e:	4701                	c.li	a4,0
   13020:	e43e                	c.sdsp	a5,8(sp)
   13022:	67c2                	c.ldsp	a5,16(sp)
   13024:	8fe1                	c.and	a5,s0
   13026:	c481                	c.beqz	s1,1302e <sm2_jacobian_to_affine_mont+0x8e>
   13028:	676d                	c.lui	a4,0x1b
   1302a:	82073703          	ld	a4,-2016(a4) # 1a820 <FP_MONT_ONE+0x8>
   1302e:	8fd9                	c.or	a5,a4
   13030:	4701                	c.li	a4,0
   13032:	e83e                	c.sdsp	a5,16(sp)
   13034:	67e2                	c.ldsp	a5,24(sp)
   13036:	8fe1                	c.and	a5,s0
   13038:	c481                	c.beqz	s1,13040 <sm2_jacobian_to_affine_mont+0xa0>
   1303a:	676d                	c.lui	a4,0x1b
   1303c:	82873703          	ld	a4,-2008(a4) # 1a828 <FP_MONT_ONE+0x10>
   13040:	8fd9                	c.or	a5,a4
   13042:	4701                	c.li	a4,0
   13044:	ec3e                	c.sdsp	a5,24(sp)
   13046:	7782                	c.ldsp	a5,32(sp)
   13048:	8fe1                	c.and	a5,s0
   1304a:	c481                	c.beqz	s1,13052 <sm2_jacobian_to_affine_mont+0xb2>
   1304c:	676d                	c.lui	a4,0x1b
   1304e:	83073703          	ld	a4,-2000(a4) # 1a830 <FP_MONT_ONE+0x18>
   13052:	8fd9                	c.or	a5,a4
   13054:	002c                	c.addi4spn	a1,sp,8
   13056:	1028                	c.addi4spn	a0,sp,40
   13058:	f03e                	c.sdsp	a5,32(sp)
   1305a:	a86ff0ef          	jal	ra,122e0 <fp_mont_inv>
   1305e:	102c                	c.addi4spn	a1,sp,40
   13060:	00a8                	c.addi4spn	a0,sp,72
   13062:	41f050ef          	jal	ra,18c80 <fp_mont_sqr>
   13066:	1030                	c.addi4spn	a2,sp,40
   13068:	00ac                	c.addi4spn	a1,sp,72
   1306a:	10a8                	c.addi4spn	a0,sp,104
   1306c:	6a0050ef          	jal	ra,1870c <fp_mont_mul>
   13070:	00b0                	c.addi4spn	a2,sp,72
   13072:	85ce                	c.mv	a1,s3
   13074:	855e                	c.mv	a0,s7
   13076:	696050ef          	jal	ra,1870c <fp_mont_mul>
   1307a:	10b0                	c.addi4spn	a2,sp,104
   1307c:	02098593          	addi	a1,s3,32
   13080:	855a                	c.mv	a0,s6
   13082:	68a050ef          	jal	ra,1870c <fp_mont_mul>
   13086:	85de                	c.mv	a1,s7
   13088:	8566                	c.mv	a0,s9
   1308a:	38e060ef          	jal	ra,19418 <fp_from_mont>
   1308e:	85da                	c.mv	a1,s6
   13090:	11a8                	c.addi4spn	a0,sp,232
   13092:	386060ef          	jal	ra,19418 <fp_from_mont>
   13096:	10012423          	sw	zero,264(sp)
   1309a:	8562                	c.mv	a0,s8
   1309c:	c25fe0ef          	jal	ra,11cc0 <fp_set_zero>
   130a0:	1a08                	c.addi4spn	a0,sp,304
   130a2:	c1ffe0ef          	jal	ra,11cc0 <fp_set_zero>
   130a6:	4781                	c.li	a5,0
   130a8:	c091                	c.beqz	s1,130ac <sm2_jacobian_to_affine_mont+0x10c>
   130aa:	67d2                	c.ldsp	a5,272(sp)
   130ac:	672e                	c.ldsp	a4,200(sp)
   130ae:	4681                	c.li	a3,0
   130b0:	8f61                	c.and	a4,s0
   130b2:	8f5d                	c.or	a4,a5
   130b4:	67ce                	c.ldsp	a5,208(sp)
   130b6:	e5ba                	c.sdsp	a4,200(sp)
   130b8:	8fe1                	c.and	a5,s0
   130ba:	c091                	c.beqz	s1,130be <sm2_jacobian_to_affine_mont+0x11e>
   130bc:	66f2                	c.ldsp	a3,280(sp)
   130be:	8fd5                	c.or	a5,a3
   130c0:	4701                	c.li	a4,0
   130c2:	e9be                	c.sdsp	a5,208(sp)
   130c4:	67ee                	c.ldsp	a5,216(sp)
   130c6:	8fe1                	c.and	a5,s0
   130c8:	c091                	c.beqz	s1,130cc <sm2_jacobian_to_affine_mont+0x12c>
   130ca:	7712                	c.ldsp	a4,288(sp)
   130cc:	8fd9                	c.or	a5,a4
   130ce:	4701                	c.li	a4,0
   130d0:	edbe                	c.sdsp	a5,216(sp)
   130d2:	778e                	c.ldsp	a5,224(sp)
   130d4:	8fe1                	c.and	a5,s0
   130d6:	c091                	c.beqz	s1,130da <sm2_jacobian_to_affine_mont+0x13a>
   130d8:	7732                	c.ldsp	a4,296(sp)
   130da:	8fd9                	c.or	a5,a4
   130dc:	4681                	c.li	a3,0
   130de:	f1be                	c.sdsp	a5,224(sp)
   130e0:	c091                	c.beqz	s1,130e4 <sm2_jacobian_to_affine_mont+0x144>
   130e2:	76d2                	c.ldsp	a3,304(sp)
   130e4:	77ae                	c.ldsp	a5,232(sp)
   130e6:	4701                	c.li	a4,0
   130e8:	8fe1                	c.and	a5,s0
   130ea:	8edd                	c.or	a3,a5
   130ec:	f5b6                	c.sdsp	a3,232(sp)
   130ee:	c091                	c.beqz	s1,130f2 <sm2_jacobian_to_affine_mont+0x152>
   130f0:	7772                	c.ldsp	a4,312(sp)
   130f2:	76ce                	c.ldsp	a3,240(sp)
   130f4:	4781                	c.li	a5,0
   130f6:	8ee1                	c.and	a3,s0
   130f8:	8f55                	c.or	a4,a3
   130fa:	f9ba                	c.sdsp	a4,240(sp)
   130fc:	c091                	c.beqz	s1,13100 <sm2_jacobian_to_affine_mont+0x160>
   130fe:	6796                	c.ldsp	a5,320(sp)
   13100:	776e                	c.ldsp	a4,248(sp)
   13102:	4681                	c.li	a3,0
   13104:	8f61                	c.and	a4,s0
   13106:	8fd9                	c.or	a5,a4
   13108:	6712                	c.ldsp	a4,256(sp)
   1310a:	fdbe                	c.sdsp	a5,248(sp)
   1310c:	8c79                	c.and	s0,a4
   1310e:	c091                	c.beqz	s1,13112 <sm2_jacobian_to_affine_mont+0x172>
   13110:	66b6                	c.ldsp	a3,328(sp)
   13112:	8c55                	c.or	s0,a3
   13114:	e222                	c.sdsp	s0,256(sp)
   13116:	000a1563          	bne	s4,zero,13120 <sm2_jacobian_to_affine_mont+0x180>
   1311a:	4785                	c.li	a5,1
   1311c:	10f12423          	sw	a5,264(sp)
   13120:	67ae                	c.ldsp	a5,200(sp)
   13122:	00f93023          	sd	a5,0(s2)
   13126:	67ce                	c.ldsp	a5,208(sp)
   13128:	00f93423          	sd	a5,8(s2)
   1312c:	67ee                	c.ldsp	a5,216(sp)
   1312e:	00f93823          	sd	a5,16(s2)
   13132:	778e                	c.ldsp	a5,224(sp)
   13134:	00f93c23          	sd	a5,24(s2)
   13138:	77ae                	c.ldsp	a5,232(sp)
   1313a:	02f93023          	sd	a5,32(s2)
   1313e:	77ce                	c.ldsp	a5,240(sp)
   13140:	02f93423          	sd	a5,40(s2)
   13144:	77ee                	c.ldsp	a5,248(sp)
   13146:	02f93823          	sd	a5,48(s2)
   1314a:	6776                	c.ldsp	a4,344(sp)
   1314c:	e00ab783          	ld	a5,-512(s5)
   13150:	8fb9                	c.xor	a5,a4
   13152:	4701                	c.li	a4,0
   13154:	6712                	c.ldsp	a4,256(sp)
   13156:	02e93c23          	sd	a4,56(s2)
   1315a:	6732                	c.ldsp	a4,264(sp)
   1315c:	04e93023          	sd	a4,64(s2)
   13160:	e7c9                	c.bnez	a5,131ea <sm2_jacobian_to_affine_mont+0x24a>
   13162:	70fa                	c.ldsp	ra,440(sp)
   13164:	745a                	c.ldsp	s0,432(sp)
   13166:	74ba                	c.ldsp	s1,424(sp)
   13168:	791a                	c.ldsp	s2,416(sp)
   1316a:	69fa                	c.ldsp	s3,408(sp)
   1316c:	6a5a                	c.ldsp	s4,400(sp)
   1316e:	6aba                	c.ldsp	s5,392(sp)
   13170:	6b1a                	c.ldsp	s6,384(sp)
   13172:	7bf6                	c.ldsp	s7,376(sp)
   13174:	7c56                	c.ldsp	s8,368(sp)
   13176:	7cb6                	c.ldsp	s9,360(sp)
   13178:	6139                	c.addi16sp	sp,448
   1317a:	8082                	c.jr	ra
   1317c:	855e                	c.mv	a0,s7
   1317e:	646d                	c.lui	s0,0x1b
   13180:	8b840593          	addi	a1,s0,-1864 # 1a8b8 <SM2_A_BYTES>
   13184:	0a810b13          	addi	s6,sp,168
   13188:	8b840413          	addi	s0,s0,-1864
   1318c:	bd5fe0ef          	jal	ra,11d60 <fp_from_bytes>
   13190:	02040593          	addi	a1,s0,32
   13194:	855a                	c.mv	a0,s6
   13196:	bcbfe0ef          	jal	ra,11d60 <fp_from_bytes>
   1319a:	0c810c93          	addi	s9,sp,200
   1319e:	04040593          	addi	a1,s0,64
   131a2:	8566                	c.mv	a0,s9
   131a4:	bbdfe0ef          	jal	ra,11d60 <fp_from_bytes>
   131a8:	11010c13          	addi	s8,sp,272
   131ac:	06040593          	addi	a1,s0,96
   131b0:	8562                	c.mv	a0,s8
   131b2:	baffe0ef          	jal	ra,11d60 <fp_from_bytes>
   131b6:	85de                	c.mv	a1,s7
   131b8:	82818513          	addi	a0,gp,-2008 # 1d070 <SM2_A_MONT>
   131bc:	706060ef          	jal	ra,198c2 <fp_to_mont>
   131c0:	82818413          	addi	s0,gp,-2008 # 1d070 <SM2_A_MONT>
   131c4:	85da                	c.mv	a1,s6
   131c6:	02040513          	addi	a0,s0,32
   131ca:	6f8060ef          	jal	ra,198c2 <fp_to_mont>
   131ce:	85e6                	c.mv	a1,s9
   131d0:	04040513          	addi	a0,s0,64
   131d4:	6ee060ef          	jal	ra,198c2 <fp_to_mont>
   131d8:	85e2                	c.mv	a1,s8
   131da:	06040513          	addi	a0,s0,96
   131de:	6e4060ef          	jal	ra,198c2 <fp_to_mont>
   131e2:	4785                	c.li	a5,1
   131e4:	80f1a823          	sw	a5,-2032(gp) # 1d058 <g_sm2_curve_mont_inited>
   131e8:	bbe5                	c.j	12fe0 <sm2_jacobian_to_affine_mont+0x40>
   131ea:	cd6fd0ef          	jal	ra,106c0 <__stack_chk_fail@plt>
   131ee:	00000013          	addi	zero,zero,0
   131f2:	00000013          	addi	zero,zero,0
   131f6:	00000013          	addi	zero,zero,0
   131fa:	00000013          	addi	zero,zero,0
   131fe:	0001                	c.addi	zero,0

0000000000013200 <sm2_double_jm_a_minus3_mont>:
   13200:	d3010113          	addi	sp,sp,-720
   13204:	2c813023          	sd	s0,704(sp)
   13208:	842a                	c.mv	s0,a0
   1320a:	2a913c23          	sd	s1,696(sp)
   1320e:	84ae                	c.mv	s1,a1
   13210:	2b213823          	sd	s2,688(sp)
   13214:	2b313423          	sd	s3,680(sp)
   13218:	2b413023          	sd	s4,672(sp)
   1321c:	0001da37          	lui	s4,0x1d
   13220:	2c113423          	sd	ra,712(sp)
   13224:	e00a3683          	ld	a3,-512(s4) # 1ce00 <__stack_chk_guard@GLIBC_2.27>
   13228:	28d13423          	sd	a3,648(sp)
   1322c:	4681                	c.li	a3,0
   1322e:	29513c23          	sd	s5,664(sp)
   13232:	8101a703          	lw	a4,-2032(gp) # 1d058 <g_sm2_curve_mont_inited>
   13236:	29613823          	sd	s6,656(sp)
   1323a:	61bc                	c.ld	a5,64(a1)
   1323c:	65ac                	c.ld	a1,72(a1)
   1323e:	68b0                	c.ld	a2,80(s1)
   13240:	6cb4                	c.ld	a3,88(s1)
   13242:	00b7e933          	or	s2,a5,a1
   13246:	00c96933          	or	s2,s2,a2
   1324a:	00d96933          	or	s2,s2,a3
   1324e:	00193913          	sltiu	s2,s2,1
   13252:	e32d                	c.bnez	a4,132b4 <sm2_double_jm_a_minus3_mont+0xb4>
   13254:	03a8                	c.addi4spn	a0,sp,456
   13256:	6aed                	c.lui	s5,0x1b
   13258:	8b8a8593          	addi	a1,s5,-1864 # 1a8b8 <SM2_A_BYTES>
   1325c:	8b8a8a93          	addi	s5,s5,-1864
   13260:	b01fe0ef          	jal	ra,11d60 <fp_from_bytes>
   13264:	020a8593          	addi	a1,s5,32
   13268:	13a8                	c.addi4spn	a0,sp,488
   1326a:	af7fe0ef          	jal	ra,11d60 <fp_from_bytes>
   1326e:	040a8593          	addi	a1,s5,64
   13272:	0428                	c.addi4spn	a0,sp,520
   13274:	aedfe0ef          	jal	ra,11d60 <fp_from_bytes>
   13278:	060a8593          	addi	a1,s5,96
   1327c:	1428                	c.addi4spn	a0,sp,552
   1327e:	ae3fe0ef          	jal	ra,11d60 <fp_from_bytes>
   13282:	03ac                	c.addi4spn	a1,sp,456
   13284:	82818513          	addi	a0,gp,-2008 # 1d070 <SM2_A_MONT>
   13288:	63a060ef          	jal	ra,198c2 <fp_to_mont>
   1328c:	82818a93          	addi	s5,gp,-2008 # 1d070 <SM2_A_MONT>
   13290:	13ac                	c.addi4spn	a1,sp,488
   13292:	020a8513          	addi	a0,s5,32
   13296:	62c060ef          	jal	ra,198c2 <fp_to_mont>
   1329a:	042c                	c.addi4spn	a1,sp,520
   1329c:	040a8513          	addi	a0,s5,64
   132a0:	622060ef          	jal	ra,198c2 <fp_to_mont>
   132a4:	142c                	c.addi4spn	a1,sp,552
   132a6:	060a8513          	addi	a0,s5,96
   132aa:	618060ef          	jal	ra,198c2 <fp_to_mont>
   132ae:	4785                	c.li	a5,1
   132b0:	80f1a823          	sw	a5,-2032(gp) # 1d058 <g_sm2_curve_mont_inited>
   132b4:	1428                	c.addi4spn	a0,sp,552
   132b6:	02048a93          	addi	s5,s1,32
   132ba:	a07fe0ef          	jal	ra,11cc0 <fp_set_zero>
   132be:	04048b13          	addi	s6,s1,64
   132c2:	4789                	c.li	a5,2
   132c4:	142c                	c.addi4spn	a1,sp,552
   132c6:	12a8                	c.addi4spn	a0,sp,360
   132c8:	22f13423          	sd	a5,552(sp)
   132cc:	5f6060ef          	jal	ra,198c2 <fp_to_mont>
   132d0:	1428                	c.addi4spn	a0,sp,552
   132d2:	9effe0ef          	jal	ra,11cc0 <fp_set_zero>
   132d6:	478d                	c.li	a5,3
   132d8:	142c                	c.addi4spn	a1,sp,552
   132da:	0328                	c.addi4spn	a0,sp,392
   132dc:	22f13423          	sd	a5,552(sp)
   132e0:	5e2060ef          	jal	ra,198c2 <fp_to_mont>
   132e4:	1428                	c.addi4spn	a0,sp,552
   132e6:	9dbfe0ef          	jal	ra,11cc0 <fp_set_zero>
   132ea:	47a1                	c.li	a5,8
   132ec:	142c                	c.addi4spn	a1,sp,552
   132ee:	1328                	c.addi4spn	a0,sp,424
   132f0:	22f13423          	sd	a5,552(sp)
   132f4:	5ce060ef          	jal	ra,198c2 <fp_to_mont>
   132f8:	85a6                	c.mv	a1,s1
   132fa:	0028                	c.addi4spn	a0,sp,8
   132fc:	185050ef          	jal	ra,18c80 <fp_mont_sqr>
   13300:	85d6                	c.mv	a1,s5
   13302:	1028                	c.addi4spn	a0,sp,40
   13304:	17d050ef          	jal	ra,18c80 <fp_mont_sqr>
   13308:	102c                	c.addi4spn	a1,sp,40
   1330a:	00a8                	c.addi4spn	a0,sp,72
   1330c:	175050ef          	jal	ra,18c80 <fp_mont_sqr>
   13310:	1030                	c.addi4spn	a2,sp,40
   13312:	85a6                	c.mv	a1,s1
   13314:	10a8                	c.addi4spn	a0,sp,104
   13316:	3f6050ef          	jal	ra,1870c <fp_mont_mul>
   1331a:	10b0                	c.addi4spn	a2,sp,104
   1331c:	85b2                	c.mv	a1,a2
   1331e:	8532                	c.mv	a0,a2
   13320:	194050ef          	jal	ra,184b4 <fp_mont_add>
   13324:	10b0                	c.addi4spn	a2,sp,104
   13326:	85b2                	c.mv	a1,a2
   13328:	8532                	c.mv	a0,a2
   1332a:	18a050ef          	jal	ra,184b4 <fp_mont_add>
   1332e:	85da                	c.mv	a1,s6
   13330:	1128                	c.addi4spn	a0,sp,168
   13332:	14f050ef          	jal	ra,18c80 <fp_mont_sqr>
   13336:	1130                	c.addi4spn	a2,sp,168
   13338:	85a6                	c.mv	a1,s1
   1333a:	01a8                	c.addi4spn	a0,sp,200
   1333c:	27c050ef          	jal	ra,185b8 <fp_mont_sub>
   13340:	1130                	c.addi4spn	a2,sp,168
   13342:	85a6                	c.mv	a1,s1
   13344:	11a8                	c.addi4spn	a0,sp,232
   13346:	16e050ef          	jal	ra,184b4 <fp_mont_add>
   1334a:	11b0                	c.addi4spn	a2,sp,232
   1334c:	01ac                	c.addi4spn	a1,sp,200
   1334e:	0128                	c.addi4spn	a0,sp,136
   13350:	3bc050ef          	jal	ra,1870c <fp_mont_mul>
   13354:	012c                	c.addi4spn	a1,sp,136
   13356:	0330                	c.addi4spn	a2,sp,392
   13358:	852e                	c.mv	a0,a1
   1335a:	3b2050ef          	jal	ra,1870c <fp_mont_mul>
   1335e:	012c                	c.addi4spn	a1,sp,136
   13360:	0228                	c.addi4spn	a0,sp,264
   13362:	11f050ef          	jal	ra,18c80 <fp_mont_sqr>
   13366:	022c                	c.addi4spn	a1,sp,264
   13368:	10b0                	c.addi4spn	a2,sp,104
   1336a:	852e                	c.mv	a0,a1
   1336c:	24c050ef          	jal	ra,185b8 <fp_mont_sub>
   13370:	022c                	c.addi4spn	a1,sp,264
   13372:	10b0                	c.addi4spn	a2,sp,104
   13374:	852e                	c.mv	a0,a1
   13376:	242050ef          	jal	ra,185b8 <fp_mont_sub>
   1337a:	0230                	c.addi4spn	a2,sp,264
   1337c:	10ac                	c.addi4spn	a1,sp,104
   1337e:	01a8                	c.addi4spn	a0,sp,200
   13380:	238050ef          	jal	ra,185b8 <fp_mont_sub>
   13384:	01b0                	c.addi4spn	a2,sp,200
   13386:	012c                	c.addi4spn	a1,sp,136
   13388:	1228                	c.addi4spn	a0,sp,296
   1338a:	382050ef          	jal	ra,1870c <fp_mont_mul>
   1338e:	1330                	c.addi4spn	a2,sp,424
   13390:	00ac                	c.addi4spn	a1,sp,72
   13392:	11a8                	c.addi4spn	a0,sp,232
   13394:	378050ef          	jal	ra,1870c <fp_mont_mul>
   13398:	122c                	c.addi4spn	a1,sp,296
   1339a:	11b0                	c.addi4spn	a2,sp,232
   1339c:	852e                	c.mv	a0,a1
   1339e:	21a050ef          	jal	ra,185b8 <fp_mont_sub>
   133a2:	865a                	c.mv	a2,s6
   133a4:	85d6                	c.mv	a1,s5
   133a6:	02a8                	c.addi4spn	a0,sp,328
   133a8:	364050ef          	jal	ra,1870c <fp_mont_mul>
   133ac:	02ac                	c.addi4spn	a1,sp,328
   133ae:	12b0                	c.addi4spn	a2,sp,360
   133b0:	852e                	c.mv	a0,a1
   133b2:	35a050ef          	jal	ra,1870c <fp_mont_mul>
   133b6:	67b2                	c.ldsp	a5,264(sp)
   133b8:	6756                	c.ldsp	a4,336(sp)
   133ba:	e01c                	c.sd	a5,0(s0)
   133bc:	67d2                	c.ldsp	a5,272(sp)
   133be:	e438                	c.sd	a4,72(s0)
   133c0:	6776                	c.ldsp	a4,344(sp)
   133c2:	e41c                	c.sd	a5,8(s0)
   133c4:	67f2                	c.ldsp	a5,280(sp)
   133c6:	e838                	c.sd	a4,80(s0)
   133c8:	7716                	c.ldsp	a4,352(sp)
   133ca:	e81c                	c.sd	a5,16(s0)
   133cc:	7792                	c.ldsp	a5,288(sp)
   133ce:	ec38                	c.sd	a4,88(s0)
   133d0:	ec1c                	c.sd	a5,24(s0)
   133d2:	77b2                	c.ldsp	a5,296(sp)
   133d4:	f01c                	c.sd	a5,32(s0)
   133d6:	77d2                	c.ldsp	a5,304(sp)
   133d8:	f41c                	c.sd	a5,40(s0)
   133da:	77f2                	c.ldsp	a5,312(sp)
   133dc:	f81c                	c.sd	a5,48(s0)
   133de:	6796                	c.ldsp	a5,320(sp)
   133e0:	fc1c                	c.sd	a5,56(s0)
   133e2:	67b6                	c.ldsp	a5,328(sp)
   133e4:	e03c                	c.sd	a5,64(s0)
   133e6:	8101a783          	lw	a5,-2032(gp) # 1d058 <g_sm2_curve_mont_inited>
   133ea:	e3ad                	c.bnez	a5,1344c <sm2_double_jm_a_minus3_mont+0x24c>
   133ec:	03a8                	c.addi4spn	a0,sp,456
   133ee:	64ed                	c.lui	s1,0x1b
   133f0:	8b848593          	addi	a1,s1,-1864 # 1a8b8 <SM2_A_BYTES>
   133f4:	8b848493          	addi	s1,s1,-1864
   133f8:	969fe0ef          	jal	ra,11d60 <fp_from_bytes>
   133fc:	02048593          	addi	a1,s1,32
   13400:	13a8                	c.addi4spn	a0,sp,488
   13402:	95ffe0ef          	jal	ra,11d60 <fp_from_bytes>
   13406:	04048593          	addi	a1,s1,64
   1340a:	0428                	c.addi4spn	a0,sp,520
   1340c:	955fe0ef          	jal	ra,11d60 <fp_from_bytes>
   13410:	06048593          	addi	a1,s1,96
   13414:	1428                	c.addi4spn	a0,sp,552
   13416:	94bfe0ef          	jal	ra,11d60 <fp_from_bytes>
   1341a:	03ac                	c.addi4spn	a1,sp,456
   1341c:	82818513          	addi	a0,gp,-2008 # 1d070 <SM2_A_MONT>
   13420:	4a2060ef          	jal	ra,198c2 <fp_to_mont>
   13424:	82818493          	addi	s1,gp,-2008 # 1d070 <SM2_A_MONT>
   13428:	13ac                	c.addi4spn	a1,sp,488
   1342a:	02048513          	addi	a0,s1,32
   1342e:	494060ef          	jal	ra,198c2 <fp_to_mont>
   13432:	042c                	c.addi4spn	a1,sp,520
   13434:	04048513          	addi	a0,s1,64
   13438:	48a060ef          	jal	ra,198c2 <fp_to_mont>
   1343c:	142c                	c.addi4spn	a1,sp,552
   1343e:	06048513          	addi	a0,s1,96
   13442:	480060ef          	jal	ra,198c2 <fp_to_mont>
   13446:	4785                	c.li	a5,1
   13448:	80f1a823          	sw	a5,-2032(gp) # 1d058 <g_sm2_curve_mont_inited>
   1344c:	1428                	c.addi4spn	a0,sp,552
   1344e:	873fe0ef          	jal	ra,11cc0 <fp_set_zero>
   13452:	04a8                	c.addi4spn	a0,sp,584
   13454:	65ed                	c.lui	a1,0x1b
   13456:	81858593          	addi	a1,a1,-2024 # 1a818 <FP_MONT_ONE>
   1345a:	847fe0ef          	jal	ra,11ca0 <fp_copy>
   1345e:	14a8                	c.addi4spn	a0,sp,616
   13460:	861fe0ef          	jal	ra,11cc0 <fp_set_zero>
   13464:	864a                	c.mv	a2,s2
   13466:	142c                	c.addi4spn	a1,sp,552
   13468:	8522                	c.mv	a0,s0
   1346a:	8b6ff0ef          	jal	ra,12520 <sm2_jacobian_cmov_local>
   1346e:	28813703          	ld	a4,648(sp)
   13472:	e00a3783          	ld	a5,-512(s4)
   13476:	8fb9                	c.xor	a5,a4
   13478:	4701                	c.li	a4,0
   1347a:	e785                	c.bnez	a5,134a2 <sm2_double_jm_a_minus3_mont+0x2a2>
   1347c:	2c813083          	ld	ra,712(sp)
   13480:	2c013403          	ld	s0,704(sp)
   13484:	2b813483          	ld	s1,696(sp)
   13488:	2b013903          	ld	s2,688(sp)
   1348c:	2a813983          	ld	s3,680(sp)
   13490:	2a013a03          	ld	s4,672(sp)
   13494:	29813a83          	ld	s5,664(sp)
   13498:	29013b03          	ld	s6,656(sp)
   1349c:	2d010113          	addi	sp,sp,720
   134a0:	8082                	c.jr	ra
   134a2:	a1efd0ef          	jal	ra,106c0 <__stack_chk_fail@plt>
   134a6:	00000013          	addi	zero,zero,0
   134aa:	00000013          	addi	zero,zero,0
   134ae:	00000013          	addi	zero,zero,0
   134b2:	00000013          	addi	zero,zero,0
   134b6:	00000013          	addi	zero,zero,0
   134ba:	00000013          	addi	zero,zero,0
   134be:	0001                	c.addi	zero,0

00000000000134c0 <sm2_add_ja_mont>:
   134c0:	c0010113          	addi	sp,sp,-1024
   134c4:	3e113c23          	sd	ra,1016(sp)
   134c8:	3e813823          	sd	s0,1008(sp)
   134cc:	842a                	c.mv	s0,a0
   134ce:	3e913423          	sd	s1,1000(sp)
   134d2:	04058493          	addi	s1,a1,64
   134d6:	3f213023          	sd	s2,992(sp)
   134da:	1028                	c.addi4spn	a0,sp,40
   134dc:	3d413823          	sd	s4,976(sp)
   134e0:	8a32                	c.mv	s4,a2
   134e2:	3d513423          	sd	s5,968(sp)
   134e6:	892e                	c.mv	s2,a1
   134e8:	3b913423          	sd	s9,936(sp)
   134ec:	0001dcb7          	lui	s9,0x1d
   134f0:	39b13c23          	sd	s11,920(sp)
   134f4:	020a0d93          	addi	s11,s4,32
   134f8:	3d313c23          	sd	s3,984(sp)
   134fc:	02090a93          	addi	s5,s2,32
   13500:	3d613023          	sd	s6,960(sp)
   13504:	3b713c23          	sd	s7,952(sp)
   13508:	3ba13023          	sd	s10,928(sp)
   1350c:	65b0                	c.ld	a2,72(a1)
   1350e:	0405b983          	ld	s3,64(a1)
   13512:	69b4                	c.ld	a3,80(a1)
   13514:	6db8                	c.ld	a4,88(a1)
   13516:	85a6                	c.mv	a1,s1
   13518:	040a2783          	lw	a5,64(s4)
   1351c:	00c9e9b3          	or	s3,s3,a2
   13520:	00d9e9b3          	or	s3,s3,a3
   13524:	00e9e9b3          	or	s3,s3,a4
   13528:	e00cb703          	ld	a4,-512(s9) # 1ce00 <__stack_chk_guard@GLIBC_2.27>
   1352c:	38e13423          	sd	a4,904(sp)
   13530:	4701                	c.li	a4,0
   13532:	00f037b3          	sltu	a5,zero,a5
   13536:	0019b993          	sltiu	s3,s3,1
   1353a:	ec3e                	c.sdsp	a5,24(sp)
   1353c:	744050ef          	jal	ra,18c80 <fp_mont_sqr>
   13540:	1030                	c.addi4spn	a2,sp,40
   13542:	85d2                	c.mv	a1,s4
   13544:	10a8                	c.addi4spn	a0,sp,104
   13546:	1c6050ef          	jal	ra,1870c <fp_mont_mul>
   1354a:	8626                	c.mv	a2,s1
   1354c:	102c                	c.addi4spn	a1,sp,40
   1354e:	00a8                	c.addi4spn	a0,sp,72
   13550:	1bc050ef          	jal	ra,1870c <fp_mont_mul>
   13554:	00b0                	c.addi4spn	a2,sp,72
   13556:	85ee                	c.mv	a1,s11
   13558:	0128                	c.addi4spn	a0,sp,136
   1355a:	1b2050ef          	jal	ra,1870c <fp_mont_mul>
   1355e:	864a                	c.mv	a2,s2
   13560:	10ac                	c.addi4spn	a1,sp,104
   13562:	1128                	c.addi4spn	a0,sp,168
   13564:	054050ef          	jal	ra,185b8 <fp_mont_sub>
   13568:	8656                	c.mv	a2,s5
   1356a:	012c                	c.addi4spn	a1,sp,136
   1356c:	01a8                	c.addi4spn	a0,sp,200
   1356e:	04a050ef          	jal	ra,185b8 <fp_mont_sub>
   13572:	1130                	c.addi4spn	a2,sp,168
   13574:	85a6                	c.mv	a1,s1
   13576:	03a8                	c.addi4spn	a0,sp,456
   13578:	194050ef          	jal	ra,1870c <fp_mont_mul>
   1357c:	112c                	c.addi4spn	a1,sp,168
   1357e:	11a8                	c.addi4spn	a0,sp,232
   13580:	700050ef          	jal	ra,18c80 <fp_mont_sqr>
   13584:	1130                	c.addi4spn	a2,sp,168
   13586:	11ac                	c.addi4spn	a1,sp,232
   13588:	0228                	c.addi4spn	a0,sp,264
   1358a:	182050ef          	jal	ra,1870c <fp_mont_mul>
   1358e:	11b0                	c.addi4spn	a2,sp,232
   13590:	85ca                	c.mv	a1,s2
   13592:	1228                	c.addi4spn	a0,sp,296
   13594:	178050ef          	jal	ra,1870c <fp_mont_mul>
   13598:	1230                	c.addi4spn	a2,sp,296
   1359a:	02a8                	c.addi4spn	a0,sp,328
   1359c:	85b2                	c.mv	a1,a2
   1359e:	717040ef          	jal	ra,184b4 <fp_mont_add>
   135a2:	01ac                	c.addi4spn	a1,sp,200
   135a4:	12a8                	c.addi4spn	a0,sp,360
   135a6:	6da050ef          	jal	ra,18c80 <fp_mont_sqr>
   135aa:	0230                	c.addi4spn	a2,sp,264
   135ac:	12ac                	c.addi4spn	a1,sp,360
   135ae:	13a8                	c.addi4spn	a0,sp,488
   135b0:	008050ef          	jal	ra,185b8 <fp_mont_sub>
   135b4:	02b0                	c.addi4spn	a2,sp,328
   135b6:	13ac                	c.addi4spn	a1,sp,488
   135b8:	0328                	c.addi4spn	a0,sp,392
   135ba:	7ff040ef          	jal	ra,185b8 <fp_mont_sub>
   135be:	0330                	c.addi4spn	a2,sp,392
   135c0:	122c                	c.addi4spn	a1,sp,296
   135c2:	13a8                	c.addi4spn	a0,sp,488
   135c4:	7f5040ef          	jal	ra,185b8 <fp_mont_sub>
   135c8:	13b0                	c.addi4spn	a2,sp,488
   135ca:	01ac                	c.addi4spn	a1,sp,200
   135cc:	8532                	c.mv	a0,a2
   135ce:	13e050ef          	jal	ra,1870c <fp_mont_mul>
   135d2:	0230                	c.addi4spn	a2,sp,264
   135d4:	85d6                	c.mv	a1,s5
   135d6:	1328                	c.addi4spn	a0,sp,424
   135d8:	134050ef          	jal	ra,1870c <fp_mont_mul>
   135dc:	1330                	c.addi4spn	a2,sp,424
   135de:	13ac                	c.addi4spn	a1,sp,488
   135e0:	8532                	c.mv	a0,a2
   135e2:	7d7040ef          	jal	ra,185b8 <fp_mont_sub>
   135e6:	64ce                	c.ldsp	s1,208(sp)
   135e8:	774a                	c.ldsp	a4,176(sp)
   135ea:	85ca                	c.mv	a1,s2
   135ec:	77aa                	c.ldsp	a5,168(sp)
   135ee:	14a8                	c.addi4spn	a0,sp,616
   135f0:	66ba                	c.ldsp	a3,392(sp)
   135f2:	8fd9                	c.or	a5,a4
   135f4:	672e                	c.ldsp	a4,200(sp)
   135f6:	e014                	c.sd	a3,0(s0)
   135f8:	66da                	c.ldsp	a3,400(sp)
   135fa:	8cd9                	c.or	s1,a4
   135fc:	776a                	c.ldsp	a4,184(sp)
   135fe:	e414                	c.sd	a3,8(s0)
   13600:	66fa                	c.ldsp	a3,408(sp)
   13602:	8fd9                	c.or	a5,a4
   13604:	676e                	c.ldsp	a4,216(sp)
   13606:	e814                	c.sd	a3,16(s0)
   13608:	769a                	c.ldsp	a3,416(sp)
   1360a:	8cd9                	c.or	s1,a4
   1360c:	670e                	c.ldsp	a4,192(sp)
   1360e:	ec14                	c.sd	a3,24(s0)
   13610:	76ba                	c.ldsp	a3,424(sp)
   13612:	8fd9                	c.or	a5,a4
   13614:	770e                	c.ldsp	a4,224(sp)
   13616:	f014                	c.sd	a3,32(s0)
   13618:	76da                	c.ldsp	a3,432(sp)
   1361a:	8cd9                	c.or	s1,a4
   1361c:	00f4e733          	or	a4,s1,a5
   13620:	009034b3          	sltu	s1,zero,s1
   13624:	0017b793          	sltiu	a5,a5,1
   13628:	00173713          	sltiu	a4,a4,1
   1362c:	8fe5                	c.and	a5,s1
   1362e:	f414                	c.sd	a3,40(s0)
   13630:	e83e                	c.sdsp	a5,16(sp)
   13632:	67be                	c.ldsp	a5,456(sp)
   13634:	76fa                	c.ldsp	a3,440(sp)
   13636:	e43a                	c.sdsp	a4,8(sp)
   13638:	671e                	c.ldsp	a4,448(sp)
   1363a:	e03c                	c.sd	a5,64(s0)
   1363c:	67de                	c.ldsp	a5,464(sp)
   1363e:	f814                	c.sd	a3,48(s0)
   13640:	fc18                	c.sd	a4,56(s0)
   13642:	e43c                	c.sd	a5,72(s0)
   13644:	67fe                	c.ldsp	a5,472(sp)
   13646:	e83c                	c.sd	a5,80(s0)
   13648:	779e                	c.ldsp	a5,480(sp)
   1364a:	ec3c                	c.sd	a5,88(s0)
   1364c:	bb5ff0ef          	jal	ra,13200 <sm2_double_jm_a_minus3_mont>
   13650:	8101a703          	lw	a4,-2032(gp) # 1d058 <g_sm2_curve_mont_inited>
   13654:	18070263          	beq	a4,zero,137d8 <sm2_add_ja_mont+0x318>
   13658:	24810b93          	addi	s7,sp,584
   1365c:	2c810b13          	addi	s6,sp,712
   13660:	32810a93          	addi	s5,sp,808
   13664:	855a                	c.mv	a0,s6
   13666:	6d6d                	c.lui	s10,0x1b
   13668:	e58fe0ef          	jal	ra,11cc0 <fp_set_zero>
   1366c:	15a8                	c.addi4spn	a0,sp,744
   1366e:	818d0593          	addi	a1,s10,-2024 # 1a818 <FP_MONT_ONE>
   13672:	e2efe0ef          	jal	ra,11ca0 <fp_copy>
   13676:	0628                	c.addi4spn	a0,sp,776
   13678:	e48fe0ef          	jal	ra,11cc0 <fp_set_zero>
   1367c:	8101a703          	lw	a4,-2032(gp) # 1d058 <g_sm2_curve_mont_inited>
   13680:	e72d                	c.bnez	a4,136ea <sm2_add_ja_mont+0x22a>
   13682:	3b813823          	sd	s8,944(sp)
   13686:	0428                	c.addi4spn	a0,sp,520
   13688:	6c6d                	c.lui	s8,0x1b
   1368a:	8b8c0593          	addi	a1,s8,-1864 # 1a8b8 <SM2_A_BYTES>
   1368e:	ed2fe0ef          	jal	ra,11d60 <fp_from_bytes>
   13692:	8b8c0c13          	addi	s8,s8,-1864
   13696:	020c0593          	addi	a1,s8,32
   1369a:	1428                	c.addi4spn	a0,sp,552
   1369c:	ec4fe0ef          	jal	ra,11d60 <fp_from_bytes>
   136a0:	040c0593          	addi	a1,s8,64
   136a4:	855e                	c.mv	a0,s7
   136a6:	ebafe0ef          	jal	ra,11d60 <fp_from_bytes>
   136aa:	060c0593          	addi	a1,s8,96
   136ae:	8556                	c.mv	a0,s5
   136b0:	eb0fe0ef          	jal	ra,11d60 <fp_from_bytes>
   136b4:	042c                	c.addi4spn	a1,sp,520
   136b6:	82818513          	addi	a0,gp,-2008 # 1d070 <SM2_A_MONT>
   136ba:	208060ef          	jal	ra,198c2 <fp_to_mont>
   136be:	82818c13          	addi	s8,gp,-2008 # 1d070 <SM2_A_MONT>
   136c2:	020c0513          	addi	a0,s8,32
   136c6:	142c                	c.addi4spn	a1,sp,552
   136c8:	1fa060ef          	jal	ra,198c2 <fp_to_mont>
   136cc:	040c0513          	addi	a0,s8,64
   136d0:	85de                	c.mv	a1,s7
   136d2:	1f0060ef          	jal	ra,198c2 <fp_to_mont>
   136d6:	060c0513          	addi	a0,s8,96
   136da:	85d6                	c.mv	a1,s5
   136dc:	1e6060ef          	jal	ra,198c2 <fp_to_mont>
   136e0:	3b013c03          	ld	s8,944(sp)
   136e4:	4705                	c.li	a4,1
   136e6:	80e1a823          	sw	a4,-2032(gp) # 1d058 <g_sm2_curve_mont_inited>
   136ea:	85d2                	c.mv	a1,s4
   136ec:	8556                	c.mv	a0,s5
   136ee:	db2fe0ef          	jal	ra,11ca0 <fp_copy>
   136f2:	85ee                	c.mv	a1,s11
   136f4:	06a8                	c.addi4spn	a0,sp,840
   136f6:	daafe0ef          	jal	ra,11ca0 <fp_copy>
   136fa:	855e                	c.mv	a0,s7
   136fc:	dc4fe0ef          	jal	ra,11cc0 <fp_set_zero>
   13700:	818d0593          	addi	a1,s10,-2024
   13704:	16a8                	c.addi4spn	a0,sp,872
   13706:	d9afe0ef          	jal	ra,11ca0 <fp_copy>
   1370a:	040a2783          	lw	a5,64(s4)
   1370e:	14ac                	c.addi4spn	a1,sp,616
   13710:	38013e83          	ld	t4,896(sp)
   13714:	36813e03          	ld	t3,872(sp)
   13718:	37013803          	ld	a6,880(sp)
   1371c:	8b85                	c.andi	a5,1
   1371e:	37813683          	ld	a3,888(sp)
   13722:	40f00733          	sub	a4,zero,a5
   13726:	17fd                	c.addi	a5,-1
   13728:	24813883          	ld	a7,584(sp)
   1372c:	01c7fe33          	and	t3,a5,t3
   13730:	25013303          	ld	t1,592(sp)
   13734:	25813503          	ld	a0,600(sp)
   13738:	0107f833          	and	a6,a5,a6
   1373c:	8efd                	c.and	a3,a5
   1373e:	01d7f7b3          	and	a5,a5,t4
   13742:	26013e83          	ld	t4,608(sp)
   13746:	00677333          	and	t1,a4,t1
   1374a:	6622                	c.ldsp	a2,8(sp)
   1374c:	8d79                	c.and	a0,a4
   1374e:	011778b3          	and	a7,a4,a7
   13752:	8ec9                	c.or	a3,a0
   13754:	01d77733          	and	a4,a4,t4
   13758:	01c8e8b3          	or	a7,a7,t3
   1375c:	8fd9                	c.or	a5,a4
   1375e:	00686833          	or	a6,a6,t1
   13762:	8522                	c.mv	a0,s0
   13764:	38f13023          	sd	a5,896(sp)
   13768:	37113423          	sd	a7,872(sp)
   1376c:	37013823          	sd	a6,880(sp)
   13770:	36d13c23          	sd	a3,888(sp)
   13774:	dadfe0ef          	jal	ra,12520 <sm2_jacobian_cmov_local>
   13778:	6642                	c.ldsp	a2,16(sp)
   1377a:	85da                	c.mv	a1,s6
   1377c:	8522                	c.mv	a0,s0
   1377e:	da3fe0ef          	jal	ra,12520 <sm2_jacobian_cmov_local>
   13782:	864e                	c.mv	a2,s3
   13784:	85d6                	c.mv	a1,s5
   13786:	8522                	c.mv	a0,s0
   13788:	d99fe0ef          	jal	ra,12520 <sm2_jacobian_cmov_local>
   1378c:	38813703          	ld	a4,904(sp)
   13790:	e00cb783          	ld	a5,-512(s9)
   13794:	8fb9                	c.xor	a5,a4
   13796:	4701                	c.li	a4,0
   13798:	ebdd                	c.bnez	a5,1384e <sm2_add_ja_mont+0x38e>
   1379a:	8522                	c.mv	a0,s0
   1379c:	3f013403          	ld	s0,1008(sp)
   137a0:	6662                	c.ldsp	a2,24(sp)
   137a2:	85ca                	c.mv	a1,s2
   137a4:	3f813083          	ld	ra,1016(sp)
   137a8:	3e813483          	ld	s1,1000(sp)
   137ac:	3e013903          	ld	s2,992(sp)
   137b0:	3d813983          	ld	s3,984(sp)
   137b4:	3d013a03          	ld	s4,976(sp)
   137b8:	3c813a83          	ld	s5,968(sp)
   137bc:	3c013b03          	ld	s6,960(sp)
   137c0:	3b813b83          	ld	s7,952(sp)
   137c4:	3a813c83          	ld	s9,936(sp)
   137c8:	3a013d03          	ld	s10,928(sp)
   137cc:	39813d83          	ld	s11,920(sp)
   137d0:	40010113          	addi	sp,sp,1024
   137d4:	d4dfe06f          	jal	zero,12520 <sm2_jacobian_cmov_local>
   137d8:	3b813823          	sd	s8,944(sp)
   137dc:	1428                	c.addi4spn	a0,sp,552
   137de:	6c6d                	c.lui	s8,0x1b
   137e0:	8b8c0593          	addi	a1,s8,-1864 # 1a8b8 <SM2_A_BYTES>
   137e4:	d7cfe0ef          	jal	ra,11d60 <fp_from_bytes>
   137e8:	8b8c0c13          	addi	s8,s8,-1864
   137ec:	24810b93          	addi	s7,sp,584
   137f0:	020c0593          	addi	a1,s8,32
   137f4:	855e                	c.mv	a0,s7
   137f6:	2c810b13          	addi	s6,sp,712
   137fa:	d66fe0ef          	jal	ra,11d60 <fp_from_bytes>
   137fe:	32810a93          	addi	s5,sp,808
   13802:	040c0593          	addi	a1,s8,64
   13806:	855a                	c.mv	a0,s6
   13808:	d58fe0ef          	jal	ra,11d60 <fp_from_bytes>
   1380c:	060c0593          	addi	a1,s8,96
   13810:	8556                	c.mv	a0,s5
   13812:	d4efe0ef          	jal	ra,11d60 <fp_from_bytes>
   13816:	142c                	c.addi4spn	a1,sp,552
   13818:	82818513          	addi	a0,gp,-2008 # 1d070 <SM2_A_MONT>
   1381c:	0a6060ef          	jal	ra,198c2 <fp_to_mont>
   13820:	82818c13          	addi	s8,gp,-2008 # 1d070 <SM2_A_MONT>
   13824:	020c0513          	addi	a0,s8,32
   13828:	85de                	c.mv	a1,s7
   1382a:	098060ef          	jal	ra,198c2 <fp_to_mont>
   1382e:	040c0513          	addi	a0,s8,64
   13832:	85da                	c.mv	a1,s6
   13834:	08e060ef          	jal	ra,198c2 <fp_to_mont>
   13838:	060c0513          	addi	a0,s8,96
   1383c:	85d6                	c.mv	a1,s5
   1383e:	084060ef          	jal	ra,198c2 <fp_to_mont>
   13842:	3b013c03          	ld	s8,944(sp)
   13846:	4705                	c.li	a4,1
   13848:	80e1a823          	sw	a4,-2032(gp) # 1d058 <g_sm2_curve_mont_inited>
   1384c:	bd21                	c.j	13664 <sm2_add_ja_mont+0x1a4>
   1384e:	3b813823          	sd	s8,944(sp)
   13852:	e6ffc0ef          	jal	ra,106c0 <__stack_chk_fail@plt>
   13856:	00000013          	addi	zero,zero,0
   1385a:	00000013          	addi	zero,zero,0
   1385e:	0001                	c.addi	zero,0

0000000000013860 <sm2_add_jj_mont>:
   13860:	bf010113          	addi	sp,sp,-1040
   13864:	40813023          	sd	s0,1024(sp)
   13868:	842a                	c.mv	s0,a0
   1386a:	3e913c23          	sd	s1,1016(sp)
   1386e:	84ae                	c.mv	s1,a1
   13870:	3f213823          	sd	s2,1008(sp)
   13874:	8932                	c.mv	s2,a2
   13876:	3d613823          	sd	s6,976(sp)
   1387a:	0001db37          	lui	s6,0x1d
   1387e:	3ba13823          	sd	s10,944(sp)
   13882:	e00b3703          	ld	a4,-512(s6) # 1ce00 <__stack_chk_guard@GLIBC_2.27>
   13886:	38e13c23          	sd	a4,920(sp)
   1388a:	4701                	c.li	a4,0
   1388c:	3bb13423          	sd	s11,936(sp)
   13890:	40113423          	sd	ra,1032(sp)
   13894:	3f313423          	sd	s3,1000(sp)
   13898:	3f413023          	sd	s4,992(sp)
   1389c:	3d513c23          	sd	s5,984(sp)
   138a0:	3d713423          	sd	s7,968(sp)
   138a4:	3d813023          	sd	s8,960(sp)
   138a8:	3b913c23          	sd	s9,952(sp)
   138ac:	65bc                	c.ld	a5,72(a1)
   138ae:	0405b983          	ld	s3,64(a1)
   138b2:	6634                	c.ld	a3,72(a2)
   138b4:	04063c03          	ld	s8,64(a2)
   138b8:	69b8                	c.ld	a4,80(a1)
   138ba:	00f9e9b3          	or	s3,s3,a5
   138be:	6dbc                	c.ld	a5,88(a1)
   138c0:	6a30                	c.ld	a2,80(a2)
   138c2:	00dc6c33          	or	s8,s8,a3
   138c6:	00e9e9b3          	or	s3,s3,a4
   138ca:	05893683          	ld	a3,88(s2)
   138ce:	00f9e9b3          	or	s3,s3,a5
   138d2:	8101a703          	lw	a4,-2032(gp) # 1d058 <g_sm2_curve_mont_inited>
   138d6:	00cc6c33          	or	s8,s8,a2
   138da:	0019b793          	sltiu	a5,s3,1
   138de:	00dc6c33          	or	s8,s8,a3
   138e2:	e43e                	c.sdsp	a5,8(sp)
   138e4:	001c3d93          	sltiu	s11,s8,1
   138e8:	2c070463          	beq	a4,zero,13bb0 <sm2_add_jj_mont+0x350>
   138ec:	2d810b93          	addi	s7,sp,728
   138f0:	33810a13          	addi	s4,sp,824
   138f4:	8552                	c.mv	a0,s4
   138f6:	04048a93          	addi	s5,s1,64
   138fa:	bc6fe0ef          	jal	ra,11cc0 <fp_set_zero>
   138fe:	04090c93          	addi	s9,s2,64
   13902:	4709                	c.li	a4,2
   13904:	85d2                	c.mv	a1,s4
   13906:	0ba8                	c.addi4spn	a0,sp,472
   13908:	32e13c23          	sd	a4,824(sp)
   1390c:	7b7050ef          	jal	ra,198c2 <fp_to_mont>
   13910:	85d6                	c.mv	a1,s5
   13912:	0828                	c.addi4spn	a0,sp,24
   13914:	36c050ef          	jal	ra,18c80 <fp_mont_sqr>
   13918:	85e6                	c.mv	a1,s9
   1391a:	1828                	c.addi4spn	a0,sp,56
   1391c:	364050ef          	jal	ra,18c80 <fp_mont_sqr>
   13920:	85a6                	c.mv	a1,s1
   13922:	1830                	c.addi4spn	a2,sp,56
   13924:	08a8                	c.addi4spn	a0,sp,88
   13926:	5e7040ef          	jal	ra,1870c <fp_mont_mul>
   1392a:	85ca                	c.mv	a1,s2
   1392c:	0830                	c.addi4spn	a2,sp,24
   1392e:	18a8                	c.addi4spn	a0,sp,120
   13930:	5dd040ef          	jal	ra,1870c <fp_mont_mul>
   13934:	8666                	c.mv	a2,s9
   13936:	182c                	c.addi4spn	a1,sp,56
   13938:	1ba8                	c.addi4spn	a0,sp,504
   1393a:	5d3040ef          	jal	ra,1870c <fp_mont_mul>
   1393e:	8656                	c.mv	a2,s5
   13940:	082c                	c.addi4spn	a1,sp,24
   13942:	0c28                	c.addi4spn	a0,sp,536
   13944:	5c9040ef          	jal	ra,1870c <fp_mont_mul>
   13948:	02048593          	addi	a1,s1,32
   1394c:	1bb0                	c.addi4spn	a2,sp,504
   1394e:	0928                	c.addi4spn	a0,sp,152
   13950:	5bd040ef          	jal	ra,1870c <fp_mont_mul>
   13954:	02090593          	addi	a1,s2,32
   13958:	0c30                	c.addi4spn	a2,sp,536
   1395a:	1928                	c.addi4spn	a0,sp,184
   1395c:	5b1040ef          	jal	ra,1870c <fp_mont_mul>
   13960:	08b0                	c.addi4spn	a2,sp,88
   13962:	18ac                	c.addi4spn	a1,sp,120
   13964:	09a8                	c.addi4spn	a0,sp,216
   13966:	453040ef          	jal	ra,185b8 <fp_mont_sub>
   1396a:	09b0                	c.addi4spn	a2,sp,216
   1396c:	19a8                	c.addi4spn	a0,sp,248
   1396e:	85b2                	c.mv	a1,a2
   13970:	345040ef          	jal	ra,184b4 <fp_mont_add>
   13974:	19ac                	c.addi4spn	a1,sp,248
   13976:	852e                	c.mv	a0,a1
   13978:	308050ef          	jal	ra,18c80 <fp_mont_sqr>
   1397c:	19b0                	c.addi4spn	a2,sp,248
   1397e:	09ac                	c.addi4spn	a1,sp,216
   13980:	0a28                	c.addi4spn	a0,sp,280
   13982:	58b040ef          	jal	ra,1870c <fp_mont_mul>
   13986:	0930                	c.addi4spn	a2,sp,152
   13988:	192c                	c.addi4spn	a1,sp,184
   1398a:	1a28                	c.addi4spn	a0,sp,312
   1398c:	42d040ef          	jal	ra,185b8 <fp_mont_sub>
   13990:	1a30                	c.addi4spn	a2,sp,312
   13992:	85b2                	c.mv	a1,a2
   13994:	8532                	c.mv	a0,a2
   13996:	31f040ef          	jal	ra,184b4 <fp_mont_add>
   1399a:	19b0                	c.addi4spn	a2,sp,248
   1399c:	08ac                	c.addi4spn	a1,sp,88
   1399e:	0aa8                	c.addi4spn	a0,sp,344
   139a0:	56d040ef          	jal	ra,1870c <fp_mont_mul>
   139a4:	1a2c                	c.addi4spn	a1,sp,312
   139a6:	1aa8                	c.addi4spn	a0,sp,376
   139a8:	2d8050ef          	jal	ra,18c80 <fp_mont_sqr>
   139ac:	1aac                	c.addi4spn	a1,sp,376
   139ae:	0a30                	c.addi4spn	a2,sp,280
   139b0:	852e                	c.mv	a0,a1
   139b2:	407040ef          	jal	ra,185b8 <fp_mont_sub>
   139b6:	1aac                	c.addi4spn	a1,sp,376
   139b8:	0ab0                	c.addi4spn	a2,sp,344
   139ba:	852e                	c.mv	a0,a1
   139bc:	3fd040ef          	jal	ra,185b8 <fp_mont_sub>
   139c0:	1aac                	c.addi4spn	a1,sp,376
   139c2:	0ab0                	c.addi4spn	a2,sp,344
   139c4:	852e                	c.mv	a0,a1
   139c6:	3f3040ef          	jal	ra,185b8 <fp_mont_sub>
   139ca:	1ab0                	c.addi4spn	a2,sp,376
   139cc:	0aac                	c.addi4spn	a1,sp,344
   139ce:	0b28                	c.addi4spn	a0,sp,408
   139d0:	3e9040ef          	jal	ra,185b8 <fp_mont_sub>
   139d4:	0b2c                	c.addi4spn	a1,sp,408
   139d6:	1a30                	c.addi4spn	a2,sp,312
   139d8:	852e                	c.mv	a0,a1
   139da:	533040ef          	jal	ra,1870c <fp_mont_mul>
   139de:	0a30                	c.addi4spn	a2,sp,280
   139e0:	092c                	c.addi4spn	a1,sp,152
   139e2:	1c28                	c.addi4spn	a0,sp,568
   139e4:	529040ef          	jal	ra,1870c <fp_mont_mul>
   139e8:	1c30                	c.addi4spn	a2,sp,568
   139ea:	85b2                	c.mv	a1,a2
   139ec:	8532                	c.mv	a0,a2
   139ee:	2c7040ef          	jal	ra,184b4 <fp_mont_add>
   139f2:	0b2c                	c.addi4spn	a1,sp,408
   139f4:	1c30                	c.addi4spn	a2,sp,568
   139f6:	852e                	c.mv	a0,a1
   139f8:	3c1040ef          	jal	ra,185b8 <fp_mont_sub>
   139fc:	8666                	c.mv	a2,s9
   139fe:	85d6                	c.mv	a1,s5
   13a00:	1b28                	c.addi4spn	a0,sp,440
   13a02:	2b3040ef          	jal	ra,184b4 <fp_mont_add>
   13a06:	1b2c                	c.addi4spn	a1,sp,440
   13a08:	852e                	c.mv	a0,a1
   13a0a:	276050ef          	jal	ra,18c80 <fp_mont_sqr>
   13a0e:	1b2c                	c.addi4spn	a1,sp,440
   13a10:	0830                	c.addi4spn	a2,sp,24
   13a12:	852e                	c.mv	a0,a1
   13a14:	3a5040ef          	jal	ra,185b8 <fp_mont_sub>
   13a18:	1b2c                	c.addi4spn	a1,sp,440
   13a1a:	1830                	c.addi4spn	a2,sp,56
   13a1c:	852e                	c.mv	a0,a1
   13a1e:	39b040ef          	jal	ra,185b8 <fp_mont_sub>
   13a22:	1b2c                	c.addi4spn	a1,sp,440
   13a24:	09b0                	c.addi4spn	a2,sp,216
   13a26:	852e                	c.mv	a0,a1
   13a28:	4e5040ef          	jal	ra,1870c <fp_mont_mul>
   13a2c:	7776                	c.ldsp	a4,376(sp)
   13a2e:	0019b613          	sltiu	a2,s3,1
   13a32:	85ca                	c.mv	a1,s2
   13a34:	8522                	c.mv	a0,s0
   13a36:	01803933          	sltu	s2,zero,s8
   13a3a:	013039b3          	sltu	s3,zero,s3
   13a3e:	e018                	c.sd	a4,0(s0)
   13a40:	671a                	c.ldsp	a4,384(sp)
   13a42:	e418                	c.sd	a4,8(s0)
   13a44:	673a                	c.ldsp	a4,392(sp)
   13a46:	e818                	c.sd	a4,16(s0)
   13a48:	675a                	c.ldsp	a4,400(sp)
   13a4a:	ec18                	c.sd	a4,24(s0)
   13a4c:	677a                	c.ldsp	a4,408(sp)
   13a4e:	f018                	c.sd	a4,32(s0)
   13a50:	771a                	c.ldsp	a4,416(sp)
   13a52:	f418                	c.sd	a4,40(s0)
   13a54:	773a                	c.ldsp	a4,424(sp)
   13a56:	f818                	c.sd	a4,48(s0)
   13a58:	775a                	c.ldsp	a4,432(sp)
   13a5a:	fc18                	c.sd	a4,56(s0)
   13a5c:	777a                	c.ldsp	a4,440(sp)
   13a5e:	e038                	c.sd	a4,64(s0)
   13a60:	671e                	c.ldsp	a4,448(sp)
   13a62:	e438                	c.sd	a4,72(s0)
   13a64:	673e                	c.ldsp	a4,456(sp)
   13a66:	e838                	c.sd	a4,80(s0)
   13a68:	675e                	c.ldsp	a4,464(sp)
   13a6a:	ec38                	c.sd	a4,88(s0)
   13a6c:	ab5fe0ef          	jal	ra,12520 <sm2_jacobian_cmov_local>
   13a70:	85a6                	c.mv	a1,s1
   13a72:	866e                	c.mv	a2,s11
   13a74:	8522                	c.mv	a0,s0
   13a76:	aabfe0ef          	jal	ra,12520 <sm2_jacobian_cmov_local>
   13a7a:	6cee                	c.ldsp	s9,216(sp)
   13a7c:	770e                	c.ldsp	a4,224(sp)
   13a7e:	0930                	c.addi4spn	a2,sp,152
   13a80:	192c                	c.addi4spn	a1,sp,184
   13a82:	0ca8                	c.addi4spn	a0,sp,600
   13a84:	00ececb3          	or	s9,s9,a4
   13a88:	772e                	c.ldsp	a4,232(sp)
   13a8a:	00ececb3          	or	s9,s9,a4
   13a8e:	774e                	c.ldsp	a4,240(sp)
   13a90:	00ececb3          	or	s9,s9,a4
   13a94:	325040ef          	jal	ra,185b8 <fp_mont_sub>
   13a98:	25813783          	ld	a5,600(sp)
   13a9c:	85a6                	c.mv	a1,s1
   13a9e:	26013483          	ld	s1,608(sp)
   13aa2:	855e                	c.mv	a0,s7
   13aa4:	001cba93          	sltiu	s5,s9,1
   13aa8:	8cdd                	c.or	s1,a5
   13aaa:	26813783          	ld	a5,616(sp)
   13aae:	8cdd                	c.or	s1,a5
   13ab0:	27013783          	ld	a5,624(sp)
   13ab4:	8cdd                	c.or	s1,a5
   13ab6:	f4aff0ef          	jal	ra,13200 <sm2_double_jm_a_minus3_mont>
   13aba:	8101a783          	lw	a5,-2032(gp) # 1d058 <g_sm2_curve_mont_inited>
   13abe:	00903c33          	sltu	s8,zero,s1
   13ac2:	e3ad                	c.bnez	a5,13b24 <sm2_add_jj_mont+0x2c4>
   13ac4:	1ca8                	c.addi4spn	a0,sp,632
   13ac6:	6ded                	c.lui	s11,0x1b
   13ac8:	8b8d8593          	addi	a1,s11,-1864 # 1a8b8 <SM2_A_BYTES>
   13acc:	8b8d8d93          	addi	s11,s11,-1864
   13ad0:	a90fe0ef          	jal	ra,11d60 <fp_from_bytes>
   13ad4:	020d8593          	addi	a1,s11,32
   13ad8:	0d28                	c.addi4spn	a0,sp,664
   13ada:	a86fe0ef          	jal	ra,11d60 <fp_from_bytes>
   13ade:	040d8593          	addi	a1,s11,64
   13ae2:	1d28                	c.addi4spn	a0,sp,696
   13ae4:	a7cfe0ef          	jal	ra,11d60 <fp_from_bytes>
   13ae8:	060d8593          	addi	a1,s11,96
   13aec:	8552                	c.mv	a0,s4
   13aee:	a72fe0ef          	jal	ra,11d60 <fp_from_bytes>
   13af2:	1cac                	c.addi4spn	a1,sp,632
   13af4:	82818513          	addi	a0,gp,-2008 # 1d070 <SM2_A_MONT>
   13af8:	5cb050ef          	jal	ra,198c2 <fp_to_mont>
   13afc:	82818d93          	addi	s11,gp,-2008 # 1d070 <SM2_A_MONT>
   13b00:	0d2c                	c.addi4spn	a1,sp,664
   13b02:	020d8513          	addi	a0,s11,32
   13b06:	5bd050ef          	jal	ra,198c2 <fp_to_mont>
   13b0a:	1d2c                	c.addi4spn	a1,sp,696
   13b0c:	040d8513          	addi	a0,s11,64
   13b10:	5b3050ef          	jal	ra,198c2 <fp_to_mont>
   13b14:	85d2                	c.mv	a1,s4
   13b16:	060d8513          	addi	a0,s11,96
   13b1a:	5a9050ef          	jal	ra,198c2 <fp_to_mont>
   13b1e:	4785                	c.li	a5,1
   13b20:	80f1a823          	sw	a5,-2032(gp) # 1d058 <g_sm2_curve_mont_inited>
   13b24:	8552                	c.mv	a0,s4
   13b26:	018afab3          	and	s5,s5,s8
   13b2a:	996fe0ef          	jal	ra,11cc0 <fp_set_zero>
   13b2e:	0ea8                	c.addi4spn	a0,sp,856
   13b30:	65ed                	c.lui	a1,0x1b
   13b32:	81858593          	addi	a1,a1,-2024 # 1a818 <FP_MONT_ONE>
   13b36:	96afe0ef          	jal	ra,11ca0 <fp_copy>
   13b3a:	1ea8                	c.addi4spn	a0,sp,888
   13b3c:	984fe0ef          	jal	ra,11cc0 <fp_set_zero>
   13b40:	0194e633          	or	a2,s1,s9
   13b44:	85de                	c.mv	a1,s7
   13b46:	00163613          	sltiu	a2,a2,1
   13b4a:	8522                	c.mv	a0,s0
   13b4c:	00c97633          	and	a2,s2,a2
   13b50:	00c9f633          	and	a2,s3,a2
   13b54:	9cdfe0ef          	jal	ra,12520 <sm2_jacobian_cmov_local>
   13b58:	01597633          	and	a2,s2,s5
   13b5c:	85d2                	c.mv	a1,s4
   13b5e:	00c9f633          	and	a2,s3,a2
   13b62:	8522                	c.mv	a0,s0
   13b64:	9bdfe0ef          	jal	ra,12520 <sm2_jacobian_cmov_local>
   13b68:	39813703          	ld	a4,920(sp)
   13b6c:	e00b3783          	ld	a5,-512(s6)
   13b70:	8fb9                	c.xor	a5,a4
   13b72:	4701                	c.li	a4,0
   13b74:	e3dd                	c.bnez	a5,13c1a <sm2_add_jj_mont+0x3ba>
   13b76:	40813083          	ld	ra,1032(sp)
   13b7a:	40013403          	ld	s0,1024(sp)
   13b7e:	3f813483          	ld	s1,1016(sp)
   13b82:	3f013903          	ld	s2,1008(sp)
   13b86:	3e813983          	ld	s3,1000(sp)
   13b8a:	3e013a03          	ld	s4,992(sp)
   13b8e:	3d813a83          	ld	s5,984(sp)
   13b92:	3d013b03          	ld	s6,976(sp)
   13b96:	3c813b83          	ld	s7,968(sp)
   13b9a:	3c013c03          	ld	s8,960(sp)
   13b9e:	3b813c83          	ld	s9,952(sp)
   13ba2:	3b013d03          	ld	s10,944(sp)
   13ba6:	3a813d83          	ld	s11,936(sp)
   13baa:	41010113          	addi	sp,sp,1040
   13bae:	8082                	c.jr	ra
   13bb0:	0d28                	c.addi4spn	a0,sp,664
   13bb2:	6aed                	c.lui	s5,0x1b
   13bb4:	8b8a8593          	addi	a1,s5,-1864 # 1a8b8 <SM2_A_BYTES>
   13bb8:	8b8a8a93          	addi	s5,s5,-1864
   13bbc:	9a4fe0ef          	jal	ra,11d60 <fp_from_bytes>
   13bc0:	2d810b93          	addi	s7,sp,728
   13bc4:	020a8593          	addi	a1,s5,32
   13bc8:	1d28                	c.addi4spn	a0,sp,696
   13bca:	996fe0ef          	jal	ra,11d60 <fp_from_bytes>
   13bce:	33810a13          	addi	s4,sp,824
   13bd2:	040a8593          	addi	a1,s5,64
   13bd6:	855e                	c.mv	a0,s7
   13bd8:	988fe0ef          	jal	ra,11d60 <fp_from_bytes>
   13bdc:	060a8593          	addi	a1,s5,96
   13be0:	8552                	c.mv	a0,s4
   13be2:	97efe0ef          	jal	ra,11d60 <fp_from_bytes>
   13be6:	0d2c                	c.addi4spn	a1,sp,664
   13be8:	82818513          	addi	a0,gp,-2008 # 1d070 <SM2_A_MONT>
   13bec:	4d7050ef          	jal	ra,198c2 <fp_to_mont>
   13bf0:	82818a93          	addi	s5,gp,-2008 # 1d070 <SM2_A_MONT>
   13bf4:	1d2c                	c.addi4spn	a1,sp,696
   13bf6:	020a8513          	addi	a0,s5,32
   13bfa:	4c9050ef          	jal	ra,198c2 <fp_to_mont>
   13bfe:	85de                	c.mv	a1,s7
   13c00:	040a8513          	addi	a0,s5,64
   13c04:	4bf050ef          	jal	ra,198c2 <fp_to_mont>
   13c08:	85d2                	c.mv	a1,s4
   13c0a:	060a8513          	addi	a0,s5,96
   13c0e:	4b5050ef          	jal	ra,198c2 <fp_to_mont>
   13c12:	4705                	c.li	a4,1
   13c14:	80e1a823          	sw	a4,-2032(gp) # 1d058 <g_sm2_curve_mont_inited>
   13c18:	b9f1                	c.j	138f4 <sm2_add_jj_mont+0x94>
   13c1a:	aa7fc0ef          	jal	ra,106c0 <__stack_chk_fail@plt>
   13c1e:	0001                	c.addi	zero,0

0000000000013c20 <sm2_batch_normalize_mont>:
   13c20:	7105                	c.addi16sp	sp,-480
   13c22:	ef5e                	c.sdsp	s7,408(sp)
   13c24:	8101a783          	lw	a5,-2032(gp) # 1d058 <g_sm2_curve_mont_inited>
   13c28:	eba2                	c.sdsp	s0,464(sp)
   13c2a:	f756                	c.sdsp	s5,424(sp)
   13c2c:	0001d437          	lui	s0,0x1d
   13c30:	e36a                	c.sdsp	s10,384(sp)
   13c32:	e0043703          	ld	a4,-512(s0) # 1ce00 <__stack_chk_guard@GLIBC_2.27>
   13c36:	f6ba                	c.sdsp	a4,360(sp)
   13c38:	4701                	c.li	a4,0
   13c3a:	ef86                	c.sdsp	ra,472(sp)
   13c3c:	8aae                	c.mv	s5,a1
   13c3e:	e42a                	c.sdsp	a0,8(sp)
   13c40:	8432                	c.mv	s0,a2
   13c42:	8d36                	c.mv	s10,a3
   13c44:	c395                	c.beqz	a5,13c68 <sm2_batch_normalize_mont+0x48>
   13c46:	e05d                	c.bnez	s0,13cec <sm2_batch_normalize_mont+0xcc>
   13c48:	0001d7b7          	lui	a5,0x1d
   13c4c:	7736                	c.ldsp	a4,360(sp)
   13c4e:	e007b783          	ld	a5,-512(a5) # 1ce00 <__stack_chk_guard@GLIBC_2.27>
   13c52:	8fb9                	c.xor	a5,a4
   13c54:	4701                	c.li	a4,0
   13c56:	32079463          	bne	a5,zero,13f7e <sm2_batch_normalize_mont+0x35e>
   13c5a:	60fe                	c.ldsp	ra,472(sp)
   13c5c:	645e                	c.ldsp	s0,464(sp)
   13c5e:	7aba                	c.ldsp	s5,424(sp)
   13c60:	6bfa                	c.ldsp	s7,408(sp)
   13c62:	6d1a                	c.ldsp	s10,384(sp)
   13c64:	613d                	c.addi16sp	sp,480
   13c66:	8082                	c.jr	ra
   13c68:	fb52                	c.sdsp	s4,432(sp)
   13c6a:	0c010a13          	addi	s4,sp,192
   13c6e:	f35a                	c.sdsp	s6,416(sp)
   13c70:	8552                	c.mv	a0,s4
   13c72:	6b6d                	c.lui	s6,0x1b
   13c74:	8b8b0593          	addi	a1,s6,-1864 # 1a8b8 <SM2_A_BYTES>
   13c78:	e7a6                	c.sdsp	s1,456(sp)
   13c7a:	8b8b0b13          	addi	s6,s6,-1864
   13c7e:	e3ca                	c.sdsp	s2,448(sp)
   13c80:	0e010913          	addi	s2,sp,224
   13c84:	ff4e                	c.sdsp	s3,440(sp)
   13c86:	8dafe0ef          	jal	ra,11d60 <fp_from_bytes>
   13c8a:	020b0593          	addi	a1,s6,32
   13c8e:	854a                	c.mv	a0,s2
   13c90:	8d0fe0ef          	jal	ra,11d60 <fp_from_bytes>
   13c94:	10010993          	addi	s3,sp,256
   13c98:	040b0593          	addi	a1,s6,64
   13c9c:	854e                	c.mv	a0,s3
   13c9e:	8c2fe0ef          	jal	ra,11d60 <fp_from_bytes>
   13ca2:	1204                	c.addi4spn	s1,sp,288
   13ca4:	060b0593          	addi	a1,s6,96
   13ca8:	8526                	c.mv	a0,s1
   13caa:	8b6fe0ef          	jal	ra,11d60 <fp_from_bytes>
   13cae:	85d2                	c.mv	a1,s4
   13cb0:	82818513          	addi	a0,gp,-2008 # 1d070 <SM2_A_MONT>
   13cb4:	82818a13          	addi	s4,gp,-2008 # 1d070 <SM2_A_MONT>
   13cb8:	40b050ef          	jal	ra,198c2 <fp_to_mont>
   13cbc:	85ca                	c.mv	a1,s2
   13cbe:	020a0513          	addi	a0,s4,32
   13cc2:	401050ef          	jal	ra,198c2 <fp_to_mont>
   13cc6:	85ce                	c.mv	a1,s3
   13cc8:	040a0513          	addi	a0,s4,64
   13ccc:	3f7050ef          	jal	ra,198c2 <fp_to_mont>
   13cd0:	85a6                	c.mv	a1,s1
   13cd2:	060a0513          	addi	a0,s4,96
   13cd6:	3ed050ef          	jal	ra,198c2 <fp_to_mont>
   13cda:	64be                	c.ldsp	s1,456(sp)
   13cdc:	4785                	c.li	a5,1
   13cde:	80f1a823          	sw	a5,-2032(gp) # 1d058 <g_sm2_curve_mont_inited>
   13ce2:	691e                	c.ldsp	s2,448(sp)
   13ce4:	79fa                	c.ldsp	s3,440(sp)
   13ce6:	7a5a                	c.ldsp	s4,432(sp)
   13ce8:	7b1a                	c.ldsp	s6,416(sp)
   13cea:	dc39                	c.beqz	s0,13c48 <sm2_batch_normalize_mont+0x28>
   13cec:	e7a6                	c.sdsp	s1,456(sp)
   13cee:	1008                	c.addi4spn	a0,sp,32
   13cf0:	64ed                	c.lui	s1,0x1b
   13cf2:	81848593          	addi	a1,s1,-2024 # 1a818 <FP_MONT_ONE>
   13cf6:	ff4e                	c.sdsp	s3,440(sp)
   13cf8:	040a8993          	addi	s3,s5,64
   13cfc:	fb52                	c.sdsp	s4,432(sp)
   13cfe:	8a6a                	c.mv	s4,s10
   13d00:	f35a                	c.sdsp	s6,416(sp)
   13d02:	eb62                	c.sdsp	s8,400(sp)
   13d04:	e766                	c.sdsp	s9,392(sp)
   13d06:	feee                	c.sdsp	s11,376(sp)
   13d08:	4d81                	c.li	s11,0
   13d0a:	e3ca                	c.sdsp	s2,448(sp)
   13d0c:	f95fd0ef          	jal	ra,11ca0 <fp_copy>
   13d10:	81848793          	addi	a5,s1,-2024
   13d14:	1204                	c.addi4spn	s1,sp,288
   13d16:	0007bb03          	ld	s6,0(a5)
   13d1a:	0087bb83          	ld	s7,8(a5)
   13d1e:	0107bc03          	ld	s8,16(a5)
   13d22:	0187bc83          	ld	s9,24(a5)
   13d26:	7782                	c.ldsp	a5,32(sp)
   13d28:	85ce                	c.mv	a1,s3
   13d2a:	8526                	c.mv	a0,s1
   13d2c:	020a0a13          	addi	s4,s4,32
   13d30:	06098993          	addi	s3,s3,96
   13d34:	fefa3023          	sd	a5,-32(s4)
   13d38:	77a2                	c.ldsp	a5,40(sp)
   13d3a:	fefa3423          	sd	a5,-24(s4)
   13d3e:	77c2                	c.ldsp	a5,48(sp)
   13d40:	fefa3823          	sd	a5,-16(s4)
   13d44:	77e2                	c.ldsp	a5,56(sp)
   13d46:	fefa3c23          	sd	a5,-8(s4)
   13d4a:	fa89b603          	ld	a2,-88(s3)
   13d4e:	fa09b783          	ld	a5,-96(s3)
   13d52:	fb09b683          	ld	a3,-80(s3)
   13d56:	fb89b703          	ld	a4,-72(s3)
   13d5a:	8fd1                	c.or	a5,a2
   13d5c:	8fd5                	c.or	a5,a3
   13d5e:	8fd9                	c.or	a5,a4
   13d60:	0017b913          	sltiu	s2,a5,1
   13d64:	f3dfd0ef          	jal	ra,11ca0 <fp_copy>
   13d68:	78b2                	c.ldsp	a7,296(sp)
   13d6a:	fff90713          	addi	a4,s2,-1
   13d6e:	7312                	c.ldsp	t1,288(sp)
   13d70:	412007b3          	sub	a5,zero,s2
   13d74:	76d2                	c.ldsp	a3,304(sp)
   13d76:	00fbf5b3          	and	a1,s7,a5
   13d7a:	7e72                	c.ldsp	t3,312(sp)
   13d7c:	011778b3          	and	a7,a4,a7
   13d80:	00fb7533          	and	a0,s6,a5
   13d84:	00fc7633          	and	a2,s8,a5
   13d88:	00b8e8b3          	or	a7,a7,a1
   13d8c:	00677333          	and	t1,a4,t1
   13d90:	8ef9                	c.and	a3,a4
   13d92:	00fcf7b3          	and	a5,s9,a5
   13d96:	01c77733          	and	a4,a4,t3
   13d9a:	100c                	c.addi4spn	a1,sp,32
   13d9c:	00a36333          	or	t1,t1,a0
   13da0:	8ed1                	c.or	a3,a2
   13da2:	8f5d                	c.or	a4,a5
   13da4:	8626                	c.mv	a2,s1
   13da6:	852e                	c.mv	a0,a1
   13da8:	896e                	c.mv	s2,s11
   13daa:	0d85                	c.addi	s11,1
   13dac:	f21a                	c.sdsp	t1,288(sp)
   13dae:	f646                	c.sdsp	a7,296(sp)
   13db0:	fa36                	c.sdsp	a3,304(sp)
   13db2:	fe3a                	c.sdsp	a4,312(sp)
   13db4:	159040ef          	jal	ra,1870c <fp_mont_mul>
   13db8:	f7b417e3          	bne	s0,s11,13d26 <sm2_batch_normalize_mont+0x106>
   13dbc:	100c                	c.addi4spn	a1,sp,32
   13dbe:	0088                	c.addi4spn	a0,sp,64
   13dc0:	d20fe0ef          	jal	ra,122e0 <fp_mont_inv>
   13dc4:	0916                	c.slli	s2,0x5
   13dc6:	6722                	c.ldsp	a4,8(sp)
   13dc8:	208467b3          	sh3add	a5,s0,s0
   13dcc:	20842833          	sh1add	a6,s0,s0
   13dd0:	9d4a                	c.add	s10,s2
   13dd2:	0816                	c.slli	a6,0x5
   13dd4:	0c010a13          	addi	s4,sp,192
   13dd8:	20e7e7b3          	sh3add	a5,a5,a4
   13ddc:	1801                	c.addi	a6,-32
   13dde:	fb878413          	addi	s0,a5,-72
   13de2:	fe0a8793          	addi	a5,s5,-32
   13de6:	ec3e                	c.sdsp	a5,24(sp)
   13de8:	119c                	c.addi4spn	a5,sp,224
   13dea:	e83e                	c.sdsp	a5,16(sp)
   13dec:	021c                	c.addi4spn	a5,sp,256
   13dee:	010a8db3          	add	s11,s5,a6
   13df2:	e43e                	c.sdsp	a5,8(sp)
   13df4:	008db603          	ld	a2,8(s11)
   13df8:	85ee                	c.mv	a1,s11
   13dfa:	000db883          	ld	a7,0(s11)
   13dfe:	1088                	c.addi4spn	a0,sp,96
   13e00:	010db683          	ld	a3,16(s11)
   13e04:	018db703          	ld	a4,24(s11)
   13e08:	00c8e8b3          	or	a7,a7,a2
   13e0c:	00d8e8b3          	or	a7,a7,a3
   13e10:	00e8eab3          	or	s5,a7,a4
   13e14:	e8dfd0ef          	jal	ra,11ca0 <fp_copy>
   13e18:	7f06                	c.ldsp	t5,96(sp)
   13e1a:	001ab913          	sltiu	s2,s5,1
   13e1e:	7ea6                	c.ldsp	t4,104(sp)
   13e20:	fff90993          	addi	s3,s2,-1
   13e24:	7e46                	c.ldsp	t3,112(sp)
   13e26:	41200633          	sub	a2,zero,s2
   13e2a:	7366                	c.ldsp	t1,120(sp)
   13e2c:	00cb7fb3          	and	t6,s6,a2
   13e30:	00cbf533          	and	a0,s7,a2
   13e34:	00cc75b3          	and	a1,s8,a2
   13e38:	01e9ff33          	and	t5,s3,t5
   13e3c:	00ccf633          	and	a2,s9,a2
   13e40:	01d9feb3          	and	t4,s3,t4
   13e44:	01c9fe33          	and	t3,s3,t3
   13e48:	0069f333          	and	t1,s3,t1
   13e4c:	00aeeeb3          	or	t4,t4,a0
   13e50:	00be6e33          	or	t3,t3,a1
   13e54:	00c36333          	or	t1,t1,a2
   13e58:	01ff6f33          	or	t5,t5,t6
   13e5c:	866a                	c.mv	a2,s10
   13e5e:	008c                	c.addi4spn	a1,sp,64
   13e60:	0108                	c.addi4spn	a0,sp,128
   13e62:	f0fa                	c.sdsp	t5,96(sp)
   13e64:	f4f6                	c.sdsp	t4,104(sp)
   13e66:	f8f2                	c.sdsp	t3,112(sp)
   13e68:	fc9a                	c.sdsp	t1,120(sp)
   13e6a:	0a3040ef          	jal	ra,1870c <fp_mont_mul>
   13e6e:	008c                	c.addi4spn	a1,sp,64
   13e70:	1090                	c.addi4spn	a2,sp,96
   13e72:	852e                	c.mv	a0,a1
   13e74:	099040ef          	jal	ra,1870c <fp_mont_mul>
   13e78:	010c                	c.addi4spn	a1,sp,128
   13e7a:	1108                	c.addi4spn	a0,sp,160
   13e7c:	605040ef          	jal	ra,18c80 <fp_mont_sqr>
   13e80:	0110                	c.addi4spn	a2,sp,128
   13e82:	110c                	c.addi4spn	a1,sp,160
   13e84:	8552                	c.mv	a0,s4
   13e86:	087040ef          	jal	ra,1870c <fp_mont_mul>
   13e8a:	6542                	c.ldsp	a0,16(sp)
   13e8c:	1110                	c.addi4spn	a2,sp,160
   13e8e:	fc0d8593          	addi	a1,s11,-64
   13e92:	07b040ef          	jal	ra,1870c <fp_mont_mul>
   13e96:	6522                	c.ldsp	a0,8(sp)
   13e98:	8652                	c.mv	a2,s4
   13e9a:	fe0d8593          	addi	a1,s11,-32
   13e9e:	06f040ef          	jal	ra,1870c <fp_mont_mul>
   13ea2:	65c2                	c.ldsp	a1,16(sp)
   13ea4:	8522                	c.mv	a0,s0
   13ea6:	dfbfd0ef          	jal	ra,11ca0 <fp_copy>
   13eaa:	65a2                	c.ldsp	a1,8(sp)
   13eac:	02040513          	addi	a0,s0,32
   13eb0:	df1fd0ef          	jal	ra,11ca0 <fp_copy>
   13eb4:	04042023          	sw	zero,64(s0)
   13eb8:	8526                	c.mv	a0,s1
   13eba:	e07fd0ef          	jal	ra,11cc0 <fp_set_zero>
   13ebe:	0288                	c.addi4spn	a0,sp,320
   13ec0:	e01fd0ef          	jal	ra,11cc0 <fp_set_zero>
   13ec4:	6010                	c.ld	a2,0(s0)
   13ec6:	4501                	c.li	a0,0
   13ec8:	00c9f633          	and	a2,s3,a2
   13ecc:	00090363          	beq	s2,zero,13ed2 <sm2_batch_normalize_mont+0x2b2>
   13ed0:	7512                	c.ldsp	a0,288(sp)
   13ed2:	640c                	c.ld	a1,8(s0)
   13ed4:	8e49                	c.or	a2,a0
   13ed6:	e010                	c.sd	a2,0(s0)
   13ed8:	4501                	c.li	a0,0
   13eda:	00b9f5b3          	and	a1,s3,a1
   13ede:	00090363          	beq	s2,zero,13ee4 <sm2_batch_normalize_mont+0x2c4>
   13ee2:	7532                	c.ldsp	a0,296(sp)
   13ee4:	6810                	c.ld	a2,16(s0)
   13ee6:	8dc9                	c.or	a1,a0
   13ee8:	e40c                	c.sd	a1,8(s0)
   13eea:	4501                	c.li	a0,0
   13eec:	00c9f633          	and	a2,s3,a2
   13ef0:	00090363          	beq	s2,zero,13ef6 <sm2_batch_normalize_mont+0x2d6>
   13ef4:	7552                	c.ldsp	a0,304(sp)
   13ef6:	6c0c                	c.ld	a1,24(s0)
   13ef8:	8e49                	c.or	a2,a0
   13efa:	e810                	c.sd	a2,16(s0)
   13efc:	4501                	c.li	a0,0
   13efe:	00b9f5b3          	and	a1,s3,a1
   13f02:	00090363          	beq	s2,zero,13f08 <sm2_batch_normalize_mont+0x2e8>
   13f06:	7572                	c.ldsp	a0,312(sp)
   13f08:	7010                	c.ld	a2,32(s0)
   13f0a:	8dc9                	c.or	a1,a0
   13f0c:	ec0c                	c.sd	a1,24(s0)
   13f0e:	4501                	c.li	a0,0
   13f10:	00c9f633          	and	a2,s3,a2
   13f14:	00090363          	beq	s2,zero,13f1a <sm2_batch_normalize_mont+0x2fa>
   13f18:	6516                	c.ldsp	a0,320(sp)
   13f1a:	740c                	c.ld	a1,40(s0)
   13f1c:	8e49                	c.or	a2,a0
   13f1e:	f010                	c.sd	a2,32(s0)
   13f20:	4501                	c.li	a0,0
   13f22:	00b9f5b3          	and	a1,s3,a1
   13f26:	00090363          	beq	s2,zero,13f2c <sm2_batch_normalize_mont+0x30c>
   13f2a:	6536                	c.ldsp	a0,328(sp)
   13f2c:	7810                	c.ld	a2,48(s0)
   13f2e:	8dc9                	c.or	a1,a0
   13f30:	f40c                	c.sd	a1,40(s0)
   13f32:	4581                	c.li	a1,0
   13f34:	00c9f633          	and	a2,s3,a2
   13f38:	00090363          	beq	s2,zero,13f3e <sm2_batch_normalize_mont+0x31e>
   13f3c:	65d6                	c.ldsp	a1,336(sp)
   13f3e:	7c08                	c.ld	a0,56(s0)
   13f40:	8e4d                	c.or	a2,a1
   13f42:	f810                	c.sd	a2,48(s0)
   13f44:	4601                	c.li	a2,0
   13f46:	00a9f733          	and	a4,s3,a0
   13f4a:	00090363          	beq	s2,zero,13f50 <sm2_batch_normalize_mont+0x330>
   13f4e:	6676                	c.ldsp	a2,344(sp)
   13f50:	8f51                	c.or	a4,a2
   13f52:	fc18                	c.sd	a4,56(s0)
   13f54:	000a9463          	bne	s5,zero,13f5c <sm2_batch_normalize_mont+0x33c>
   13f58:	4785                	c.li	a5,1
   13f5a:	c03c                	c.sw	a5,64(s0)
   13f5c:	67e2                	c.ldsp	a5,24(sp)
   13f5e:	fa0d8d93          	addi	s11,s11,-96
   13f62:	1d01                	c.addi	s10,-32
   13f64:	fb840413          	addi	s0,s0,-72
   13f68:	e8fd96e3          	bne	s11,a5,13df4 <sm2_batch_normalize_mont+0x1d4>
   13f6c:	64be                	c.ldsp	s1,456(sp)
   13f6e:	691e                	c.ldsp	s2,448(sp)
   13f70:	79fa                	c.ldsp	s3,440(sp)
   13f72:	7a5a                	c.ldsp	s4,432(sp)
   13f74:	7b1a                	c.ldsp	s6,416(sp)
   13f76:	6c5a                	c.ldsp	s8,400(sp)
   13f78:	6cba                	c.ldsp	s9,392(sp)
   13f7a:	7df6                	c.ldsp	s11,376(sp)
   13f7c:	b1f1                	c.j	13c48 <sm2_batch_normalize_mont+0x28>
   13f7e:	e7a6                	c.sdsp	s1,456(sp)
   13f80:	e3ca                	c.sdsp	s2,448(sp)
   13f82:	ff4e                	c.sdsp	s3,440(sp)
   13f84:	fb52                	c.sdsp	s4,432(sp)
   13f86:	f35a                	c.sdsp	s6,416(sp)
   13f88:	eb62                	c.sdsp	s8,400(sp)
   13f8a:	e766                	c.sdsp	s9,392(sp)
   13f8c:	feee                	c.sdsp	s11,376(sp)
   13f8e:	f32fc0ef          	jal	ra,106c0 <__stack_chk_fail@plt>
	...

0000000000013fc0 <sm2_init_fixedbase_table_mont>:
   13fc0:	716d                	c.addi16sp	sp,-272
   13fc2:	72e1                	c.lui	t0,0xffff8
   13fc4:	fda6                	c.sdsp	s1,248(sp)
   13fc6:	64a1                	c.lui	s1,0x8
   13fc8:	f1d2                	c.sdsp	s4,224(sp)
   13fca:	0a848693          	addi	a3,s1,168 # 80a8 <__abi_tag-0x8210>
   13fce:	edd6                	c.sdsp	s5,216(sp)
   13fd0:	e606                	c.sdsp	ra,264(sp)
   13fd2:	8141a783          	lw	a5,-2028(gp) # 1d05c <T_base_mont_ready>
   13fd6:	e222                	c.sdsp	s0,256(sp)
   13fd8:	0001da37          	lui	s4,0x1d
   13fdc:	f9ca                	c.sdsp	s2,240(sp)
   13fde:	f5ce                	c.sdsp	s3,232(sp)
   13fe0:	e9da                	c.sdsp	s6,208(sp)
   13fe2:	e5de                	c.sdsp	s7,200(sp)
   13fe4:	9116                	c.add	sp,t0
   13fe6:	0818                	c.addi4spn	a4,sp,16
   13fe8:	96ba                	c.add	a3,a4
   13fea:	e00a3703          	ld	a4,-512(s4) # 1ce00 <__stack_chk_guard@GLIBC_2.27>
   13fee:	e298                	c.sd	a4,0(a3)
   13ff0:	4701                	c.li	a4,0
   13ff2:	cb95                	c.beqz	a5,14026 <sm2_init_fixedbase_table_mont+0x66>
   13ff4:	0818                	c.addi4spn	a4,sp,16
   13ff6:	67a1                	c.lui	a5,0x8
   13ff8:	0a878793          	addi	a5,a5,168 # 80a8 <__abi_tag-0x8210>
   13ffc:	97ba                	c.add	a5,a4
   13ffe:	6398                	c.ld	a4,0(a5)
   14000:	e00a3783          	ld	a5,-512(s4)
   14004:	8fb9                	c.xor	a5,a4
   14006:	4701                	c.li	a4,0
   14008:	1a079963          	bne	a5,zero,141ba <sm2_init_fixedbase_table_mont+0x1fa>
   1400c:	62a1                	c.lui	t0,0x8
   1400e:	9116                	c.add	sp,t0
   14010:	60b2                	c.ldsp	ra,264(sp)
   14012:	6412                	c.ldsp	s0,256(sp)
   14014:	74ee                	c.ldsp	s1,248(sp)
   14016:	794e                	c.ldsp	s2,240(sp)
   14018:	79ae                	c.ldsp	s3,232(sp)
   1401a:	7a0e                	c.ldsp	s4,224(sp)
   1401c:	6aee                	c.ldsp	s5,216(sp)
   1401e:	6b4e                	c.ldsp	s6,208(sp)
   14020:	6bae                	c.ldsp	s7,200(sp)
   14022:	6151                	c.addi16sp	sp,272
   14024:	8082                	c.jr	ra
   14026:	0b048713          	addi	a4,s1,176
   1402a:	77e1                	c.lui	a5,0xffff8
   1402c:	f5078793          	addi	a5,a5,-176 # ffffffffffff7f50 <__BSS_END__+0xfffffffffff4b760>
   14030:	7469                	c.lui	s0,0xffffa
   14032:	973e                	c.add	a4,a5
   14034:	081c                	c.addi4spn	a5,sp,16
   14036:	97ba                	c.add	a5,a4
   14038:	0b840413          	addi	s0,s0,184 # ffffffffffffa0b8 <__BSS_END__+0xfffffffffff4d8c8>
   1403c:	853e                	c.mv	a0,a5
   1403e:	e43e                	c.sdsp	a5,8(sp)
   14040:	861fe0ef          	jal	ra,128a0 <sm2_get_base_affine_mont>
   14044:	65a2                	c.ldsp	a1,8(sp)
   14046:	0b048793          	addi	a5,s1,176
   1404a:	7561                	c.lui	a0,0xffff8
   1404c:	f9850513          	addi	a0,a0,-104 # ffffffffffff7f98 <__BSS_END__+0xfffffffffff4b7a8>
   14050:	97aa                	c.add	a5,a0
   14052:	0818                	c.addi4spn	a4,sp,16
   14054:	00e78533          	add	a0,a5,a4
   14058:	bc9fe0ef          	jal	ra,12c20 <sm2_affine_mont_to_jacobian_mont>
   1405c:	0b048713          	addi	a4,s1,176
   14060:	77e1                	c.lui	a5,0xffff8
   14062:	973e                	c.add	a4,a5
   14064:	081c                	c.addi4spn	a5,sp,16
   14066:	97ba                	c.add	a5,a4
   14068:	0b048613          	addi	a2,s1,176
   1406c:	e03e                	c.sdsp	a5,0(sp)
   1406e:	f987b683          	ld	a3,-104(a5) # ffffffffffff7f98 <__BSS_END__+0xfffffffffff4b7a8>
   14072:	fa07b703          	ld	a4,-96(a5)
   14076:	77e9                	c.lui	a5,0xffffa
   14078:	963e                	c.add	a2,a5
   1407a:	081c                	c.addi4spn	a5,sp,16
   1407c:	97b2                	c.add	a5,a2
   1407e:	6602                	c.ldsp	a2,0(sp)
   14080:	efb4                	c.sd	a3,88(a5)
   14082:	6682                	c.ldsp	a3,0(sp)
   14084:	f3b8                	c.sd	a4,96(a5)
   14086:	6702                	c.ldsp	a4,0(sp)
   14088:	fb063583          	ld	a1,-80(a2)
   1408c:	fa863503          	ld	a0,-88(a2)
   14090:	fc06b683          	ld	a3,-64(a3)
   14094:	fb863603          	ld	a2,-72(a2)
   14098:	fbac                	c.sd	a1,112(a5)
   1409a:	fc873703          	ld	a4,-56(a4)
   1409e:	f7a8                	c.sd	a0,104(a5)
   140a0:	6582                	c.ldsp	a1,0(sp)
   140a2:	e3d4                	c.sd	a3,128(a5)
   140a4:	6502                	c.ldsp	a0,0(sp)
   140a6:	ffb0                	c.sd	a2,120(a5)
   140a8:	6682                	c.ldsp	a3,0(sp)
   140aa:	e7d8                	c.sd	a4,136(a5)
   140ac:	6602                	c.ldsp	a2,0(sp)
   140ae:	6702                	c.ldsp	a4,0(sp)
   140b0:	fd85b583          	ld	a1,-40(a1)
   140b4:	fd053503          	ld	a0,-48(a0)
   140b8:	fe063603          	ld	a2,-32(a2)
   140bc:	fe86b683          	ld	a3,-24(a3)
   140c0:	efcc                	c.sd	a1,152(a5)
   140c2:	ff073703          	ld	a4,-16(a4)
   140c6:	0b048593          	addi	a1,s1,176
   140ca:	ebc8                	c.sd	a0,144(a5)
   140cc:	95a2                	c.add	a1,s0
   140ce:	f3d0                	c.sd	a2,160(a5)
   140d0:	0808                	c.addi4spn	a0,sp,16
   140d2:	0b848613          	addi	a2,s1,184
   140d6:	f7d4                	c.sd	a3,168(a5)
   140d8:	00a58433          	add	s0,a1,a0
   140dc:	002604b3          	add	s1,a2,sp
   140e0:	fbd8                	c.sd	a4,176(a5)
   140e2:	6622                	c.ldsp	a2,8(sp)
   140e4:	fa040593          	addi	a1,s0,-96
   140e8:	8522                	c.mv	a0,s0
   140ea:	06040413          	addi	s0,s0,96
   140ee:	bd2ff0ef          	jal	ra,134c0 <sm2_add_ja_mont>
   140f2:	fe9418e3          	bne	s0,s1,140e2 <sm2_init_fixedbase_table_mont+0x122>
   140f6:	6721                	c.lui	a4,0x8
   140f8:	76e1                	c.lui	a3,0xffff8
   140fa:	0b070793          	addi	a5,a4,176 # 80b0 <__abi_tag-0x8208>
   140fe:	05868693          	addi	a3,a3,88 # ffffffffffff8058 <__BSS_END__+0xfffffffffff4b868>
   14102:	97b6                	c.add	a5,a3
   14104:	0814                	c.addi4spn	a3,sp,16
   14106:	96be                	c.add	a3,a5
   14108:	75e9                	c.lui	a1,0xffffa
   1410a:	0b070793          	addi	a5,a4,176
   1410e:	05858593          	addi	a1,a1,88 # ffffffffffffa058 <__BSS_END__+0xfffffffffff4d868>
   14112:	97ae                	c.add	a5,a1
   14114:	0818                	c.addi4spn	a4,sp,16
   14116:	00e785b3          	add	a1,a5,a4
   1411a:	0001d437          	lui	s0,0x1d
   1411e:	0f040513          	addi	a0,s0,240 # 1d0f0 <T_base_mont>
   14122:	0ff00613          	addi	a2,zero,255
   14126:	afbff0ef          	jal	ra,13c20 <sm2_batch_normalize_mont>
   1412a:	0f040713          	addi	a4,s0,240
   1412e:	6691                	c.lui	a3,0x4
   14130:	7f868693          	addi	a3,a3,2040 # 47f8 <__abi_tag-0xbac0>
   14134:	0001d7b7          	lui	a5,0x1d
   14138:	96ba                	c.add	a3,a4
   1413a:	13078793          	addi	a5,a5,304 # 1d130 <T_base_mont+0x40>
   1413e:	0007a023          	sw	zero,0(a5)
   14142:	04878793          	addi	a5,a5,72
   14146:	fed79ce3          	bne	a5,a3,1413e <sm2_init_fixedbase_table_mont+0x17e>
   1414a:	6925                	c.lui	s2,0x9
   1414c:	000946b7          	lui	a3,0x94
   14150:	f7090913          	addi	s2,s2,-144 # 8f70 <__abi_tag-0x7348>
