
correctness_compare_asm_O3：     文件格式 elf64-littleriscv


Disassembly of section .plt:

0000000000010b20 <_PROCEDURE_LINKAGE_TABLE_>:
   10b20:	97 c3 00 00 33 03 c3 41 03 be 03 4d 13 03 43 fd     ....3..A...M..C.
   10b30:	93 82 03 4d 13 53 13 00 83 b2 82 00 67 00 0e 00     ...M.S......g...

0000000000010b40 <__libc_start_main@plt>:
   10b40:	0000ce17          	auipc	t3,0xc
   10b44:	4c0e3e03          	ld	t3,1216(t3) # 1d000 <__libc_start_main@GLIBC_2.34>
   10b48:	000e0367          	jalr	t1,t3
   10b4c:	00000013          	nop

0000000000010b50 <sm2_z256_point_mul@plt>:
   10b50:	0000ce17          	auipc	t3,0xc
   10b54:	4b8e3e03          	ld	t3,1208(t3) # 1d008 <sm2_z256_point_mul@Base>
   10b58:	000e0367          	jalr	t1,t3
   10b5c:	00000013          	nop

0000000000010b60 <sm2_z256_modn_mont_mul@plt>:
   10b60:	0000ce17          	auipc	t3,0xc
   10b64:	4b0e3e03          	ld	t3,1200(t3) # 1d010 <sm2_z256_modn_mont_mul@Base>
   10b68:	000e0367          	jalr	t1,t3
   10b6c:	00000013          	nop

0000000000010b70 <sm2_z256_to_bytes@plt>:
   10b70:	0000ce17          	auipc	t3,0xc
   10b74:	4a8e3e03          	ld	t3,1192(t3) # 1d018 <sm2_z256_to_bytes@Base>
   10b78:	000e0367          	jalr	t1,t3
   10b7c:	00000013          	nop

0000000000010b80 <__printf_chk@plt>:
   10b80:	0000ce17          	auipc	t3,0xc
   10b84:	4a0e3e03          	ld	t3,1184(t3) # 1d020 <__printf_chk@GLIBC_2.27>
   10b88:	000e0367          	jalr	t1,t3
   10b8c:	00000013          	nop

0000000000010b90 <sm2_z256_modp_mont_sqr@plt>:
   10b90:	0000ce17          	auipc	t3,0xc
   10b94:	498e3e03          	ld	t3,1176(t3) # 1d028 <sm2_z256_modp_mont_sqr@Base>
   10b98:	000e0367          	jalr	t1,t3
   10b9c:	00000013          	nop

0000000000010ba0 <sm2_z256_modp_to_mont@plt>:
   10ba0:	0000ce17          	auipc	t3,0xc
   10ba4:	490e3e03          	ld	t3,1168(t3) # 1d030 <sm2_z256_modp_to_mont@Base>
   10ba8:	000e0367          	jalr	t1,t3
   10bac:	00000013          	nop

0000000000010bb0 <putchar@plt>:
   10bb0:	0000ce17          	auipc	t3,0xc
   10bb4:	488e3e03          	ld	t3,1160(t3) # 1d038 <putchar@GLIBC_2.27>
   10bb8:	000e0367          	jalr	t1,t3
   10bbc:	00000013          	nop

0000000000010bc0 <__stack_chk_fail@plt>:
   10bc0:	0000ce17          	auipc	t3,0xc
   10bc4:	480e3e03          	ld	t3,1152(t3) # 1d040 <__stack_chk_fail@GLIBC_2.27>
   10bc8:	000e0367          	jalr	t1,t3
   10bcc:	00000013          	nop

0000000000010bd0 <memcpy@plt>:
   10bd0:	0000ce17          	auipc	t3,0xc
   10bd4:	478e3e03          	ld	t3,1144(t3) # 1d048 <memcpy@GLIBC_2.27>
   10bd8:	000e0367          	jalr	t1,t3
   10bdc:	00000013          	nop

0000000000010be0 <sm2_z256_modp_add@plt>:
   10be0:	0000ce17          	auipc	t3,0xc
   10be4:	470e3e03          	ld	t3,1136(t3) # 1d050 <sm2_z256_modp_add@Base>
   10be8:	000e0367          	jalr	t1,t3
   10bec:	00000013          	nop

0000000000010bf0 <sm2_z256_modp_mont_inv@plt>:
   10bf0:	0000ce17          	auipc	t3,0xc
   10bf4:	468e3e03          	ld	t3,1128(t3) # 1d058 <sm2_z256_modp_mont_inv@Base>
   10bf8:	000e0367          	jalr	t1,t3
   10bfc:	00000013          	nop

0000000000010c00 <sm2_z256_modn_mul@plt>:
   10c00:	0000ce17          	auipc	t3,0xc
   10c04:	460e3e03          	ld	t3,1120(t3) # 1d060 <sm2_z256_modn_mul@Base>
   10c08:	000e0367          	jalr	t1,t3
   10c0c:	00000013          	nop

0000000000010c10 <sm2_z256_modp_from_mont@plt>:
   10c10:	0000ce17          	auipc	t3,0xc
   10c14:	458e3e03          	ld	t3,1112(t3) # 1d068 <sm2_z256_modp_from_mont@Base>
   10c18:	000e0367          	jalr	t1,t3
   10c1c:	00000013          	nop

0000000000010c20 <sm2_z256_modp_mont_mul@plt>:
   10c20:	0000ce17          	auipc	t3,0xc
   10c24:	450e3e03          	ld	t3,1104(t3) # 1d070 <sm2_z256_modp_mont_mul@Base>
   10c28:	000e0367          	jalr	t1,t3
   10c2c:	00000013          	nop

0000000000010c30 <puts@plt>:
   10c30:	0000ce17          	auipc	t3,0xc
   10c34:	448e3e03          	ld	t3,1096(t3) # 1d078 <puts@GLIBC_2.27>
   10c38:	000e0367          	jalr	t1,t3
   10c3c:	00000013          	nop

0000000000010c40 <sm2_z256_modp_sub@plt>:
   10c40:	0000ce17          	auipc	t3,0xc
   10c44:	440e3e03          	ld	t3,1088(t3) # 1d080 <sm2_z256_modp_sub@Base>
   10c48:	000e0367          	jalr	t1,t3
   10c4c:	00000013          	nop

0000000000010c50 <sm2_z256_modn_from_mont@plt>:
   10c50:	0000ce17          	auipc	t3,0xc
   10c54:	438e3e03          	ld	t3,1080(t3) # 1d088 <sm2_z256_modn_from_mont@Base>
   10c58:	000e0367          	jalr	t1,t3
   10c5c:	00000013          	nop

0000000000010c60 <sm2_z256_point_mul_generator@plt>:
   10c60:	0000ce17          	auipc	t3,0xc
   10c64:	430e3e03          	ld	t3,1072(t3) # 1d090 <sm2_z256_point_mul_generator@Base>
   10c68:	000e0367          	jalr	t1,t3
   10c6c:	00000013          	nop

0000000000010c70 <sm2_z256_from_bytes@plt>:
   10c70:	0000ce17          	auipc	t3,0xc
   10c74:	428e3e03          	ld	t3,1064(t3) # 1d098 <sm2_z256_from_bytes@Base>
   10c78:	000e0367          	jalr	t1,t3
   10c7c:	00000013          	nop

0000000000010c80 <memset@plt>:
   10c80:	0000ce17          	auipc	t3,0xc
   10c84:	420e3e03          	ld	t3,1056(t3) # 1d0a0 <memset@GLIBC_2.27>
   10c88:	000e0367          	jalr	t1,t3
   10c8c:	00000013          	nop

0000000000010c90 <sm2_z256_point_get_xy@plt>:
   10c90:	0000ce17          	auipc	t3,0xc
   10c94:	418e3e03          	ld	t3,1048(t3) # 1d0a8 <sm2_z256_point_get_xy@Base>
   10c98:	000e0367          	jalr	t1,t3
   10c9c:	00000013          	nop

Disassembly of section .text:

0000000000010ca0 <main>:
   10ca0:	df010113          	addi	sp,sp,-528
   10ca4:	6775                	lui	a4,0x1d
   10ca6:	6569                	lui	a0,0x1a
   10ca8:	df073783          	ld	a5,-528(a4) # 1cdf0 <__stack_chk_guard@GLIBC_2.27>
   10cac:	ef3e                	sd	a5,408(sp)
   10cae:	4781                	li	a5,0
   10cb0:	bb050513          	addi	a0,a0,-1104 # 19bb0 <_IO_stdin_used+0x450>
   10cb4:	20113423          	sd	ra,520(sp)
   10cb8:	20813023          	sd	s0,512(sp)
   10cbc:	4405                	li	s0,1
   10cbe:	ffa6                	sd	s1,504(sp)
   10cc0:	3e900493          	li	s1,1001
   10cc4:	fbca                	sd	s2,496(sp)
   10cc6:	f7ce                	sd	s3,488(sp)
   10cc8:	f3d2                	sd	s4,480(sp)
   10cca:	efd6                	sd	s5,472(sp)
   10ccc:	ebda                	sd	s6,464(sp)
   10cce:	e7de                	sd	s7,456(sp)
   10cd0:	e3e2                	sd	s8,448(sp)
   10cd2:	ff66                	sd	s9,440(sp)
   10cd4:	fb6a                	sd	s10,432(sp)
   10cd6:	f76e                	sd	s11,424(sp)
   10cd8:	f59ff0ef          	jal	10c30 <puts@plt>
   10cdc:	6569                	lui	a0,0x1a
   10cde:	bd050513          	addi	a0,a0,-1072 # 19bd0 <_IO_stdin_used+0x470>
   10ce2:	f4fff0ef          	jal	10c30 <puts@plt>
   10ce6:	65e9                	lui	a1,0x1a
   10ce8:	bf858593          	addi	a1,a1,-1032 # 19bf8 <_IO_stdin_used+0x498>
   10cec:	3e800613          	li	a2,1000
   10cf0:	4509                	li	a0,2
   10cf2:	e8fff0ef          	jal	10b80 <__printf_chk@plt>
   10cf6:	a021                	j	10cfe <main+0x5e>
   10cf8:	2405                	addiw	s0,s0,1
   10cfa:	109401e3          	beq	s0,s1,115fc <main+0x95c>
   10cfe:	0ff47513          	zext.b	a0,s0
   10d02:	7ce010ef          	jal	124d0 <test_fp_to_from_mont_once>
   10d06:	f96d                	bnez	a0,10cf8 <main+0x58>
   10d08:	85aa                	mv	a1,a0
   10d0a:	05810913          	addi	s2,sp,88
   10d0e:	6569                	lui	a0,0x1a
   10d10:	18a4                	addi	s1,sp,120
   10d12:	c0850513          	addi	a0,a0,-1016 # 19c08 <_IO_stdin_used+0x4a8>
   10d16:	09810993          	addi	s3,sp,152
   10d1a:	0b810a13          	addi	s4,sp,184
   10d1e:	0f810c13          	addi	s8,sp,248
   10d22:	0d810b13          	addi	s6,sp,216
   10d26:	13810c93          	addi	s9,sp,312
   10d2a:	0aa0                	addi	s0,sp,344
   10d2c:	193000ef          	jal	116be <mark_result>
   10d30:	08000b93          	li	s7,128
   10d34:	4d05                	li	s10,1
   10d36:	6de5                	lui	s11,0x19
   10d38:	6ae5                	lui	s5,0x19
   10d3a:	0ffd7793          	zext.b	a5,s10
   10d3e:	85de                	mv	a1,s7
   10d40:	853e                	mv	a0,a5
   10d42:	e43e                	sd	a5,8(sp)
   10d44:	673000ef          	jal	11bb6 <test_fp_add_once>
   10d48:	fc02                	sd	zero,56(sp)
   10d4a:	67a2                	ld	a5,8(sp)
   10d4c:	e82a                	sd	a0,16(sp)
   10d4e:	e082                	sd	zero,64(sp)
   10d50:	1838                	addi	a4,sp,56
   10d52:	e482                	sd	zero,72(sp)
   10d54:	e882                	sd	zero,80(sp)
   10d56:	00f70023          	sb	a5,0(a4)
   10d5a:	27b5                	addiw	a5,a5,13
   10d5c:	0705                	addi	a4,a4,1
   10d5e:	0ff7f793          	zext.b	a5,a5
   10d62:	fee91ae3          	bne	s2,a4,10d56 <main+0xb6>
   10d66:	76e2                	ld	a3,56(sp)
   10d68:	00093023          	sd	zero,0(s2)
   10d6c:	00093423          	sd	zero,8(s2)
   10d70:	874a                	mv	a4,s2
   10d72:	00093823          	sd	zero,16(s2)
   10d76:	87de                	mv	a5,s7
   10d78:	0016e693          	ori	a3,a3,1
   10d7c:	00093c23          	sd	zero,24(s2)
   10d80:	fc36                	sd	a3,56(sp)
   10d82:	00f70023          	sb	a5,0(a4)
   10d86:	27b5                	addiw	a5,a5,13
   10d88:	0705                	addi	a4,a4,1
   10d8a:	0ff7f793          	zext.b	a5,a5
   10d8e:	fee49ae3          	bne	s1,a4,10d82 <main+0xe2>
   10d92:	67e6                	ld	a5,88(sp)
   10d94:	182c                	addi	a1,sp,56
   10d96:	8526                	mv	a0,s1
   10d98:	0017e793          	ori	a5,a5,1
   10d9c:	ecbe                	sd	a5,88(sp)
   10d9e:	7db070ef          	jal	18d78 <fp_to_mont>
   10da2:	85ca                	mv	a1,s2
   10da4:	854e                	mv	a0,s3
   10da6:	7d3070ef          	jal	18d78 <fp_to_mont>
   10daa:	864e                	mv	a2,s3
   10dac:	85a6                	mv	a1,s1
   10dae:	8552                	mv	a0,s4
   10db0:	294070ef          	jal	18044 <fp_mont_sub>
   10db4:	77e6                	ld	a5,120(sp)
   10db6:	8662                	mv	a2,s8
   10db8:	85da                	mv	a1,s6
   10dba:	0a28                	addi	a0,sp,280
   10dbc:	edbe                	sd	a5,216(sp)
   10dbe:	678a                	ld	a5,128(sp)
   10dc0:	f1be                	sd	a5,224(sp)
   10dc2:	67aa                	ld	a5,136(sp)
   10dc4:	f5be                	sd	a5,232(sp)
   10dc6:	67ca                	ld	a5,144(sp)
   10dc8:	f9be                	sd	a5,240(sp)
   10dca:	67ea                	ld	a5,152(sp)
   10dcc:	fdbe                	sd	a5,248(sp)
   10dce:	778a                	ld	a5,160(sp)
   10dd0:	e23e                	sd	a5,256(sp)
   10dd2:	77aa                	ld	a5,168(sp)
   10dd4:	e63e                	sd	a5,264(sp)
   10dd6:	77ca                	ld	a5,176(sp)
   10dd8:	ea3e                	sd	a5,272(sp)
   10dda:	e67ff0ef          	jal	10c40 <sm2_z256_modp_sub@plt>
   10dde:	7692                	ld	a3,288(sp)
   10de0:	67f2                	ld	a5,280(sp)
   10de2:	000a3703          	ld	a4,0(s4)
   10de6:	e2b6                	sd	a3,320(sp)
   10de8:	76b2                	ld	a3,296(sp)
   10dea:	fe3e                	sd	a5,312(sp)
   10dec:	e6b6                	sd	a3,328(sp)
   10dee:	76d2                	ld	a3,304(sp)
   10df0:	eab6                	sd	a3,336(sp)
   10df2:	6af70763          	beq	a4,a5,114a0 <main+0x800>
   10df6:	67e9                	lui	a5,0x1a
   10df8:	86de                	mv	a3,s7
   10dfa:	c2878593          	addi	a1,a5,-984 # 19c28 <_IO_stdin_used+0x4c8>
   10dfe:	0ffd7613          	zext.b	a2,s10
   10e02:	4509                	li	a0,2
   10e04:	d7dff0ef          	jal	10b80 <__printf_chk@plt>
   10e08:	67e5                	lui	a5,0x19
   10e0a:	7b0d8593          	addi	a1,s11,1968 # 197b0 <_IO_stdin_used+0x50>
   10e0e:	7e878613          	addi	a2,a5,2024 # 197e8 <_IO_stdin_used+0x88>
   10e12:	4509                	li	a0,2
   10e14:	d6dff0ef          	jal	10b80 <__printf_chk@plt>
   10e18:	87d2                	mv	a5,s4
   10e1a:	0007c603          	lbu	a2,0(a5)
   10e1e:	7b8a8593          	addi	a1,s5,1976 # 197b8 <_IO_stdin_used+0x58>
   10e22:	e03e                	sd	a5,0(sp)
   10e24:	4509                	li	a0,2
   10e26:	d5bff0ef          	jal	10b80 <__printf_chk@plt>
   10e2a:	6782                	ld	a5,0(sp)
   10e2c:	0785                	addi	a5,a5,1
   10e2e:	fefb16e3          	bne	s6,a5,10e1a <main+0x17a>
   10e32:	4529                	li	a0,10
   10e34:	d7dff0ef          	jal	10bb0 <putchar@plt>
   10e38:	67e9                	lui	a5,0x1a
   10e3a:	7b0d8593          	addi	a1,s11,1968
   10e3e:	80078613          	addi	a2,a5,-2048 # 19800 <_IO_stdin_used+0xa0>
   10e42:	4509                	li	a0,2
   10e44:	d3dff0ef          	jal	10b80 <__printf_chk@plt>
   10e48:	87e6                	mv	a5,s9
   10e4a:	0007c603          	lbu	a2,0(a5)
   10e4e:	7b8a8593          	addi	a1,s5,1976
   10e52:	e03e                	sd	a5,0(sp)
   10e54:	4509                	li	a0,2
   10e56:	d2bff0ef          	jal	10b80 <__printf_chk@plt>
   10e5a:	6782                	ld	a5,0(sp)
   10e5c:	0785                	addi	a5,a5,1
   10e5e:	fe8796e3          	bne	a5,s0,10e4a <main+0x1aa>
   10e62:	4529                	li	a0,10
   10e64:	d4dff0ef          	jal	10bb0 <putchar@plt>
   10e68:	ec02                	sd	zero,24(sp)
   10e6a:	67a2                	ld	a5,8(sp)
   10e6c:	fc02                	sd	zero,56(sp)
   10e6e:	1838                	addi	a4,sp,56
   10e70:	e082                	sd	zero,64(sp)
   10e72:	e482                	sd	zero,72(sp)
   10e74:	e882                	sd	zero,80(sp)
   10e76:	00f70023          	sb	a5,0(a4)
   10e7a:	27b5                	addiw	a5,a5,13
   10e7c:	0705                	addi	a4,a4,1
   10e7e:	0ff7f793          	zext.b	a5,a5
   10e82:	fee91ae3          	bne	s2,a4,10e76 <main+0x1d6>
   10e86:	76e2                	ld	a3,56(sp)
   10e88:	00093023          	sd	zero,0(s2)
   10e8c:	00093423          	sd	zero,8(s2)
   10e90:	874a                	mv	a4,s2
   10e92:	00093823          	sd	zero,16(s2)
   10e96:	87de                	mv	a5,s7
   10e98:	0016e693          	ori	a3,a3,1
   10e9c:	00093c23          	sd	zero,24(s2)
   10ea0:	fc36                	sd	a3,56(sp)
   10ea2:	00f70023          	sb	a5,0(a4)
   10ea6:	27b5                	addiw	a5,a5,13
   10ea8:	0705                	addi	a4,a4,1
   10eaa:	0ff7f793          	zext.b	a5,a5
   10eae:	fee49ae3          	bne	s1,a4,10ea2 <main+0x202>
   10eb2:	67e6                	ld	a5,88(sp)
   10eb4:	182c                	addi	a1,sp,56
   10eb6:	8526                	mv	a0,s1
   10eb8:	0017e793          	ori	a5,a5,1
   10ebc:	ecbe                	sd	a5,88(sp)
   10ebe:	6bb070ef          	jal	18d78 <fp_to_mont>
   10ec2:	85ca                	mv	a1,s2
   10ec4:	854e                	mv	a0,s3
   10ec6:	6b3070ef          	jal	18d78 <fp_to_mont>
   10eca:	864e                	mv	a2,s3
   10ecc:	85a6                	mv	a1,s1
   10ece:	8552                	mv	a0,s4
   10ed0:	2b0070ef          	jal	18180 <fp_mont_mul>
   10ed4:	77e6                	ld	a5,120(sp)
   10ed6:	8662                	mv	a2,s8
   10ed8:	85da                	mv	a1,s6
   10eda:	0a28                	addi	a0,sp,280
   10edc:	edbe                	sd	a5,216(sp)
   10ede:	678a                	ld	a5,128(sp)
   10ee0:	f1be                	sd	a5,224(sp)
   10ee2:	67aa                	ld	a5,136(sp)
   10ee4:	f5be                	sd	a5,232(sp)
   10ee6:	67ca                	ld	a5,144(sp)
   10ee8:	f9be                	sd	a5,240(sp)
   10eea:	67ea                	ld	a5,152(sp)
   10eec:	fdbe                	sd	a5,248(sp)
   10eee:	778a                	ld	a5,160(sp)
   10ef0:	e23e                	sd	a5,256(sp)
   10ef2:	77aa                	ld	a5,168(sp)
   10ef4:	e63e                	sd	a5,264(sp)
   10ef6:	77ca                	ld	a5,176(sp)
   10ef8:	ea3e                	sd	a5,272(sp)
   10efa:	d27ff0ef          	jal	10c20 <sm2_z256_modp_mont_mul@plt>
   10efe:	7692                	ld	a3,288(sp)
   10f00:	67f2                	ld	a5,280(sp)
   10f02:	000a3703          	ld	a4,0(s4)
   10f06:	e2b6                	sd	a3,320(sp)
   10f08:	76b2                	ld	a3,296(sp)
   10f0a:	fe3e                	sd	a5,312(sp)
   10f0c:	e6b6                	sd	a3,328(sp)
   10f0e:	76d2                	ld	a3,304(sp)
   10f10:	eab6                	sd	a3,336(sp)
   10f12:	56f70263          	beq	a4,a5,11476 <main+0x7d6>
   10f16:	67e9                	lui	a5,0x1a
   10f18:	86de                	mv	a3,s7
   10f1a:	c5078593          	addi	a1,a5,-944 # 19c50 <_IO_stdin_used+0x4f0>
   10f1e:	0ffd7613          	zext.b	a2,s10
   10f22:	4509                	li	a0,2
   10f24:	c5dff0ef          	jal	10b80 <__printf_chk@plt>
   10f28:	67e5                	lui	a5,0x19
   10f2a:	7b0d8593          	addi	a1,s11,1968
   10f2e:	7e878613          	addi	a2,a5,2024 # 197e8 <_IO_stdin_used+0x88>
   10f32:	4509                	li	a0,2
   10f34:	c4dff0ef          	jal	10b80 <__printf_chk@plt>
   10f38:	87d2                	mv	a5,s4
   10f3a:	0007c603          	lbu	a2,0(a5)
   10f3e:	7b8a8593          	addi	a1,s5,1976
   10f42:	e03e                	sd	a5,0(sp)
   10f44:	4509                	li	a0,2
   10f46:	c3bff0ef          	jal	10b80 <__printf_chk@plt>
   10f4a:	6782                	ld	a5,0(sp)
   10f4c:	0785                	addi	a5,a5,1
   10f4e:	fefb16e3          	bne	s6,a5,10f3a <main+0x29a>
   10f52:	4529                	li	a0,10
   10f54:	c5dff0ef          	jal	10bb0 <putchar@plt>
   10f58:	67e9                	lui	a5,0x1a
   10f5a:	7b0d8593          	addi	a1,s11,1968
   10f5e:	80078613          	addi	a2,a5,-2048 # 19800 <_IO_stdin_used+0xa0>
   10f62:	4509                	li	a0,2
   10f64:	c1dff0ef          	jal	10b80 <__printf_chk@plt>
   10f68:	87e6                	mv	a5,s9
   10f6a:	0007c603          	lbu	a2,0(a5)
   10f6e:	7b8a8593          	addi	a1,s5,1976
   10f72:	e03e                	sd	a5,0(sp)
   10f74:	4509                	li	a0,2
   10f76:	c0bff0ef          	jal	10b80 <__printf_chk@plt>
   10f7a:	6782                	ld	a5,0(sp)
   10f7c:	0785                	addi	a5,a5,1
   10f7e:	fe8796e3          	bne	a5,s0,10f6a <main+0x2ca>
   10f82:	4529                	li	a0,10
   10f84:	c2dff0ef          	jal	10bb0 <putchar@plt>
   10f88:	f002                	sd	zero,32(sp)
   10f8a:	67a2                	ld	a5,8(sp)
   10f8c:	0004b023          	sd	zero,0(s1)
   10f90:	8726                	mv	a4,s1
   10f92:	0004b423          	sd	zero,8(s1)
   10f96:	0004b823          	sd	zero,16(s1)
   10f9a:	0004bc23          	sd	zero,24(s1)
   10f9e:	00f70023          	sb	a5,0(a4)
   10fa2:	27b5                	addiw	a5,a5,13
   10fa4:	0705                	addi	a4,a4,1
   10fa6:	0ff7f793          	zext.b	a5,a5
   10faa:	fee99ae3          	bne	s3,a4,10f9e <main+0x2fe>
   10fae:	77e6                	ld	a5,120(sp)
   10fb0:	85a6                	mv	a1,s1
   10fb2:	854e                	mv	a0,s3
   10fb4:	0017e793          	ori	a5,a5,1
   10fb8:	fcbe                	sd	a5,120(sp)
   10fba:	5bf070ef          	jal	18d78 <fp_to_mont>
   10fbe:	85ce                	mv	a1,s3
   10fc0:	8552                	mv	a0,s4
   10fc2:	70a070ef          	jal	186cc <fp_mont_sqr>
   10fc6:	864e                	mv	a2,s3
   10fc8:	85ce                	mv	a1,s3
   10fca:	855a                	mv	a0,s6
   10fcc:	1b4070ef          	jal	18180 <fp_mont_mul>
   10fd0:	000a3703          	ld	a4,0(s4)
   10fd4:	000b3783          	ld	a5,0(s6)
   10fd8:	4ef70963          	beq	a4,a5,114ca <main+0x82a>
   10fdc:	67e9                	lui	a5,0x1a
   10fde:	0ffd7613          	zext.b	a2,s10
   10fe2:	c7878593          	addi	a1,a5,-904 # 19c78 <_IO_stdin_used+0x518>
   10fe6:	4509                	li	a0,2
   10fe8:	b99ff0ef          	jal	10b80 <__printf_chk@plt>
   10fec:	67e9                	lui	a5,0x1a
   10fee:	7b0d8593          	addi	a1,s11,1968
   10ff2:	cb878613          	addi	a2,a5,-840 # 19cb8 <_IO_stdin_used+0x558>
   10ff6:	4509                	li	a0,2
   10ff8:	b89ff0ef          	jal	10b80 <__printf_chk@plt>
   10ffc:	87d2                	mv	a5,s4
   10ffe:	0007c603          	lbu	a2,0(a5)
   11002:	7b8a8593          	addi	a1,s5,1976
   11006:	e03e                	sd	a5,0(sp)
   11008:	4509                	li	a0,2
   1100a:	b77ff0ef          	jal	10b80 <__printf_chk@plt>
   1100e:	6782                	ld	a5,0(sp)
   11010:	0785                	addi	a5,a5,1
   11012:	fefb16e3          	bne	s6,a5,10ffe <main+0x35e>
   11016:	4529                	li	a0,10
   11018:	b99ff0ef          	jal	10bb0 <putchar@plt>
   1101c:	7b0d8593          	addi	a1,s11,1968
   11020:	6669                	lui	a2,0x1a
   11022:	cc860613          	addi	a2,a2,-824 # 19cc8 <_IO_stdin_used+0x568>
   11026:	4509                	li	a0,2
   11028:	b59ff0ef          	jal	10b80 <__printf_chk@plt>
   1102c:	87da                	mv	a5,s6
   1102e:	0007c603          	lbu	a2,0(a5)
   11032:	7b8a8593          	addi	a1,s5,1976
   11036:	e03e                	sd	a5,0(sp)
   11038:	4509                	li	a0,2
   1103a:	b47ff0ef          	jal	10b80 <__printf_chk@plt>
   1103e:	6782                	ld	a5,0(sp)
   11040:	0785                	addi	a5,a5,1
   11042:	fefc16e3          	bne	s8,a5,1102e <main+0x38e>
   11046:	4529                	li	a0,10
   11048:	b69ff0ef          	jal	10bb0 <putchar@plt>
   1104c:	f402                	sd	zero,40(sp)
   1104e:	67a2                	ld	a5,8(sp)
   11050:	00093023          	sd	zero,0(s2)
   11054:	00093423          	sd	zero,8(s2)
   11058:	874a                	mv	a4,s2
   1105a:	00093823          	sd	zero,16(s2)
   1105e:	0017e793          	ori	a5,a5,1
   11062:	00093c23          	sd	zero,24(s2)
   11066:	e03e                	sd	a5,0(sp)
   11068:	00f70023          	sb	a5,0(a4)
   1106c:	27b5                	addiw	a5,a5,13
   1106e:	0705                	addi	a4,a4,1
   11070:	0ff7f793          	zext.b	a5,a5
   11074:	fee49ae3          	bne	s1,a4,11068 <main+0x3c8>
   11078:	67e6                	ld	a5,88(sp)
   1107a:	85ca                	mv	a1,s2
   1107c:	8526                	mv	a0,s1
   1107e:	0017e793          	ori	a5,a5,1
   11082:	ecbe                	sd	a5,88(sp)
   11084:	4f5070ef          	jal	18d78 <fp_to_mont>
   11088:	85a6                	mv	a1,s1
   1108a:	854e                	mv	a0,s3
   1108c:	163020ef          	jal	139ee <fp_mont_inv>
   11090:	864e                	mv	a2,s3
   11092:	85a6                	mv	a1,s1
   11094:	8552                	mv	a0,s4
   11096:	0ea070ef          	jal	18180 <fp_mont_mul>
   1109a:	77e6                	ld	a5,120(sp)
   1109c:	85da                	mv	a1,s6
   1109e:	8562                	mv	a0,s8
   110a0:	edbe                	sd	a5,216(sp)
   110a2:	678a                	ld	a5,128(sp)
   110a4:	f1be                	sd	a5,224(sp)
   110a6:	67aa                	ld	a5,136(sp)
   110a8:	f5be                	sd	a5,232(sp)
   110aa:	67ca                	ld	a5,144(sp)
   110ac:	f9be                	sd	a5,240(sp)
   110ae:	b43ff0ef          	jal	10bf0 <sm2_z256_modp_mont_inv@plt>
   110b2:	6692                	ld	a3,256(sp)
   110b4:	77ee                	ld	a5,248(sp)
   110b6:	0009b703          	ld	a4,0(s3)
   110ba:	e2b6                	sd	a3,320(sp)
   110bc:	66b2                	ld	a3,264(sp)
   110be:	fe3e                	sd	a5,312(sp)
   110c0:	e6b6                	sd	a3,328(sp)
   110c2:	66d2                	ld	a3,272(sp)
   110c4:	eab6                	sd	a3,336(sp)
   110c6:	30f70363          	beq	a4,a5,113cc <main+0x72c>
   110ca:	6602                	ld	a2,0(sp)
   110cc:	65e9                	lui	a1,0x1a
   110ce:	d0058593          	addi	a1,a1,-768 # 19d00 <_IO_stdin_used+0x5a0>
   110d2:	4509                	li	a0,2
   110d4:	aadff0ef          	jal	10b80 <__printf_chk@plt>
   110d8:	7b0d8593          	addi	a1,s11,1968
   110dc:	6669                	lui	a2,0x1a
   110de:	d2860613          	addi	a2,a2,-728 # 19d28 <_IO_stdin_used+0x5c8>
   110e2:	4509                	li	a0,2
   110e4:	a9dff0ef          	jal	10b80 <__printf_chk@plt>
   110e8:	87ce                	mv	a5,s3
   110ea:	0007c603          	lbu	a2,0(a5)
   110ee:	7b8a8593          	addi	a1,s5,1976
   110f2:	e03e                	sd	a5,0(sp)
   110f4:	4509                	li	a0,2
   110f6:	a8bff0ef          	jal	10b80 <__printf_chk@plt>
   110fa:	6782                	ld	a5,0(sp)
   110fc:	0785                	addi	a5,a5,1
   110fe:	fefa16e3          	bne	s4,a5,110ea <main+0x44a>
   11102:	4529                	li	a0,10
   11104:	aadff0ef          	jal	10bb0 <putchar@plt>
   11108:	7b0d8593          	addi	a1,s11,1968
   1110c:	6669                	lui	a2,0x1a
   1110e:	d3860613          	addi	a2,a2,-712 # 19d38 <_IO_stdin_used+0x5d8>
   11112:	4509                	li	a0,2
   11114:	a6dff0ef          	jal	10b80 <__printf_chk@plt>
   11118:	87e6                	mv	a5,s9
   1111a:	0007c603          	lbu	a2,0(a5)
   1111e:	7b8a8593          	addi	a1,s5,1976
   11122:	e03e                	sd	a5,0(sp)
   11124:	4509                	li	a0,2
   11126:	a5bff0ef          	jal	10b80 <__printf_chk@plt>
   1112a:	6782                	ld	a5,0(sp)
   1112c:	0785                	addi	a5,a5,1
   1112e:	fef416e3          	bne	s0,a5,1111a <main+0x47a>
   11132:	4529                	li	a0,10
   11134:	a7dff0ef          	jal	10bb0 <putchar@plt>
   11138:	4781                	li	a5,0
   1113a:	6742                	ld	a4,16(sp)
   1113c:	cb05                	beqz	a4,1116c <main+0x4cc>
   1113e:	6762                	ld	a4,24(sp)
   11140:	48070f63          	beqz	a4,115de <main+0x93e>
   11144:	7702                	ld	a4,32(sp)
   11146:	48070f63          	beqz	a4,115e4 <main+0x944>
   1114a:	7722                	ld	a4,40(sp)
   1114c:	48070f63          	beqz	a4,115ea <main+0x94a>
   11150:	4a078163          	beqz	a5,115f2 <main+0x952>
   11154:	2b85                	addiw	s7,s7,1
   11156:	2d05                	addiw	s10,s10,1
   11158:	0ffbfb93          	zext.b	s7,s7
   1115c:	3e900713          	li	a4,1001
   11160:	bced1de3          	bne	s10,a4,10d3a <main+0x9a>
   11164:	f43e                	sd	a5,40(sp)
   11166:	f03e                	sd	a5,32(sp)
   11168:	ec3e                	sd	a5,24(sp)
   1116a:	e83e                	sd	a5,16(sp)
   1116c:	65c2                	ld	a1,16(sp)
   1116e:	6569                	lui	a0,0x1a
   11170:	db050513          	addi	a0,a0,-592 # 19db0 <_IO_stdin_used+0x650>
   11174:	e03e                	sd	a5,0(sp)
   11176:	1aa4                	addi	s1,sp,376
   11178:	19810913          	addi	s2,sp,408
   1117c:	542000ef          	jal	116be <mark_result>
   11180:	05500b93          	li	s7,85
   11184:	65e2                	ld	a1,24(sp)
   11186:	6569                	lui	a0,0x1a
   11188:	dc050513          	addi	a0,a0,-576 # 19dc0 <_IO_stdin_used+0x660>
   1118c:	4a8d                	li	s5,3
   1118e:	4d81                	li	s11,0
   11190:	52e000ef          	jal	116be <mark_result>
   11194:	7582                	ld	a1,32(sp)
   11196:	6569                	lui	a0,0x1a
   11198:	dd050513          	addi	a0,a0,-560 # 19dd0 <_IO_stdin_used+0x670>
   1119c:	522000ef          	jal	116be <mark_result>
   111a0:	75a2                	ld	a1,40(sp)
   111a2:	6569                	lui	a0,0x1a
   111a4:	de050513          	addi	a0,a0,-544 # 19de0 <_IO_stdin_used+0x680>
   111a8:	516000ef          	jal	116be <mark_result>
   111ac:	6782                	ld	a5,0(sp)
   111ae:	6569                	lui	a0,0x1a
   111b0:	df050513          	addi	a0,a0,-528 # 19df0 <_IO_stdin_used+0x690>
   111b4:	85be                	mv	a1,a5
   111b6:	508000ef          	jal	116be <mark_result>
   111ba:	85de                	mv	a1,s7
   111bc:	8556                	mv	a0,s5
   111be:	43f000ef          	jal	11dfc <test_fn_mont_mul_once>
   111c2:	8d2a                	mv	s10,a0
   111c4:	8726                	mv	a4,s1
   111c6:	87d6                	mv	a5,s5
   111c8:	00f70023          	sb	a5,0(a4)
   111cc:	27b5                	addiw	a5,a5,13
   111ce:	0705                	addi	a4,a4,1
   111d0:	0ff7f793          	zext.b	a5,a5
   111d4:	fee91ae3          	bne	s2,a4,111c8 <main+0x528>
   111d8:	19714783          	lbu	a5,407(sp)
   111dc:	85a6                	mv	a1,s1
   111de:	854e                	mv	a0,s3
   111e0:	0017e793          	ori	a5,a5,1
   111e4:	18f10ba3          	sb	a5,407(sp)
   111e8:	29d020ef          	jal	13c84 <fn_from_be>
   111ec:	8726                	mv	a4,s1
   111ee:	87de                	mv	a5,s7
   111f0:	00f70023          	sb	a5,0(a4)
   111f4:	27b5                	addiw	a5,a5,13
   111f6:	0705                	addi	a4,a4,1
   111f8:	0ff7f793          	zext.b	a5,a5
   111fc:	fee91ae3          	bne	s2,a4,111f0 <main+0x550>
   11200:	19714783          	lbu	a5,407(sp)
   11204:	85a6                	mv	a1,s1
   11206:	8552                	mv	a0,s4
   11208:	0017e793          	ori	a5,a5,1
   1120c:	18f10ba3          	sb	a5,407(sp)
   11210:	275020ef          	jal	13c84 <fn_from_be>
   11214:	8652                	mv	a2,s4
   11216:	85ce                	mv	a1,s3
   11218:	855a                	mv	a0,s6
   1121a:	610030ef          	jal	1482a <fn_mul>
   1121e:	85da                	mv	a1,s6
   11220:	8522                	mv	a0,s0
   11222:	487020ef          	jal	13ea8 <fn_to_be>
   11226:	67ea                	ld	a5,152(sp)
   11228:	0a30                	addi	a2,sp,280
   1122a:	85e2                	mv	a1,s8
   1122c:	8566                	mv	a0,s9
   1122e:	fdbe                	sd	a5,248(sp)
   11230:	778a                	ld	a5,160(sp)
   11232:	e23e                	sd	a5,256(sp)
   11234:	77aa                	ld	a5,168(sp)
   11236:	e63e                	sd	a5,264(sp)
   11238:	77ca                	ld	a5,176(sp)
   1123a:	ea3e                	sd	a5,272(sp)
   1123c:	77ea                	ld	a5,184(sp)
   1123e:	ee3e                	sd	a5,280(sp)
   11240:	678e                	ld	a5,192(sp)
   11242:	f23e                	sd	a5,288(sp)
   11244:	67ae                	ld	a5,200(sp)
   11246:	f63e                	sd	a5,296(sp)
   11248:	67ce                	ld	a5,208(sp)
   1124a:	fa3e                	sd	a5,304(sp)
   1124c:	9b5ff0ef          	jal	10c00 <sm2_z256_modn_mul@plt>
   11250:	85a6                	mv	a1,s1
   11252:	8566                	mv	a0,s9
   11254:	91dff0ef          	jal	10b70 <sm2_z256_to_bytes@plt>
   11258:	6018                	ld	a4,0(s0)
   1125a:	609c                	ld	a5,0(s1)
   1125c:	2ef70663          	beq	a4,a5,11548 <main+0x8a8>
   11260:	86de                	mv	a3,s7
   11262:	8656                	mv	a2,s5
   11264:	65e9                	lui	a1,0x1a
   11266:	e0058593          	addi	a1,a1,-512 # 19e00 <_IO_stdin_used+0x6a0>
   1126a:	4509                	li	a0,2
   1126c:	915ff0ef          	jal	10b80 <__printf_chk@plt>
   11270:	6a65                	lui	s4,0x19
   11272:	6669                	lui	a2,0x1a
   11274:	7b0a0593          	addi	a1,s4,1968 # 197b0 <_IO_stdin_used+0x50>
   11278:	83060613          	addi	a2,a2,-2000 # 19830 <_IO_stdin_used+0xd0>
   1127c:	4509                	li	a0,2
   1127e:	69e5                	lui	s3,0x19
   11280:	901ff0ef          	jal	10b80 <__printf_chk@plt>
   11284:	00044603          	lbu	a2,0(s0)
   11288:	7b898593          	addi	a1,s3,1976 # 197b8 <_IO_stdin_used+0x58>
   1128c:	0405                	addi	s0,s0,1
   1128e:	4509                	li	a0,2
   11290:	8f1ff0ef          	jal	10b80 <__printf_chk@plt>
   11294:	fe8498e3          	bne	s1,s0,11284 <main+0x5e4>
   11298:	4529                	li	a0,10
   1129a:	917ff0ef          	jal	10bb0 <putchar@plt>
   1129e:	6669                	lui	a2,0x1a
   112a0:	7b0a0593          	addi	a1,s4,1968
   112a4:	83860613          	addi	a2,a2,-1992 # 19838 <_IO_stdin_used+0xd8>
   112a8:	4509                	li	a0,2
   112aa:	8d7ff0ef          	jal	10b80 <__printf_chk@plt>
   112ae:	0004c603          	lbu	a2,0(s1)
   112b2:	7b898593          	addi	a1,s3,1976
   112b6:	0485                	addi	s1,s1,1
   112b8:	4509                	li	a0,2
   112ba:	8c7ff0ef          	jal	10b80 <__printf_chk@plt>
   112be:	fe9918e3          	bne	s2,s1,112ae <main+0x60e>
   112c2:	01a03d33          	snez	s10,s10
   112c6:	4529                	li	a0,10
   112c8:	4401                	li	s0,0
   112ca:	8e7ff0ef          	jal	10bb0 <putchar@plt>
   112ce:	85ea                	mv	a1,s10
   112d0:	6569                	lui	a0,0x1a
   112d2:	e2850513          	addi	a0,a0,-472 # 19e28 <_IO_stdin_used+0x6c8>
   112d6:	3e800493          	li	s1,1000
   112da:	3e4000ef          	jal	116be <mark_result>
   112de:	85a2                	mv	a1,s0
   112e0:	6569                	lui	a0,0x1a
   112e2:	e3850513          	addi	a0,a0,-456 # 19e38 <_IO_stdin_used+0x6d8>
   112e6:	4401                	li	s0,0
   112e8:	3d6000ef          	jal	116be <mark_result>
   112ec:	a021                	j	112f4 <main+0x654>
   112ee:	2405                	addiw	s0,s0,1
   112f0:	30940963          	beq	s0,s1,11602 <main+0x962>
   112f4:	0074051b          	addiw	a0,s0,7
   112f8:	0ff57513          	zext.b	a0,a0
   112fc:	491000ef          	jal	11f8c <test_point_mul_generator_once>
   11300:	f57d                	bnez	a0,112ee <main+0x64e>
   11302:	85aa                	mv	a1,a0
   11304:	6569                	lui	a0,0x1a
   11306:	e4050513          	addi	a0,a0,-448 # 19e40 <_IO_stdin_used+0x6e0>
   1130a:	4401                	li	s0,0
   1130c:	3b2000ef          	jal	116be <mark_result>
   11310:	3e800493          	li	s1,1000
   11314:	a021                	j	1131c <main+0x67c>
   11316:	2405                	addiw	s0,s0,1
   11318:	2e940763          	beq	s0,s1,11606 <main+0x966>
   1131c:	0ff47513          	zext.b	a0,s0
   11320:	0355059b          	addiw	a1,a0,53
   11324:	2545                	addiw	a0,a0,17
   11326:	0ff5f593          	zext.b	a1,a1
   1132a:	0ff57513          	zext.b	a0,a0
   1132e:	6d3000ef          	jal	12200 <test_point_mul_once>
   11332:	f175                	bnez	a0,11316 <main+0x676>
   11334:	85aa                	mv	a1,a0
   11336:	6569                	lui	a0,0x1a
   11338:	e5850513          	addi	a0,a0,-424 # 19e58 <_IO_stdin_used+0x6f8>
   1133c:	6475                	lui	s0,0x1d
   1133e:	380000ef          	jal	116be <mark_result>
   11342:	28d010ef          	jal	12dce <test_scalar_stress_generator>
   11346:	63e010ef          	jal	12984 <test_scalar_stress_point_mul>
   1134a:	6569                	lui	a0,0x1a
   1134c:	e6850513          	addi	a0,a0,-408 # 19e68 <_IO_stdin_used+0x708>
   11350:	8e1ff0ef          	jal	10c30 <puts@plt>
   11354:	8101a603          	lw	a2,-2032(gp) # 1d0c0 <g_total>
   11358:	65e9                	lui	a1,0x1a
   1135a:	e9058593          	addi	a1,a1,-368 # 19e90 <_IO_stdin_used+0x730>
   1135e:	4509                	li	a0,2
   11360:	821ff0ef          	jal	10b80 <__printf_chk@plt>
   11364:	80c1a603          	lw	a2,-2036(gp) # 1d0bc <g_pass>
   11368:	65e9                	lui	a1,0x1a
   1136a:	ea058593          	addi	a1,a1,-352 # 19ea0 <_IO_stdin_used+0x740>
   1136e:	4509                	li	a0,2
   11370:	811ff0ef          	jal	10b80 <__printf_chk@plt>
   11374:	0b842603          	lw	a2,184(s0) # 1d0b8 <g_fail>
   11378:	65e9                	lui	a1,0x1a
   1137a:	eb058593          	addi	a1,a1,-336 # 19eb0 <_IO_stdin_used+0x750>
   1137e:	4509                	li	a0,2
   11380:	801ff0ef          	jal	10b80 <__printf_chk@plt>
   11384:	0b842403          	lw	s0,184(s0)
   11388:	1e041c63          	bnez	s0,11580 <main+0x8e0>
   1138c:	6569                	lui	a0,0x1a
   1138e:	ec050513          	addi	a0,a0,-320 # 19ec0 <_IO_stdin_used+0x760>
   11392:	89fff0ef          	jal	10c30 <puts@plt>
   11396:	67f5                	lui	a5,0x1d
   11398:	677a                	ld	a4,408(sp)
   1139a:	df07b783          	ld	a5,-528(a5) # 1cdf0 <__stack_chk_guard@GLIBC_2.27>
   1139e:	8fb9                	xor	a5,a5,a4
   113a0:	4701                	li	a4,0
   113a2:	26079463          	bnez	a5,1160a <main+0x96a>
   113a6:	20813083          	ld	ra,520(sp)
   113aa:	8522                	mv	a0,s0
   113ac:	20013403          	ld	s0,512(sp)
   113b0:	74fe                	ld	s1,504(sp)
   113b2:	795e                	ld	s2,496(sp)
   113b4:	79be                	ld	s3,488(sp)
   113b6:	7a1e                	ld	s4,480(sp)
   113b8:	6afe                	ld	s5,472(sp)
   113ba:	6b5e                	ld	s6,464(sp)
   113bc:	6bbe                	ld	s7,456(sp)
   113be:	6c1e                	ld	s8,448(sp)
   113c0:	7cfa                	ld	s9,440(sp)
   113c2:	7d5a                	ld	s10,432(sp)
   113c4:	7dba                	ld	s11,424(sp)
   113c6:	21010113          	addi	sp,sp,528
   113ca:	8082                	ret
   113cc:	0089b703          	ld	a4,8(s3)
   113d0:	008cb783          	ld	a5,8(s9)
   113d4:	cef71be3          	bne	a4,a5,110ca <main+0x42a>
   113d8:	0109b703          	ld	a4,16(s3)
   113dc:	010cb783          	ld	a5,16(s9)
   113e0:	cef715e3          	bne	a4,a5,110ca <main+0x42a>
   113e4:	0189b703          	ld	a4,24(s3)
   113e8:	018cb783          	ld	a5,24(s9)
   113ec:	ccf71fe3          	bne	a4,a5,110ca <main+0x42a>
   113f0:	4785                	li	a5,1
   113f2:	85e6                	mv	a1,s9
   113f4:	0a28                	addi	a0,sp,280
   113f6:	fe3e                	sd	a5,312(sp)
   113f8:	e282                	sd	zero,320(sp)
   113fa:	e682                	sd	zero,328(sp)
   113fc:	ea82                	sd	zero,336(sp)
   113fe:	17b070ef          	jal	18d78 <fp_to_mont>
   11402:	000a3703          	ld	a4,0(s4)
   11406:	67f2                	ld	a5,280(sp)
   11408:	18f70363          	beq	a4,a5,1158e <main+0x8ee>
   1140c:	6602                	ld	a2,0(sp)
   1140e:	65e9                	lui	a1,0x1a
   11410:	d4858593          	addi	a1,a1,-696 # 19d48 <_IO_stdin_used+0x5e8>
   11414:	4509                	li	a0,2
   11416:	f6aff0ef          	jal	10b80 <__printf_chk@plt>
   1141a:	7b0d8593          	addi	a1,s11,1968
   1141e:	6669                	lui	a2,0x1a
   11420:	d9060613          	addi	a2,a2,-624 # 19d90 <_IO_stdin_used+0x630>
   11424:	4509                	li	a0,2
   11426:	f5aff0ef          	jal	10b80 <__printf_chk@plt>
   1142a:	87d2                	mv	a5,s4
   1142c:	0007c603          	lbu	a2,0(a5)
   11430:	7b8a8593          	addi	a1,s5,1976
   11434:	e03e                	sd	a5,0(sp)
   11436:	4509                	li	a0,2
   11438:	f48ff0ef          	jal	10b80 <__printf_chk@plt>
   1143c:	6782                	ld	a5,0(sp)
   1143e:	0785                	addi	a5,a5,1
   11440:	fefb16e3          	bne	s6,a5,1142c <main+0x78c>
   11444:	4529                	li	a0,10
   11446:	f6aff0ef          	jal	10bb0 <putchar@plt>
   1144a:	7b0d8593          	addi	a1,s11,1968
   1144e:	6669                	lui	a2,0x1a
   11450:	da060613          	addi	a2,a2,-608 # 19da0 <_IO_stdin_used+0x640>
   11454:	4509                	li	a0,2
   11456:	f2aff0ef          	jal	10b80 <__printf_chk@plt>
   1145a:	0a3c                	addi	a5,sp,280
   1145c:	0007c603          	lbu	a2,0(a5)
   11460:	7b8a8593          	addi	a1,s5,1976
   11464:	e03e                	sd	a5,0(sp)
   11466:	4509                	li	a0,2
   11468:	f18ff0ef          	jal	10b80 <__printf_chk@plt>
   1146c:	6782                	ld	a5,0(sp)
   1146e:	0785                	addi	a5,a5,1
   11470:	fefc96e3          	bne	s9,a5,1145c <main+0x7bc>
   11474:	b97d                	j	11132 <main+0x492>
   11476:	008a3703          	ld	a4,8(s4)
   1147a:	008cb783          	ld	a5,8(s9)
   1147e:	a8f71ce3          	bne	a4,a5,10f16 <main+0x276>
   11482:	010a3703          	ld	a4,16(s4)
   11486:	010cb783          	ld	a5,16(s9)
   1148a:	a8f716e3          	bne	a4,a5,10f16 <main+0x276>
   1148e:	018a3703          	ld	a4,24(s4)
   11492:	018cb783          	ld	a5,24(s9)
   11496:	a8f710e3          	bne	a4,a5,10f16 <main+0x276>
   1149a:	4785                	li	a5,1
   1149c:	f03e                	sd	a5,32(sp)
   1149e:	b4f5                	j	10f8a <main+0x2ea>
   114a0:	008a3703          	ld	a4,8(s4)
   114a4:	008cb783          	ld	a5,8(s9)
   114a8:	94f717e3          	bne	a4,a5,10df6 <main+0x156>
   114ac:	010a3703          	ld	a4,16(s4)
   114b0:	010cb783          	ld	a5,16(s9)
   114b4:	94f711e3          	bne	a4,a5,10df6 <main+0x156>
   114b8:	018a3703          	ld	a4,24(s4)
   114bc:	018cb783          	ld	a5,24(s9)
   114c0:	92f71be3          	bne	a4,a5,10df6 <main+0x156>
   114c4:	4785                	li	a5,1
   114c6:	ec3e                	sd	a5,24(sp)
   114c8:	b24d                	j	10e6a <main+0x1ca>
   114ca:	008a3703          	ld	a4,8(s4)
   114ce:	008b3783          	ld	a5,8(s6)
   114d2:	b0f715e3          	bne	a4,a5,10fdc <main+0x33c>
   114d6:	010a3703          	ld	a4,16(s4)
   114da:	010b3783          	ld	a5,16(s6)
   114de:	aef71fe3          	bne	a4,a5,10fdc <main+0x33c>
   114e2:	018a3703          	ld	a4,24(s4)
   114e6:	018b3783          	ld	a5,24(s6)
   114ea:	aef719e3          	bne	a4,a5,10fdc <main+0x33c>
   114ee:	67ea                	ld	a5,152(sp)
   114f0:	85e2                	mv	a1,s8
   114f2:	0a28                	addi	a0,sp,280
   114f4:	fdbe                	sd	a5,248(sp)
   114f6:	778a                	ld	a5,160(sp)
   114f8:	e23e                	sd	a5,256(sp)
   114fa:	77aa                	ld	a5,168(sp)
   114fc:	e63e                	sd	a5,264(sp)
   114fe:	77ca                	ld	a5,176(sp)
   11500:	ea3e                	sd	a5,272(sp)
   11502:	e8eff0ef          	jal	10b90 <sm2_z256_modp_mont_sqr@plt>
   11506:	7692                	ld	a3,288(sp)
   11508:	67f2                	ld	a5,280(sp)
   1150a:	000a3703          	ld	a4,0(s4)
   1150e:	e2b6                	sd	a3,320(sp)
   11510:	76b2                	ld	a3,296(sp)
   11512:	fe3e                	sd	a5,312(sp)
   11514:	e6b6                	sd	a3,328(sp)
   11516:	76d2                	ld	a3,304(sp)
   11518:	eab6                	sd	a3,336(sp)
   1151a:	08f70b63          	beq	a4,a5,115b0 <main+0x910>
   1151e:	0ffd7613          	zext.b	a2,s10
   11522:	65e9                	lui	a1,0x1a
   11524:	cd858593          	addi	a1,a1,-808 # 19cd8 <_IO_stdin_used+0x578>
   11528:	4509                	li	a0,2
   1152a:	e56ff0ef          	jal	10b80 <__printf_chk@plt>
   1152e:	85d2                	mv	a1,s4
   11530:	67e5                	lui	a5,0x19
   11532:	7e878513          	addi	a0,a5,2024 # 197e8 <_IO_stdin_used+0x88>
   11536:	246000ef          	jal	1177c <print_hex_bytes.constprop.0>
   1153a:	67e9                	lui	a5,0x1a
   1153c:	85e6                	mv	a1,s9
   1153e:	80078513          	addi	a0,a5,-2048 # 19800 <_IO_stdin_used+0xa0>
   11542:	23a000ef          	jal	1177c <print_hex_bytes.constprop.0>
   11546:	b619                	j	1104c <main+0x3ac>
   11548:	6418                	ld	a4,8(s0)
   1154a:	649c                	ld	a5,8(s1)
   1154c:	d0f71ae3          	bne	a4,a5,11260 <main+0x5c0>
   11550:	6818                	ld	a4,16(s0)
   11552:	689c                	ld	a5,16(s1)
   11554:	d0f716e3          	bne	a4,a5,11260 <main+0x5c0>
   11558:	6c18                	ld	a4,24(s0)
   1155a:	6c9c                	ld	a5,24(s1)
   1155c:	d0f712e3          	bne	a4,a5,11260 <main+0x5c0>
   11560:	060d0d63          	beqz	s10,115da <main+0x93a>
   11564:	2a85                	addiw	s5,s5,1
   11566:	2b85                	addiw	s7,s7,1
   11568:	2d85                	addiw	s11,s11,1
   1156a:	0ffafa93          	zext.b	s5,s5
   1156e:	0ffbfb93          	zext.b	s7,s7
   11572:	3e800793          	li	a5,1000
   11576:	c4fd92e3          	bne	s11,a5,111ba <main+0x51a>
   1157a:	4405                	li	s0,1
   1157c:	4d05                	li	s10,1
   1157e:	bb81                	j	112ce <main+0x62e>
   11580:	6569                	lui	a0,0x1a
   11582:	ed050513          	addi	a0,a0,-304 # 19ed0 <_IO_stdin_used+0x770>
   11586:	eaaff0ef          	jal	10c30 <puts@plt>
   1158a:	4405                	li	s0,1
   1158c:	b529                	j	11396 <main+0x6f6>
   1158e:	008a3703          	ld	a4,8(s4)
   11592:	7792                	ld	a5,288(sp)
   11594:	e6f71ce3          	bne	a4,a5,1140c <main+0x76c>
   11598:	010a3703          	ld	a4,16(s4)
   1159c:	77b2                	ld	a5,296(sp)
   1159e:	e6f717e3          	bne	a4,a5,1140c <main+0x76c>
   115a2:	018a3703          	ld	a4,24(s4)
   115a6:	77d2                	ld	a5,304(sp)
   115a8:	e6f712e3          	bne	a4,a5,1140c <main+0x76c>
   115ac:	4785                	li	a5,1
   115ae:	b671                	j	1113a <main+0x49a>
   115b0:	008a3703          	ld	a4,8(s4)
   115b4:	008cb783          	ld	a5,8(s9)
   115b8:	f6f713e3          	bne	a4,a5,1151e <main+0x87e>
   115bc:	010a3703          	ld	a4,16(s4)
   115c0:	010cb783          	ld	a5,16(s9)
   115c4:	f4f71de3          	bne	a4,a5,1151e <main+0x87e>
   115c8:	018a3703          	ld	a4,24(s4)
   115cc:	018cb783          	ld	a5,24(s9)
   115d0:	f4f717e3          	bne	a4,a5,1151e <main+0x87e>
   115d4:	4785                	li	a5,1
   115d6:	f43e                	sd	a5,40(sp)
   115d8:	bc9d                	j	1104e <main+0x3ae>
   115da:	4405                	li	s0,1
   115dc:	b9cd                	j	112ce <main+0x62e>
   115de:	4705                	li	a4,1
   115e0:	e83a                	sd	a4,16(sp)
   115e2:	b669                	j	1116c <main+0x4cc>
   115e4:	6762                	ld	a4,24(sp)
   115e6:	e83a                	sd	a4,16(sp)
   115e8:	b651                	j	1116c <main+0x4cc>
   115ea:	7702                	ld	a4,32(sp)
   115ec:	ec3a                	sd	a4,24(sp)
   115ee:	e83a                	sd	a4,16(sp)
   115f0:	beb5                	j	1116c <main+0x4cc>
   115f2:	7722                	ld	a4,40(sp)
   115f4:	f03a                	sd	a4,32(sp)
   115f6:	ec3a                	sd	a4,24(sp)
   115f8:	e83a                	sd	a4,16(sp)
   115fa:	be8d                	j	1116c <main+0x4cc>
   115fc:	4505                	li	a0,1
   115fe:	f0aff06f          	j	10d08 <main+0x68>
   11602:	4505                	li	a0,1
   11604:	b9fd                	j	11302 <main+0x662>
   11606:	4505                	li	a0,1
   11608:	b335                	j	11334 <main+0x694>
   1160a:	db6ff0ef          	jal	10bc0 <__stack_chk_fail@plt>
	...

0000000000011610 <_start>:
   11610:	026000ef          	jal	11636 <load_gp>
   11614:	87aa                	mv	a5,a0
   11616:	00000517          	auipc	a0,0x0
   1161a:	01c50513          	addi	a0,a0,28 # 11632 <__wrap_main>
   1161e:	6582                	ld	a1,0(sp)
   11620:	0030                	addi	a2,sp,8
   11622:	ff017113          	andi	sp,sp,-16
   11626:	4681                	li	a3,0
   11628:	4701                	li	a4,0
   1162a:	880a                	mv	a6,sp
   1162c:	d14ff0ef          	jal	10b40 <__libc_start_main@plt>
   11630:	9002                	ebreak

0000000000011632 <__wrap_main>:
   11632:	e6eff06f          	j	10ca0 <main>

0000000000011636 <load_gp>:
   11636:	0000c197          	auipc	gp,0xc
   1163a:	27a18193          	addi	gp,gp,634 # 1d8b0 <__global_pointer$>
   1163e:	8082                	ret
	...

0000000000011642 <deregister_tm_clones>:
   11642:	6575                	lui	a0,0x1d
   11644:	0b050793          	addi	a5,a0,176 # 1d0b0 <__TMC_END__>
   11648:	6775                	lui	a4,0x1d
   1164a:	0b070713          	addi	a4,a4,176 # 1d0b0 <__TMC_END__>
   1164e:	00f70863          	beq	a4,a5,1165e <deregister_tm_clones+0x1c>
   11652:	00000793          	li	a5,0
   11656:	c781                	beqz	a5,1165e <deregister_tm_clones+0x1c>
   11658:	0b050513          	addi	a0,a0,176
   1165c:	8782                	jr	a5
   1165e:	8082                	ret

0000000000011660 <register_tm_clones>:
   11660:	6575                	lui	a0,0x1d
   11662:	0b050793          	addi	a5,a0,176 # 1d0b0 <__TMC_END__>
   11666:	6775                	lui	a4,0x1d
   11668:	0b070593          	addi	a1,a4,176 # 1d0b0 <__TMC_END__>
   1166c:	8d9d                	sub	a1,a1,a5
   1166e:	4035d793          	srai	a5,a1,0x3
   11672:	91fd                	srli	a1,a1,0x3f
   11674:	95be                	add	a1,a1,a5
   11676:	8585                	srai	a1,a1,0x1
   11678:	c599                	beqz	a1,11686 <register_tm_clones+0x26>
   1167a:	00000793          	li	a5,0
   1167e:	c781                	beqz	a5,11686 <register_tm_clones+0x26>
   11680:	0b050513          	addi	a0,a0,176
   11684:	8782                	jr	a5
   11686:	8082                	ret

0000000000011688 <__do_global_dtors_aux>:
   11688:	1141                	addi	sp,sp,-16
   1168a:	e022                	sd	s0,0(sp)
   1168c:	8201c783          	lbu	a5,-2016(gp) # 1d0d0 <completed.0>
   11690:	e406                	sd	ra,8(sp)
   11692:	e791                	bnez	a5,1169e <__do_global_dtors_aux+0x16>
   11694:	fafff0ef          	jal	11642 <deregister_tm_clones>
   11698:	4785                	li	a5,1
   1169a:	82f18023          	sb	a5,-2016(gp) # 1d0d0 <completed.0>
   1169e:	60a2                	ld	ra,8(sp)
   116a0:	6402                	ld	s0,0(sp)
   116a2:	0141                	addi	sp,sp,16
   116a4:	8082                	ret

00000000000116a6 <frame_dummy>:
   116a6:	bf6d                	j	11660 <register_tm_clones>

00000000000116a8 <scalar_set_u64>:
   116a8:	00053c23          	sd	zero,24(a0)
   116ac:	00053023          	sd	zero,0(a0)
   116b0:	00053423          	sd	zero,8(a0)
   116b4:	00053823          	sd	zero,16(a0)
   116b8:	00b50fa3          	sb	a1,31(a0)
   116bc:	8082                	ret

00000000000116be <mark_result>:
   116be:	8101a783          	lw	a5,-2032(gp) # 1d0c0 <g_total>
   116c2:	862a                	mv	a2,a0
   116c4:	2785                	addiw	a5,a5,1
   116c6:	80f1a823          	sw	a5,-2032(gp) # 1d0c0 <g_total>
   116ca:	cd81                	beqz	a1,116e2 <mark_result+0x24>
   116cc:	80c1a783          	lw	a5,-2036(gp) # 1d0bc <g_pass>
   116d0:	65e5                	lui	a1,0x19
   116d2:	76858593          	addi	a1,a1,1896 # 19768 <_IO_stdin_used+0x8>
   116d6:	4509                	li	a0,2
   116d8:	2785                	addiw	a5,a5,1
   116da:	80f1a623          	sw	a5,-2036(gp) # 1d0bc <g_pass>
   116de:	ca2ff06f          	j	10b80 <__printf_chk@plt>
   116e2:	6775                	lui	a4,0x1d
   116e4:	0b872783          	lw	a5,184(a4) # 1d0b8 <g_fail>
   116e8:	65e5                	lui	a1,0x19
   116ea:	77858593          	addi	a1,a1,1912 # 19778 <_IO_stdin_used+0x18>
   116ee:	4509                	li	a0,2
   116f0:	2785                	addiw	a5,a5,1
   116f2:	0af72c23          	sw	a5,184(a4)
   116f6:	c8aff06f          	j	10b80 <__printf_chk@plt>

00000000000116fa <scalar_sub_small.constprop.0>:
   116fa:	1101                	addi	sp,sp,-32
   116fc:	02000613          	li	a2,32
   11700:	e822                	sd	s0,16(sp)
   11702:	842e                	mv	s0,a1
   11704:	65e5                	lui	a1,0x19
   11706:	78858593          	addi	a1,a1,1928 # 19788 <_IO_stdin_used+0x28>
   1170a:	e426                	sd	s1,8(sp)
   1170c:	84aa                	mv	s1,a0
   1170e:	ec06                	sd	ra,24(sp)
   11710:	cc0ff0ef          	jal	10bd0 <memcpy@plt>
   11714:	01f48793          	addi	a5,s1,31
   11718:	a011                	j	1171c <scalar_sub_small.constprop.0+0x22>
   1171a:	4405                	li	s0,1
   1171c:	0007c703          	lbu	a4,0(a5)
   11720:	408706bb          	subw	a3,a4,s0
   11724:	2701                	sext.w	a4,a4
   11726:	00d78023          	sb	a3,0(a5)
   1172a:	00f48563          	beq	s1,a5,11734 <scalar_sub_small.constprop.0+0x3a>
   1172e:	17fd                	addi	a5,a5,-1
   11730:	fe8765e3          	bltu	a4,s0,1171a <scalar_sub_small.constprop.0+0x20>
   11734:	60e2                	ld	ra,24(sp)
   11736:	6442                	ld	s0,16(sp)
   11738:	64a2                	ld	s1,8(sp)
   1173a:	6105                	addi	sp,sp,32
   1173c:	8082                	ret

000000000001173e <scalar_add_small.constprop.0>:
   1173e:	1101                	addi	sp,sp,-32
   11740:	02000613          	li	a2,32
   11744:	e822                	sd	s0,16(sp)
   11746:	842e                	mv	s0,a1
   11748:	65e5                	lui	a1,0x19
   1174a:	78858593          	addi	a1,a1,1928 # 19788 <_IO_stdin_used+0x28>
   1174e:	e426                	sd	s1,8(sp)
   11750:	84aa                	mv	s1,a0
   11752:	ec06                	sd	ra,24(sp)
   11754:	c7cff0ef          	jal	10bd0 <memcpy@plt>
   11758:	01f48793          	addi	a5,s1,31
   1175c:	0007c703          	lbu	a4,0(a5)
   11760:	9c39                	addw	s0,s0,a4
   11762:	00878023          	sb	s0,0(a5)
   11766:	0084541b          	srliw	s0,s0,0x8
   1176a:	00f48463          	beq	s1,a5,11772 <scalar_add_small.constprop.0+0x34>
   1176e:	17fd                	addi	a5,a5,-1
   11770:	f475                	bnez	s0,1175c <scalar_add_small.constprop.0+0x1e>
   11772:	60e2                	ld	ra,24(sp)
   11774:	6442                	ld	s0,16(sp)
   11776:	64a2                	ld	s1,8(sp)
   11778:	6105                	addi	sp,sp,32
   1177a:	8082                	ret

000000000001177c <print_hex_bytes.constprop.0>:
   1177c:	1101                	addi	sp,sp,-32
   1177e:	862a                	mv	a2,a0
   11780:	e822                	sd	s0,16(sp)
   11782:	842e                	mv	s0,a1
   11784:	e426                	sd	s1,8(sp)
   11786:	65e5                	lui	a1,0x19
   11788:	02040493          	addi	s1,s0,32
   1178c:	7b058593          	addi	a1,a1,1968 # 197b0 <_IO_stdin_used+0x50>
   11790:	e04a                	sd	s2,0(sp)
   11792:	4509                	li	a0,2
   11794:	ec06                	sd	ra,24(sp)
   11796:	6965                	lui	s2,0x19
   11798:	be8ff0ef          	jal	10b80 <__printf_chk@plt>
   1179c:	00044603          	lbu	a2,0(s0)
   117a0:	7b890593          	addi	a1,s2,1976 # 197b8 <_IO_stdin_used+0x58>
   117a4:	0405                	addi	s0,s0,1
   117a6:	4509                	li	a0,2
   117a8:	bd8ff0ef          	jal	10b80 <__printf_chk@plt>
   117ac:	fe9418e3          	bne	s0,s1,1179c <print_hex_bytes.constprop.0+0x20>
   117b0:	6442                	ld	s0,16(sp)
   117b2:	4529                	li	a0,10
   117b4:	60e2                	ld	ra,24(sp)
   117b6:	64a2                	ld	s1,8(sp)
   117b8:	6902                	ld	s2,0(sp)
   117ba:	6105                	addi	sp,sp,32
   117bc:	bf4ff06f          	j	10bb0 <putchar@plt>

00000000000117c0 <build_stress_scalars.constprop.0>:
   117c0:	7179                	addi	sp,sp,-48
   117c2:	4581                	li	a1,0
   117c4:	f406                	sd	ra,40(sp)
   117c6:	ec26                	sd	s1,24(sp)
   117c8:	84aa                	mv	s1,a0
   117ca:	f022                	sd	s0,32(sp)
   117cc:	e84a                	sd	s2,16(sp)
   117ce:	e44e                	sd	s3,8(sp)
   117d0:	e052                	sd	s4,0(sp)
   117d2:	ed7ff0ef          	jal	116a8 <scalar_set_u64>
   117d6:	02048513          	addi	a0,s1,32
   117da:	4585                	li	a1,1
   117dc:	ecdff0ef          	jal	116a8 <scalar_set_u64>
   117e0:	04048513          	addi	a0,s1,64
   117e4:	4589                	li	a1,2
   117e6:	ec3ff0ef          	jal	116a8 <scalar_set_u64>
   117ea:	06048513          	addi	a0,s1,96
   117ee:	458d                	li	a1,3
   117f0:	eb9ff0ef          	jal	116a8 <scalar_set_u64>
   117f4:	08048513          	addi	a0,s1,128
   117f8:	4591                	li	a1,4
   117fa:	eafff0ef          	jal	116a8 <scalar_set_u64>
   117fe:	0a048513          	addi	a0,s1,160
   11802:	4595                	li	a1,5
   11804:	ea5ff0ef          	jal	116a8 <scalar_set_u64>
   11808:	0c048513          	addi	a0,s1,192
   1180c:	45c1                	li	a1,16
   1180e:	e9bff0ef          	jal	116a8 <scalar_set_u64>
   11812:	0e048513          	addi	a0,s1,224
   11816:	45c5                	li	a1,17
   11818:	e91ff0ef          	jal	116a8 <scalar_set_u64>
   1181c:	10048513          	addi	a0,s1,256
   11820:	45fd                	li	a1,31
   11822:	e87ff0ef          	jal	116a8 <scalar_set_u64>
   11826:	12048513          	addi	a0,s1,288
   1182a:	02000593          	li	a1,32
   1182e:	e7bff0ef          	jal	116a8 <scalar_set_u64>
   11832:	14048513          	addi	a0,s1,320
   11836:	02100593          	li	a1,33
   1183a:	e6fff0ef          	jal	116a8 <scalar_set_u64>
   1183e:	16048513          	addi	a0,s1,352
   11842:	4589                	li	a1,2
   11844:	eb7ff0ef          	jal	116fa <scalar_sub_small.constprop.0>
   11848:	18048513          	addi	a0,s1,384
   1184c:	4585                	li	a1,1
   1184e:	eadff0ef          	jal	116fa <scalar_sub_small.constprop.0>
   11852:	1a048513          	addi	a0,s1,416
   11856:	65e5                	lui	a1,0x19
   11858:	78858593          	addi	a1,a1,1928 # 19788 <_IO_stdin_used+0x28>
   1185c:	02000613          	li	a2,32
   11860:	b70ff0ef          	jal	10bd0 <memcpy@plt>
   11864:	1c048513          	addi	a0,s1,448
   11868:	4585                	li	a1,1
   1186a:	ed5ff0ef          	jal	1173e <scalar_add_small.constprop.0>
   1186e:	1e048513          	addi	a0,s1,480
   11872:	4589                	li	a1,2
   11874:	ecbff0ef          	jal	1173e <scalar_add_small.constprop.0>
   11878:	4681                	li	a3,0
   1187a:	4641                	li	a2,16
   1187c:	48fd                	li	a7,31
   1187e:	4805                	li	a6,1
   11880:	10400513          	li	a0,260
   11884:	00561793          	slli	a5,a2,0x5
   11888:	4036d71b          	sraiw	a4,a3,0x3
   1188c:	97a6                	add	a5,a5,s1
   1188e:	0076f593          	andi	a1,a3,7
   11892:	40e8873b          	subw	a4,a7,a4
   11896:	0007b023          	sd	zero,0(a5)
   1189a:	0007b423          	sd	zero,8(a5)
   1189e:	973e                	add	a4,a4,a5
   118a0:	0007b823          	sd	zero,16(a5)
   118a4:	00b815bb          	sllw	a1,a6,a1
   118a8:	0007bc23          	sd	zero,24(a5)
   118ac:	2695                	addiw	a3,a3,5
   118ae:	00b70023          	sb	a1,0(a4)
   118b2:	87b2                	mv	a5,a2
   118b4:	0605                	addi	a2,a2,1
   118b6:	fca697e3          	bne	a3,a0,11884 <build_stress_scalars.constprop.0+0xc4>
   118ba:	0616                	slli	a2,a2,0x5
   118bc:	00278593          	addi	a1,a5,2
   118c0:	9626                	add	a2,a2,s1
   118c2:	0596                	slli	a1,a1,0x5
   118c4:	00063c23          	sd	zero,24(a2)
   118c8:	95a6                	add	a1,a1,s1
   118ca:	00063823          	sd	zero,16(a2)
   118ce:	4289                	li	t0,2
   118d0:	00063023          	sd	zero,0(a2)
   118d4:	00378713          	addi	a4,a5,3
   118d8:	00063423          	sd	zero,8(a2)
   118dc:	0716                	slli	a4,a4,0x5
   118de:	00560fa3          	sb	t0,31(a2)
   118e2:	4f91                	li	t6,4
   118e4:	0005bc23          	sd	zero,24(a1)
   118e8:	00e48633          	add	a2,s1,a4
   118ec:	0005b023          	sd	zero,0(a1)
   118f0:	00478693          	addi	a3,a5,4
   118f4:	0005b423          	sd	zero,8(a1)
   118f8:	0696                	slli	a3,a3,0x5
   118fa:	0005b823          	sd	zero,16(a1)
   118fe:	96a6                	add	a3,a3,s1
   11900:	01f58ea3          	sb	t6,29(a1)
   11904:	4ea1                	li	t4,8
   11906:	00063c23          	sd	zero,24(a2)
   1190a:	00578713          	addi	a4,a5,5
   1190e:	00063823          	sd	zero,16(a2)
   11912:	0716                	slli	a4,a4,0x5
   11914:	00063023          	sd	zero,0(a2)
   11918:	9726                	add	a4,a4,s1
   1191a:	00063423          	sd	zero,8(a2)
   1191e:	4e41                	li	t3,16
   11920:	01d60da3          	sb	t4,27(a2)
   11924:	00678613          	addi	a2,a5,6
   11928:	0006bc23          	sd	zero,24(a3)
   1192c:	0616                	slli	a2,a2,0x5
   1192e:	0006b023          	sd	zero,0(a3)
   11932:	9626                	add	a2,a2,s1
   11934:	0006b423          	sd	zero,8(a3)
   11938:	02000313          	li	t1,32
   1193c:	0006b823          	sd	zero,16(a3)
   11940:	00778593          	addi	a1,a5,7
   11944:	01c68ca3          	sb	t3,25(a3)
   11948:	0596                	slli	a1,a1,0x5
   1194a:	00073823          	sd	zero,16(a4)
   1194e:	95a6                	add	a1,a1,s1
   11950:	00073023          	sd	zero,0(a4)
   11954:	04000893          	li	a7,64
   11958:	00073423          	sd	zero,8(a4)
   1195c:	00878693          	addi	a3,a5,8
   11960:	00073c23          	sd	zero,24(a4)
   11964:	0696                	slli	a3,a3,0x5
   11966:	00670ba3          	sb	t1,23(a4)
   1196a:	96a6                	add	a3,a3,s1
   1196c:	00063823          	sd	zero,16(a2)
   11970:	f8000f13          	li	t5,-128
   11974:	00063023          	sd	zero,0(a2)
   11978:	00978713          	addi	a4,a5,9
   1197c:	00063423          	sd	zero,8(a2)
   11980:	0716                	slli	a4,a4,0x5
   11982:	00063c23          	sd	zero,24(a2)
   11986:	9726                	add	a4,a4,s1
   11988:	01160aa3          	sb	a7,21(a2)
   1198c:	00a78613          	addi	a2,a5,10
   11990:	0005b023          	sd	zero,0(a1)
   11994:	0616                	slli	a2,a2,0x5
   11996:	0005b423          	sd	zero,8(a1)
   1199a:	9626                	add	a2,a2,s1
   1199c:	0005b823          	sd	zero,16(a1)
   119a0:	00b78813          	addi	a6,a5,11
   119a4:	0005bc23          	sd	zero,24(a1)
   119a8:	0816                	slli	a6,a6,0x5
   119aa:	01e589a3          	sb	t5,19(a1)
   119ae:	4585                	li	a1,1
   119b0:	0006b823          	sd	zero,16(a3)
   119b4:	9826                	add	a6,a6,s1
   119b6:	00b68823          	sb	a1,16(a3)
   119ba:	00c78513          	addi	a0,a5,12
   119be:	0006b023          	sd	zero,0(a3)
   119c2:	0516                	slli	a0,a0,0x5
   119c4:	0006b423          	sd	zero,8(a3)
   119c8:	9526                	add	a0,a0,s1
   119ca:	0006bc23          	sd	zero,24(a3)
   119ce:	00d78593          	addi	a1,a5,13
   119d2:	00073423          	sd	zero,8(a4)
   119d6:	0596                	slli	a1,a1,0x5
   119d8:	00073023          	sd	zero,0(a4)
   119dc:	95a6                	add	a1,a1,s1
   119de:	00073823          	sd	zero,16(a4)
   119e2:	00e78693          	addi	a3,a5,14
   119e6:	00073c23          	sd	zero,24(a4)
   119ea:	0696                	slli	a3,a3,0x5
   119ec:	00570723          	sb	t0,14(a4)
   119f0:	00f78713          	addi	a4,a5,15
   119f4:	00063423          	sd	zero,8(a2)
   119f8:	96a6                	add	a3,a3,s1
   119fa:	00063023          	sd	zero,0(a2)
   119fe:	0716                	slli	a4,a4,0x5
   11a00:	00063823          	sd	zero,16(a2)
   11a04:	9726                	add	a4,a4,s1
   11a06:	00063c23          	sd	zero,24(a2)
   11a0a:	69e9                	lui	s3,0x1a
   11a0c:	01f60623          	sb	t6,12(a2)
   11a10:	01078913          	addi	s2,a5,16
   11a14:	00083423          	sd	zero,8(a6)
   11a18:	ee098993          	addi	s3,s3,-288 # 19ee0 <_IO_stdin_used+0x780>
   11a1c:	00083023          	sd	zero,0(a6)
   11a20:	4601                	li	a2,0
   11a22:	00083823          	sd	zero,16(a6)
   11a26:	08000413          	li	s0,128
   11a2a:	00083c23          	sd	zero,24(a6)
   11a2e:	4a11                	li	s4,4
   11a30:	01d80523          	sb	t4,10(a6)
   11a34:	00053423          	sd	zero,8(a0)
   11a38:	00053023          	sd	zero,0(a0)
   11a3c:	00053823          	sd	zero,16(a0)
   11a40:	00053c23          	sd	zero,24(a0)
   11a44:	01c50423          	sb	t3,8(a0)
   11a48:	0005b023          	sd	zero,0(a1)
   11a4c:	0005b423          	sd	zero,8(a1)
   11a50:	0005b823          	sd	zero,16(a1)
   11a54:	0005bc23          	sd	zero,24(a1)
   11a58:	00658323          	sb	t1,6(a1)
   11a5c:	0006b023          	sd	zero,0(a3)
   11a60:	0006b423          	sd	zero,8(a3)
   11a64:	0006b823          	sd	zero,16(a3)
   11a68:	0006bc23          	sd	zero,24(a3)
   11a6c:	01168223          	sb	a7,4(a3)
   11a70:	00073023          	sd	zero,0(a4)
   11a74:	00073423          	sd	zero,8(a4)
   11a78:	00073823          	sd	zero,16(a4)
   11a7c:	00073c23          	sd	zero,24(a4)
   11a80:	01e70123          	sb	t5,2(a4)
   11a84:	00891d63          	bne	s2,s0,11a9e <build_stress_scalars.constprop.0+0x2de>
   11a88:	08000913          	li	s2,128
   11a8c:	70a2                	ld	ra,40(sp)
   11a8e:	854a                	mv	a0,s2
   11a90:	7402                	ld	s0,32(sp)
   11a92:	64e2                	ld	s1,24(sp)
   11a94:	6942                	ld	s2,16(sp)
   11a96:	69a2                	ld	s3,8(sp)
   11a98:	6a02                	ld	s4,0(sp)
   11a9a:	6145                	addi	sp,sp,48
   11a9c:	8082                	ret
   11a9e:	00591513          	slli	a0,s2,0x5
   11aa2:	9526                	add	a0,a0,s1
   11aa4:	00053023          	sd	zero,0(a0)
   11aa8:	00053423          	sd	zero,8(a0)
   11aac:	00053823          	sd	zero,16(a0)
   11ab0:	00053c23          	sd	zero,24(a0)
   11ab4:	0cca6863          	bltu	s4,a2,11b84 <build_stress_scalars.constprop.0+0x3c4>
   11ab8:	213647b3          	sh2add	a5,a2,s3
   11abc:	439c                	lw	a5,0(a5)
   11abe:	8782                	jr	a5
   11ac0:	02000613          	li	a2,32
   11ac4:	05500593          	li	a1,85
   11ac8:	0905                	addi	s2,s2,1
   11aca:	9b6ff0ef          	jal	10c80 <memset@plt>
   11ace:	08000793          	li	a5,128
   11ad2:	faf90be3          	beq	s2,a5,11a88 <build_stress_scalars.constprop.0+0x2c8>
   11ad6:	00591513          	slli	a0,s2,0x5
   11ada:	9526                	add	a0,a0,s1
   11adc:	00053023          	sd	zero,0(a0)
   11ae0:	00053423          	sd	zero,8(a0)
   11ae4:	00053823          	sd	zero,16(a0)
   11ae8:	00053c23          	sd	zero,24(a0)
   11aec:	02000613          	li	a2,32
   11af0:	0aa00593          	li	a1,170
   11af4:	0905                	addi	s2,s2,1
   11af6:	98aff0ef          	jal	10c80 <memset@plt>
   11afa:	08000793          	li	a5,128
   11afe:	f8f905e3          	beq	s2,a5,11a88 <build_stress_scalars.constprop.0+0x2c8>
   11b02:	00591513          	slli	a0,s2,0x5
   11b06:	9526                	add	a0,a0,s1
   11b08:	00053023          	sd	zero,0(a0)
   11b0c:	00053423          	sd	zero,8(a0)
   11b10:	00053823          	sd	zero,16(a0)
   11b14:	00053c23          	sd	zero,24(a0)
   11b18:	02000613          	li	a2,32
   11b1c:	0ff00593          	li	a1,255
   11b20:	0905                	addi	s2,s2,1
   11b22:	95eff0ef          	jal	10c80 <memset@plt>
   11b26:	08000793          	li	a5,128
   11b2a:	f4f90fe3          	beq	s2,a5,11a88 <build_stress_scalars.constprop.0+0x2c8>
   11b2e:	00591513          	slli	a0,s2,0x5
   11b32:	9526                	add	a0,a0,s1
   11b34:	00053023          	sd	zero,0(a0)
   11b38:	00053423          	sd	zero,8(a0)
   11b3c:	00053823          	sd	zero,16(a0)
   11b40:	00053c23          	sd	zero,24(a0)
   11b44:	47c5                	li	a5,17
   11b46:	03100693          	li	a3,49
   11b4a:	0117871b          	addiw	a4,a5,17
   11b4e:	00f50023          	sb	a5,0(a0)
   11b52:	0ff77793          	zext.b	a5,a4
   11b56:	0505                	addi	a0,a0,1
   11b58:	fed799e3          	bne	a5,a3,11b4a <build_stress_scalars.constprop.0+0x38a>
   11b5c:	460d                	li	a2,3
   11b5e:	0905                	addi	s2,s2,1
   11b60:	2605                	addiw	a2,a2,1
   11b62:	f28903e3          	beq	s2,s0,11a88 <build_stress_scalars.constprop.0+0x2c8>
   11b66:	bf25                	j	11a9e <build_stress_scalars.constprop.0+0x2de>
   11b68:	4781                	li	a5,0
   11b6a:	02000693          	li	a3,32
   11b6e:	ff07c713          	xori	a4,a5,-16
   11b72:	27c5                	addiw	a5,a5,17
   11b74:	00e50023          	sb	a4,0(a0)
   11b78:	0ff7f793          	zext.b	a5,a5
   11b7c:	0505                	addi	a0,a0,1
   11b7e:	fed798e3          	bne	a5,a3,11b6e <build_stress_scalars.constprop.0+0x3ae>
   11b82:	bff1                	j	11b5e <build_stress_scalars.constprop.0+0x39e>
   11b84:	0ff67713          	zext.b	a4,a2
   11b88:	0317079b          	addiw	a5,a4,49
   11b8c:	fd17071b          	addiw	a4,a4,-47
   11b90:	0ff7f793          	zext.b	a5,a5
   11b94:	0ff77693          	zext.b	a3,a4
   11b98:	00d7871b          	addiw	a4,a5,13
   11b9c:	00f50023          	sb	a5,0(a0)
   11ba0:	0ff77793          	zext.b	a5,a4
   11ba4:	0505                	addi	a0,a0,1
   11ba6:	fed799e3          	bne	a5,a3,11b98 <build_stress_scalars.constprop.0+0x3d8>
   11baa:	2605                	addiw	a2,a2,1
   11bac:	0905                	addi	s2,s2,1
   11bae:	47b1                	li	a5,12
   11bb0:	ecf60ee3          	beq	a2,a5,11a8c <build_stress_scalars.constprop.0+0x2cc>
   11bb4:	bdc1                	j	11a84 <build_stress_scalars.constprop.0+0x2c4>

0000000000011bb6 <test_fp_add_once>:
   11bb6:	7165                	addi	sp,sp,-400
   11bb8:	e322                	sd	s0,384(sp)
   11bba:	6475                	lui	s0,0x1d
   11bbc:	df043783          	ld	a5,-528(s0) # 1cdf0 <__stack_chk_guard@GLIBC_2.27>
   11bc0:	e6be                	sd	a5,328(sp)
   11bc2:	4781                	li	a5,0
   11bc4:	fea6                	sd	s1,376(sp)
   11bc6:	f6ce                	sd	s3,360(sp)
   11bc8:	0038                	addi	a4,sp,8
   11bca:	f2d2                	sd	s4,352(sp)
   11bcc:	89aa                	mv	s3,a0
   11bce:	e706                	sd	ra,392(sp)
   11bd0:	8a2e                	mv	s4,a1
   11bd2:	faca                	sd	s2,368(sp)
   11bd4:	1024                	addi	s1,sp,40
   11bd6:	eed6                	sd	s5,344(sp)
   11bd8:	87aa                	mv	a5,a0
   11bda:	e402                	sd	zero,8(sp)
   11bdc:	e802                	sd	zero,16(sp)
   11bde:	ec02                	sd	zero,24(sp)
   11be0:	f002                	sd	zero,32(sp)
   11be2:	00f70023          	sb	a5,0(a4)
   11be6:	27b5                	addiw	a5,a5,13
   11be8:	0705                	addi	a4,a4,1
   11bea:	0ff7f793          	zext.b	a5,a5
   11bee:	fee49ae3          	bne	s1,a4,11be2 <test_fp_add_once+0x2c>
   11bf2:	67a2                	ld	a5,8(sp)
   11bf4:	f402                	sd	zero,40(sp)
   11bf6:	0004b423          	sd	zero,8(s1)
   11bfa:	8726                	mv	a4,s1
   11bfc:	0004b823          	sd	zero,16(s1)
   11c00:	04810913          	addi	s2,sp,72
   11c04:	0017e793          	ori	a5,a5,1
   11c08:	0004bc23          	sd	zero,24(s1)
   11c0c:	e43e                	sd	a5,8(sp)
   11c0e:	87d2                	mv	a5,s4
   11c10:	00f70023          	sb	a5,0(a4)
   11c14:	27b5                	addiw	a5,a5,13
   11c16:	0705                	addi	a4,a4,1
   11c18:	0ff7f793          	zext.b	a5,a5
   11c1c:	fee91ae3          	bne	s2,a4,11c10 <test_fp_add_once+0x5a>
   11c20:	77a2                	ld	a5,40(sp)
   11c22:	854a                	mv	a0,s2
   11c24:	002c                	addi	a1,sp,8
   11c26:	0017e793          	ori	a5,a5,1
   11c2a:	f43e                	sd	a5,40(sp)
   11c2c:	14c070ef          	jal	18d78 <fp_to_mont>
   11c30:	85a6                	mv	a1,s1
   11c32:	10a8                	addi	a0,sp,104
   11c34:	144070ef          	jal	18d78 <fp_to_mont>
   11c38:	1124                	addi	s1,sp,168
   11c3a:	85ca                	mv	a1,s2
   11c3c:	10b0                	addi	a2,sp,104
   11c3e:	0128                	addi	a0,sp,136
   11c40:	12810913          	addi	s2,sp,296
   11c44:	35c060ef          	jal	17fa0 <fp_mont_add>
   11c48:	67a6                	ld	a5,72(sp)
   11c4a:	01b0                	addi	a2,sp,200
   11c4c:	85a6                	mv	a1,s1
   11c4e:	11a8                	addi	a0,sp,232
   11c50:	f53e                	sd	a5,168(sp)
   11c52:	67c6                	ld	a5,80(sp)
   11c54:	f93e                	sd	a5,176(sp)
   11c56:	67e6                	ld	a5,88(sp)
   11c58:	fd3e                	sd	a5,184(sp)
   11c5a:	7786                	ld	a5,96(sp)
   11c5c:	e1be                	sd	a5,192(sp)
   11c5e:	77a6                	ld	a5,104(sp)
   11c60:	e5be                	sd	a5,200(sp)
   11c62:	77c6                	ld	a5,112(sp)
   11c64:	e9be                	sd	a5,208(sp)
   11c66:	77e6                	ld	a5,120(sp)
   11c68:	edbe                	sd	a5,216(sp)
   11c6a:	678a                	ld	a5,128(sp)
   11c6c:	f1be                	sd	a5,224(sp)
   11c6e:	f73fe0ef          	jal	10be0 <sm2_z256_modp_add@plt>
   11c72:	6769                	lui	a4,0x1a
   11c74:	f9870713          	addi	a4,a4,-104 # 19f98 <FP_P>
   11c78:	662a                	ld	a2,136(sp)
   11c7a:	00073e03          	ld	t3,0(a4)
   11c7e:	00873883          	ld	a7,8(a4)
   11c82:	654a                	ld	a0,144(sp)
   11c84:	01c637b3          	sltu	a5,a2,t3
   11c88:	6b14                	ld	a3,16(a4)
   11c8a:	98be                	add	a7,a7,a5
   11c8c:	65ea                	ld	a1,152(sp)
   11c8e:	01153833          	sltu	a6,a0,a7
   11c92:	00f8b7b3          	sltu	a5,a7,a5
   11c96:	0107e7b3          	or	a5,a5,a6
   11c9a:	6f18                	ld	a4,24(a4)
   11c9c:	0ff7f793          	zext.b	a5,a5
   11ca0:	730a                	ld	t1,160(sp)
   11ca2:	96be                	add	a3,a3,a5
   11ca4:	41c60e33          	sub	t3,a2,t3
   11ca8:	00d5beb3          	sltu	t4,a1,a3
   11cac:	00f6b7b3          	sltu	a5,a3,a5
   11cb0:	01d7e7b3          	or	a5,a5,t4
   11cb4:	40d586b3          	sub	a3,a1,a3
   11cb8:	0ff7f793          	zext.b	a5,a5
   11cbc:	411508b3          	sub	a7,a0,a7
   11cc0:	973e                	add	a4,a4,a5
   11cc2:	782e                	ld	a6,232(sp)
   11cc4:	00e33eb3          	sltu	t4,t1,a4
   11cc8:	00f737b3          	sltu	a5,a4,a5
   11ccc:	01d7e7b3          	or	a5,a5,t4
   11cd0:	40e30733          	sub	a4,t1,a4
   11cd4:	0ff7f793          	zext.b	a5,a5
   11cd8:	e642                	sd	a6,264(sp)
   11cda:	40f00eb3          	neg	t4,a5
   11cde:	17fd                	addi	a5,a5,-1
   11ce0:	01d5f5b3          	and	a1,a1,t4
   11ce4:	8efd                	and	a3,a3,a5
   11ce6:	8ecd                	or	a3,a3,a1
   11ce8:	75ce                	ld	a1,240(sp)
   11cea:	01d67633          	and	a2,a2,t4
   11cee:	00f8f8b3          	and	a7,a7,a5
   11cf2:	8f7d                	and	a4,a4,a5
   11cf4:	00fe7e33          	and	t3,t3,a5
   11cf8:	ea2e                	sd	a1,272(sp)
   11cfa:	75ee                	ld	a1,248(sp)
   11cfc:	01d57533          	and	a0,a0,t4
   11d00:	01d37333          	and	t1,t1,t4
   11d04:	01c667b3          	or	a5,a2,t3
   11d08:	00676733          	or	a4,a4,t1
   11d0c:	ee2e                	sd	a1,280(sp)
   11d0e:	6592                	ld	a1,256(sp)
   11d10:	01156633          	or	a2,a0,a7
   11d14:	f63e                	sd	a5,296(sp)
   11d16:	fa32                	sd	a2,304(sp)
   11d18:	f22e                	sd	a1,288(sp)
   11d1a:	fe36                	sd	a3,312(sp)
   11d1c:	e2ba                	sd	a4,320(sp)
   11d1e:	0d078163          	beq	a5,a6,11de0 <test_fp_add_once+0x22a>
   11d22:	86d2                	mv	a3,s4
   11d24:	864e                	mv	a2,s3
   11d26:	65e5                	lui	a1,0x19
   11d28:	7c058593          	addi	a1,a1,1984 # 197c0 <_IO_stdin_used+0x60>
   11d2c:	4509                	li	a0,2
   11d2e:	e53fe0ef          	jal	10b80 <__printf_chk@plt>
   11d32:	6ae5                	lui	s5,0x19
   11d34:	6665                	lui	a2,0x19
   11d36:	7b0a8593          	addi	a1,s5,1968 # 197b0 <_IO_stdin_used+0x50>
   11d3a:	7e860613          	addi	a2,a2,2024 # 197e8 <_IO_stdin_used+0x88>
   11d3e:	08810993          	addi	s3,sp,136
   11d42:	4509                	li	a0,2
   11d44:	6a65                	lui	s4,0x19
   11d46:	e3bfe0ef          	jal	10b80 <__printf_chk@plt>
   11d4a:	0009c603          	lbu	a2,0(s3)
   11d4e:	7b8a0593          	addi	a1,s4,1976 # 197b8 <_IO_stdin_used+0x58>
   11d52:	0985                	addi	s3,s3,1
   11d54:	4509                	li	a0,2
   11d56:	e2bfe0ef          	jal	10b80 <__printf_chk@plt>
   11d5a:	fe9998e3          	bne	s3,s1,11d4a <test_fp_add_once+0x194>
   11d5e:	4529                	li	a0,10
   11d60:	e51fe0ef          	jal	10bb0 <putchar@plt>
   11d64:	7b0a8593          	addi	a1,s5,1968
   11d68:	6665                	lui	a2,0x19
   11d6a:	84ca                	mv	s1,s2
   11d6c:	7f060613          	addi	a2,a2,2032 # 197f0 <_IO_stdin_used+0x90>
   11d70:	14810993          	addi	s3,sp,328
   11d74:	4509                	li	a0,2
   11d76:	e0bfe0ef          	jal	10b80 <__printf_chk@plt>
   11d7a:	0004c603          	lbu	a2,0(s1)
   11d7e:	7b8a0593          	addi	a1,s4,1976
   11d82:	0485                	addi	s1,s1,1
   11d84:	4509                	li	a0,2
   11d86:	dfbfe0ef          	jal	10b80 <__printf_chk@plt>
   11d8a:	fe9998e3          	bne	s3,s1,11d7a <test_fp_add_once+0x1c4>
   11d8e:	4529                	li	a0,10
   11d90:	e21fe0ef          	jal	10bb0 <putchar@plt>
   11d94:	7b0a8593          	addi	a1,s5,1968
   11d98:	6669                	lui	a2,0x1a
   11d9a:	0224                	addi	s1,sp,264
   11d9c:	80060613          	addi	a2,a2,-2048 # 19800 <_IO_stdin_used+0xa0>
   11da0:	4509                	li	a0,2
   11da2:	ddffe0ef          	jal	10b80 <__printf_chk@plt>
   11da6:	0004c603          	lbu	a2,0(s1)
   11daa:	7b8a0593          	addi	a1,s4,1976
   11dae:	0485                	addi	s1,s1,1
   11db0:	4509                	li	a0,2
   11db2:	dcffe0ef          	jal	10b80 <__printf_chk@plt>
   11db6:	fe9918e3          	bne	s2,s1,11da6 <test_fp_add_once+0x1f0>
   11dba:	4529                	li	a0,10
   11dbc:	df5fe0ef          	jal	10bb0 <putchar@plt>
   11dc0:	4501                	li	a0,0
   11dc2:	6736                	ld	a4,328(sp)
   11dc4:	df043783          	ld	a5,-528(s0)
   11dc8:	8fb9                	xor	a5,a5,a4
   11dca:	4701                	li	a4,0
   11dcc:	e795                	bnez	a5,11df8 <test_fp_add_once+0x242>
   11dce:	60ba                	ld	ra,392(sp)
   11dd0:	641a                	ld	s0,384(sp)
   11dd2:	74f6                	ld	s1,376(sp)
   11dd4:	7956                	ld	s2,368(sp)
   11dd6:	79b6                	ld	s3,360(sp)
   11dd8:	7a16                	ld	s4,352(sp)
   11dda:	6af6                	ld	s5,344(sp)
   11ddc:	6159                	addi	sp,sp,400
   11dde:	8082                	ret
   11de0:	67d2                	ld	a5,272(sp)
   11de2:	f4f610e3          	bne	a2,a5,11d22 <test_fp_add_once+0x16c>
   11de6:	67f2                	ld	a5,280(sp)
   11de8:	f2f69de3          	bne	a3,a5,11d22 <test_fp_add_once+0x16c>
   11dec:	01893703          	ld	a4,24(s2)
   11df0:	4505                	li	a0,1
   11df2:	f2b718e3          	bne	a4,a1,11d22 <test_fp_add_once+0x16c>
   11df6:	b7f1                	j	11dc2 <test_fp_add_once+0x20c>
   11df8:	dc9fe0ef          	jal	10bc0 <__stack_chk_fail@plt>

0000000000011dfc <test_fn_mont_mul_once>:
   11dfc:	7165                	addi	sp,sp,-400
   11dfe:	f6ce                	sd	s3,360(sp)
   11e00:	12810993          	addi	s3,sp,296
   11e04:	f2d2                	sd	s4,352(sp)
   11e06:	6a75                	lui	s4,0x1d
   11e08:	df0a3783          	ld	a5,-528(s4) # 1cdf0 <__stack_chk_guard@GLIBC_2.27>
   11e0c:	e6be                	sd	a5,328(sp)
   11e0e:	4781                	li	a5,0
   11e10:	e322                	sd	s0,384(sp)
   11e12:	fea6                	sd	s1,376(sp)
   11e14:	842a                	mv	s0,a0
   11e16:	faca                	sd	s2,368(sp)
   11e18:	874e                	mv	a4,s3
   11e1a:	e706                	sd	ra,392(sp)
   11e1c:	892e                	mv	s2,a1
   11e1e:	eed6                	sd	s5,344(sp)
   11e20:	02a4                	addi	s1,sp,328
   11e22:	87aa                	mv	a5,a0
   11e24:	00f70023          	sb	a5,0(a4)
   11e28:	27b5                	addiw	a5,a5,13
   11e2a:	0705                	addi	a4,a4,1
   11e2c:	0ff7f793          	zext.b	a5,a5
   11e30:	fe971ae3          	bne	a4,s1,11e24 <test_fn_mont_mul_once+0x28>
   11e34:	14714783          	lbu	a5,327(sp)
   11e38:	85ce                	mv	a1,s3
   11e3a:	0028                	addi	a0,sp,8
   11e3c:	0017e793          	ori	a5,a5,1
   11e40:	14f103a3          	sb	a5,327(sp)
   11e44:	641010ef          	jal	13c84 <fn_from_be>
   11e48:	874e                	mv	a4,s3
   11e4a:	87ca                	mv	a5,s2
   11e4c:	00f70023          	sb	a5,0(a4)
   11e50:	27b5                	addiw	a5,a5,13
   11e52:	0705                	addi	a4,a4,1
   11e54:	0ff7f793          	zext.b	a5,a5
   11e58:	fe971ae3          	bne	a4,s1,11e4c <test_fn_mont_mul_once+0x50>
   11e5c:	14714783          	lbu	a5,327(sp)
   11e60:	85ce                	mv	a1,s3
   11e62:	1028                	addi	a0,sp,40
   11e64:	0017e793          	ori	a5,a5,1
   11e68:	14f103a3          	sb	a5,327(sp)
   11e6c:	619010ef          	jal	13c84 <fn_from_be>
   11e70:	002c                	addi	a1,sp,8
   11e72:	00a8                	addi	a0,sp,72
   11e74:	40f020ef          	jal	14a82 <fn_to_mont_pub>
   11e78:	102c                	addi	a1,sp,40
   11e7a:	10a8                	addi	a0,sp,104
   11e7c:	407020ef          	jal	14a82 <fn_to_mont_pub>
   11e80:	10b0                	addi	a2,sp,104
   11e82:	00ac                	addi	a1,sp,72
   11e84:	0128                	addi	a0,sp,136
   11e86:	137020ef          	jal	147bc <fn_mont_mul_ct>
   11e8a:	012c                	addi	a1,sp,136
   11e8c:	11a8                	addi	a0,sp,232
   11e8e:	53b020ef          	jal	14bc8 <fn_from_mont_pub>
   11e92:	11ac                	addi	a1,sp,232
   11e94:	0228                	addi	a0,sp,264
   11e96:	012020ef          	jal	13ea8 <fn_to_be>
   11e9a:	67a6                	ld	a5,72(sp)
   11e9c:	01b0                	addi	a2,sp,200
   11e9e:	112c                	addi	a1,sp,168
   11ea0:	11a8                	addi	a0,sp,232
   11ea2:	f53e                	sd	a5,168(sp)
   11ea4:	67c6                	ld	a5,80(sp)
   11ea6:	f93e                	sd	a5,176(sp)
   11ea8:	67e6                	ld	a5,88(sp)
   11eaa:	fd3e                	sd	a5,184(sp)
   11eac:	7786                	ld	a5,96(sp)
   11eae:	e1be                	sd	a5,192(sp)
   11eb0:	77a6                	ld	a5,104(sp)
   11eb2:	e5be                	sd	a5,200(sp)
   11eb4:	77c6                	ld	a5,112(sp)
   11eb6:	e9be                	sd	a5,208(sp)
   11eb8:	77e6                	ld	a5,120(sp)
   11eba:	edbe                	sd	a5,216(sp)
   11ebc:	678a                	ld	a5,128(sp)
   11ebe:	f1be                	sd	a5,224(sp)
   11ec0:	ca1fe0ef          	jal	10b60 <sm2_z256_modn_mont_mul@plt>
   11ec4:	11ac                	addi	a1,sp,232
   11ec6:	852e                	mv	a0,a1
   11ec8:	d89fe0ef          	jal	10c50 <sm2_z256_modn_from_mont@plt>
   11ecc:	85ce                	mv	a1,s3
   11ece:	11a8                	addi	a0,sp,232
   11ed0:	ca1fe0ef          	jal	10b70 <sm2_z256_to_bytes@plt>
   11ed4:	6732                	ld	a4,264(sp)
   11ed6:	77b2                	ld	a5,296(sp)
   11ed8:	08f70763          	beq	a4,a5,11f66 <test_fn_mont_mul_once+0x16a>
   11edc:	86ca                	mv	a3,s2
   11ede:	8622                	mv	a2,s0
   11ee0:	65e9                	lui	a1,0x1a
   11ee2:	80858593          	addi	a1,a1,-2040 # 19808 <_IO_stdin_used+0xa8>
   11ee6:	4509                	li	a0,2
   11ee8:	c99fe0ef          	jal	10b80 <__printf_chk@plt>
   11eec:	6ae5                	lui	s5,0x19
   11eee:	6669                	lui	a2,0x1a
   11ef0:	7b0a8593          	addi	a1,s5,1968 # 197b0 <_IO_stdin_used+0x50>
   11ef4:	83060613          	addi	a2,a2,-2000 # 19830 <_IO_stdin_used+0xd0>
   11ef8:	0220                	addi	s0,sp,264
   11efa:	4509                	li	a0,2
   11efc:	6965                	lui	s2,0x19
   11efe:	c83fe0ef          	jal	10b80 <__printf_chk@plt>
   11f02:	00044603          	lbu	a2,0(s0)
   11f06:	7b890593          	addi	a1,s2,1976 # 197b8 <_IO_stdin_used+0x58>
   11f0a:	0405                	addi	s0,s0,1
   11f0c:	4509                	li	a0,2
   11f0e:	c73fe0ef          	jal	10b80 <__printf_chk@plt>
   11f12:	ff3418e3          	bne	s0,s3,11f02 <test_fn_mont_mul_once+0x106>
   11f16:	4529                	li	a0,10
   11f18:	c99fe0ef          	jal	10bb0 <putchar@plt>
   11f1c:	6669                	lui	a2,0x1a
   11f1e:	7b0a8593          	addi	a1,s5,1968
   11f22:	83860613          	addi	a2,a2,-1992 # 19838 <_IO_stdin_used+0xd8>
   11f26:	4509                	li	a0,2
   11f28:	c59fe0ef          	jal	10b80 <__printf_chk@plt>
   11f2c:	00044603          	lbu	a2,0(s0)
   11f30:	7b890593          	addi	a1,s2,1976
   11f34:	0405                	addi	s0,s0,1
   11f36:	4509                	li	a0,2
   11f38:	c49fe0ef          	jal	10b80 <__printf_chk@plt>
   11f3c:	fe8498e3          	bne	s1,s0,11f2c <test_fn_mont_mul_once+0x130>
   11f40:	4529                	li	a0,10
   11f42:	c6ffe0ef          	jal	10bb0 <putchar@plt>
   11f46:	4501                	li	a0,0
   11f48:	6736                	ld	a4,328(sp)
   11f4a:	df0a3783          	ld	a5,-528(s4)
   11f4e:	8fb9                	xor	a5,a5,a4
   11f50:	4701                	li	a4,0
   11f52:	eb9d                	bnez	a5,11f88 <test_fn_mont_mul_once+0x18c>
   11f54:	60ba                	ld	ra,392(sp)
   11f56:	641a                	ld	s0,384(sp)
   11f58:	74f6                	ld	s1,376(sp)
   11f5a:	7956                	ld	s2,368(sp)
   11f5c:	79b6                	ld	s3,360(sp)
   11f5e:	7a16                	ld	s4,352(sp)
   11f60:	6af6                	ld	s5,344(sp)
   11f62:	6159                	addi	sp,sp,400
   11f64:	8082                	ret
   11f66:	6752                	ld	a4,272(sp)
   11f68:	0089b783          	ld	a5,8(s3)
   11f6c:	f6f718e3          	bne	a4,a5,11edc <test_fn_mont_mul_once+0xe0>
   11f70:	6772                	ld	a4,280(sp)
   11f72:	0109b783          	ld	a5,16(s3)
   11f76:	f6f713e3          	bne	a4,a5,11edc <test_fn_mont_mul_once+0xe0>
   11f7a:	7712                	ld	a4,288(sp)
   11f7c:	4505                	li	a0,1
   11f7e:	0189b783          	ld	a5,24(s3)
   11f82:	f4f71de3          	bne	a4,a5,11edc <test_fn_mont_mul_once+0xe0>
   11f86:	b7c9                	j	11f48 <test_fn_mont_mul_once+0x14c>
   11f88:	c39fe0ef          	jal	10bc0 <__stack_chk_fail@plt>

0000000000011f8c <test_point_mul_generator_once>:
   11f8c:	d6010113          	addi	sp,sp,-672
   11f90:	29213023          	sd	s2,640(sp)
   11f94:	892a                	mv	s2,a0
   11f96:	27413823          	sd	s4,624(sp)
   11f9a:	1008                	addi	a0,sp,32
   11f9c:	6a75                	lui	s4,0x1d
   11f9e:	df0a3783          	ld	a5,-528(s4) # 1cdf0 <__stack_chk_guard@GLIBC_2.27>
   11fa2:	24f13c23          	sd	a5,600(sp)
   11fa6:	4781                	li	a5,0
   11fa8:	28813823          	sd	s0,656(sp)
   11fac:	0ba0                	addi	s0,sp,472
   11fae:	28113c23          	sd	ra,664(sp)
   11fb2:	27613023          	sd	s6,608(sp)
   11fb6:	28d030ef          	jal	15a42 <sm2_get_base_affine_mont>
   11fba:	1b38                	addi	a4,sp,440
   11fbc:	ff02                	sd	zero,440(sp)
   11fbe:	87ca                	mv	a5,s2
   11fc0:	e382                	sd	zero,448(sp)
   11fc2:	e782                	sd	zero,456(sp)
   11fc4:	eb82                	sd	zero,464(sp)
   11fc6:	00f70023          	sb	a5,0(a4)
   11fca:	27b5                	addiw	a5,a5,13
   11fcc:	0705                	addi	a4,a4,1
   11fce:	0ff7f793          	zext.b	a5,a5
   11fd2:	fe871ae3          	bne	a4,s0,11fc6 <test_point_mul_generator_once+0x3a>
   11fd6:	1d714783          	lbu	a5,471(sp)
   11fda:	1b2c                	addi	a1,sp,440
   11fdc:	850a                	mv	a0,sp
   11fde:	0017e793          	ori	a5,a5,1
   11fe2:	1cf10ba3          	sb	a5,471(sp)
   11fe6:	c8bfe0ef          	jal	10c70 <sm2_z256_from_bytes@plt>
   11fea:	1b30                	addi	a2,sp,440
   11fec:	100c                	addi	a1,sp,32
   11fee:	19a8                	addi	a0,sp,248
   11ff0:	5c5050ef          	jal	17db4 <sm2_scalar_mul_window_ct_schemeB_mont_affine_to_jacobian_mont>
   11ff4:	0aa8                	addi	a0,sp,344
   11ff6:	858a                	mv	a1,sp
   11ff8:	c69fe0ef          	jal	10c60 <sm2_z256_point_mul_generator@plt>
   11ffc:	19a8                	addi	a0,sp,248
   11ffe:	1cb030ef          	jal	159c8 <sm2_jacobian_is_infinity>
   12002:	cd1d                	beqz	a0,12040 <test_point_mul_generator_once+0xb4>
   12004:	65e9                	lui	a1,0x1a
   12006:	864a                	mv	a2,s2
   12008:	84058593          	addi	a1,a1,-1984 # 19840 <_IO_stdin_used+0xe0>
   1200c:	4509                	li	a0,2
   1200e:	b73fe0ef          	jal	10b80 <__printf_chk@plt>
   12012:	4b01                	li	s6,0
   12014:	25813703          	ld	a4,600(sp)
   12018:	df0a3783          	ld	a5,-528(s4)
   1201c:	8fb9                	xor	a5,a5,a4
   1201e:	4701                	li	a4,0
   12020:	1c079863          	bnez	a5,121f0 <test_point_mul_generator_once+0x264>
   12024:	29813083          	ld	ra,664(sp)
   12028:	855a                	mv	a0,s6
   1202a:	29013403          	ld	s0,656(sp)
   1202e:	28013903          	ld	s2,640(sp)
   12032:	27013a03          	ld	s4,624(sp)
   12036:	26013b03          	ld	s6,608(sp)
   1203a:	2a010113          	addi	sp,sp,672
   1203e:	8082                	ret
   12040:	19ac                	addi	a1,sp,248
   12042:	10a8                	addi	a0,sp,104
   12044:	28913423          	sd	s1,648(sp)
   12048:	27313c23          	sd	s3,632(sp)
   1204c:	27513423          	sd	s5,616(sp)
   12050:	457030ef          	jal	15ca6 <sm2_jacobian_mont_to_affine_mont>
   12054:	10ac                	addi	a1,sp,104
   12056:	1908                	addi	a0,sp,176
   12058:	26d030ef          	jal	15ac4 <sm2_affine_from_mont>
   1205c:	57ce                	lw	a5,240(sp)
   1205e:	cb81                	beqz	a5,1206e <test_point_mul_generator_once+0xe2>
   12060:	28813483          	ld	s1,648(sp)
   12064:	27813983          	ld	s3,632(sp)
   12068:	26813a83          	ld	s5,616(sp)
   1206c:	bf61                	j	12004 <test_point_mul_generator_once+0x78>
   1206e:	190c                	addi	a1,sp,176
   12070:	8522                	mv	a0,s0
   12072:	64e010ef          	jal	136c0 <fp_to_bytes>
   12076:	1f810993          	addi	s3,sp,504
   1207a:	098c                	addi	a1,sp,208
   1207c:	854e                	mv	a0,s3
   1207e:	642010ef          	jal	136c0 <fp_to_bytes>
   12082:	1910                	addi	a2,sp,176
   12084:	10ac                	addi	a1,sp,104
   12086:	0aa8                	addi	a0,sp,344
   12088:	c09fe0ef          	jal	10c90 <sm2_z256_point_get_xy@plt>
   1208c:	8b2a                	mv	s6,a0
   1208e:	4785                	li	a5,1
   12090:	02f50063          	beq	a0,a5,120b0 <test_point_mul_generator_once+0x124>
   12094:	864a                	mv	a2,s2
   12096:	65e9                	lui	a1,0x1a
   12098:	87858593          	addi	a1,a1,-1928 # 19878 <_IO_stdin_used+0x118>
   1209c:	4509                	li	a0,2
   1209e:	ae3fe0ef          	jal	10b80 <__printf_chk@plt>
   120a2:	28813483          	ld	s1,648(sp)
   120a6:	27813983          	ld	s3,632(sp)
   120aa:	26813a83          	ld	s5,616(sp)
   120ae:	b795                	j	12012 <test_point_mul_generator_once+0x86>
   120b0:	21810a93          	addi	s5,sp,536
   120b4:	10a8                	addi	a0,sp,104
   120b6:	85d6                	mv	a1,s5
   120b8:	1c24                	addi	s1,sp,568
   120ba:	ab7fe0ef          	jal	10b70 <sm2_z256_to_bytes@plt>
   120be:	85a6                	mv	a1,s1
   120c0:	1908                	addi	a0,sp,176
   120c2:	aaffe0ef          	jal	10b70 <sm2_z256_to_bytes@plt>
   120c6:	677e                	ld	a4,472(sp)
   120c8:	21813783          	ld	a5,536(sp)
   120cc:	0cf70863          	beq	a4,a5,1219c <test_point_mul_generator_once+0x210>
   120d0:	864a                	mv	a2,s2
   120d2:	65e9                	lui	a1,0x1a
   120d4:	8b058593          	addi	a1,a1,-1872 # 198b0 <_IO_stdin_used+0x150>
   120d8:	4509                	li	a0,2
   120da:	aa7fe0ef          	jal	10b80 <__printf_chk@plt>
   120de:	6b65                	lui	s6,0x19
   120e0:	6669                	lui	a2,0x1a
   120e2:	7b0b0593          	addi	a1,s6,1968 # 197b0 <_IO_stdin_used+0x50>
   120e6:	8e060613          	addi	a2,a2,-1824 # 198e0 <_IO_stdin_used+0x180>
   120ea:	4509                	li	a0,2
   120ec:	6965                	lui	s2,0x19
   120ee:	a93fe0ef          	jal	10b80 <__printf_chk@plt>
   120f2:	00044603          	lbu	a2,0(s0)
   120f6:	7b890593          	addi	a1,s2,1976 # 197b8 <_IO_stdin_used+0x58>
   120fa:	0405                	addi	s0,s0,1
   120fc:	4509                	li	a0,2
   120fe:	a83fe0ef          	jal	10b80 <__printf_chk@plt>
   12102:	ff3418e3          	bne	s0,s3,120f2 <test_point_mul_generator_once+0x166>
   12106:	4529                	li	a0,10
   12108:	aa9fe0ef          	jal	10bb0 <putchar@plt>
   1210c:	6669                	lui	a2,0x1a
   1210e:	7b0b0593          	addi	a1,s6,1968
   12112:	8e860613          	addi	a2,a2,-1816 # 198e8 <_IO_stdin_used+0x188>
   12116:	4509                	li	a0,2
   12118:	a69fe0ef          	jal	10b80 <__printf_chk@plt>
   1211c:	00044603          	lbu	a2,0(s0)
   12120:	7b890593          	addi	a1,s2,1976
   12124:	0405                	addi	s0,s0,1
   12126:	4509                	li	a0,2
   12128:	a59fe0ef          	jal	10b80 <__printf_chk@plt>
   1212c:	ff5418e3          	bne	s0,s5,1211c <test_point_mul_generator_once+0x190>
   12130:	4529                	li	a0,10
   12132:	a7ffe0ef          	jal	10bb0 <putchar@plt>
   12136:	6669                	lui	a2,0x1a
   12138:	7b0b0593          	addi	a1,s6,1968
   1213c:	8f060613          	addi	a2,a2,-1808 # 198f0 <_IO_stdin_used+0x190>
   12140:	4509                	li	a0,2
   12142:	a3ffe0ef          	jal	10b80 <__printf_chk@plt>
   12146:	00044603          	lbu	a2,0(s0)
   1214a:	7b890593          	addi	a1,s2,1976
   1214e:	0405                	addi	s0,s0,1
   12150:	4509                	li	a0,2
   12152:	a2ffe0ef          	jal	10b80 <__printf_chk@plt>
   12156:	fe8498e3          	bne	s1,s0,12146 <test_point_mul_generator_once+0x1ba>
   1215a:	4529                	li	a0,10
   1215c:	a55fe0ef          	jal	10bb0 <putchar@plt>
   12160:	7b0b0593          	addi	a1,s6,1968
   12164:	8426                	mv	s0,s1
   12166:	6669                	lui	a2,0x1a
   12168:	0ca4                	addi	s1,sp,600
   1216a:	8f860613          	addi	a2,a2,-1800 # 198f8 <_IO_stdin_used+0x198>
   1216e:	4509                	li	a0,2
   12170:	a11fe0ef          	jal	10b80 <__printf_chk@plt>
   12174:	00044603          	lbu	a2,0(s0)
   12178:	7b890593          	addi	a1,s2,1976
   1217c:	0405                	addi	s0,s0,1
   1217e:	4509                	li	a0,2
   12180:	a01fe0ef          	jal	10b80 <__printf_chk@plt>
   12184:	fe8498e3          	bne	s1,s0,12174 <test_point_mul_generator_once+0x1e8>
   12188:	4529                	li	a0,10
   1218a:	a27fe0ef          	jal	10bb0 <putchar@plt>
   1218e:	28813483          	ld	s1,648(sp)
   12192:	27813983          	ld	s3,632(sp)
   12196:	26813a83          	ld	s5,616(sp)
   1219a:	bda5                	j	12012 <test_point_mul_generator_once+0x86>
   1219c:	6418                	ld	a4,8(s0)
   1219e:	008ab783          	ld	a5,8(s5)
   121a2:	f2f717e3          	bne	a4,a5,120d0 <test_point_mul_generator_once+0x144>
   121a6:	6818                	ld	a4,16(s0)
   121a8:	010ab783          	ld	a5,16(s5)
   121ac:	f2f712e3          	bne	a4,a5,120d0 <test_point_mul_generator_once+0x144>
   121b0:	6c18                	ld	a4,24(s0)
   121b2:	018ab783          	ld	a5,24(s5)
   121b6:	f0f71de3          	bne	a4,a5,120d0 <test_point_mul_generator_once+0x144>
   121ba:	777e                	ld	a4,504(sp)
   121bc:	23813783          	ld	a5,568(sp)
   121c0:	f0f718e3          	bne	a4,a5,120d0 <test_point_mul_generator_once+0x144>
   121c4:	0089b703          	ld	a4,8(s3)
   121c8:	649c                	ld	a5,8(s1)
   121ca:	f0f713e3          	bne	a4,a5,120d0 <test_point_mul_generator_once+0x144>
   121ce:	0109b703          	ld	a4,16(s3)
   121d2:	689c                	ld	a5,16(s1)
   121d4:	eef71ee3          	bne	a4,a5,120d0 <test_point_mul_generator_once+0x144>
   121d8:	0189b703          	ld	a4,24(s3)
   121dc:	6c9c                	ld	a5,24(s1)
   121de:	eef719e3          	bne	a4,a5,120d0 <test_point_mul_generator_once+0x144>
   121e2:	28813483          	ld	s1,648(sp)
   121e6:	27813983          	ld	s3,632(sp)
   121ea:	26813a83          	ld	s5,616(sp)
   121ee:	b51d                	j	12014 <test_point_mul_generator_once+0x88>
   121f0:	28913423          	sd	s1,648(sp)
   121f4:	27313c23          	sd	s3,632(sp)
   121f8:	27513423          	sd	s5,616(sp)
   121fc:	9c5fe0ef          	jal	10bc0 <__stack_chk_fail@plt>

0000000000012200 <test_point_mul_once>:
   12200:	c6010113          	addi	sp,sp,-928
   12204:	39213023          	sd	s2,896(sp)
   12208:	6975                	lui	s2,0x1d
   1220a:	37313c23          	sd	s3,888(sp)
   1220e:	df093783          	ld	a5,-528(s2) # 1cdf0 <__stack_chk_guard@GLIBC_2.27>
   12212:	34f13423          	sd	a5,840(sp)
   12216:	4781                	li	a5,0
   12218:	89aa                	mv	s3,a0
   1221a:	00a8                	addi	a0,sp,72
   1221c:	38913423          	sd	s1,904(sp)
   12220:	1524                	addi	s1,sp,680
   12222:	37413823          	sd	s4,880(sp)
   12226:	8a2e                	mv	s4,a1
   12228:	38113c23          	sd	ra,920(sp)
   1222c:	38813823          	sd	s0,912(sp)
   12230:	35713c23          	sd	s7,856(sp)
   12234:	7d2030ef          	jal	15a06 <sm2_get_base_affine>
   12238:	2a013423          	sd	zero,680(sp)
   1223c:	0538                	addi	a4,sp,648
   1223e:	28013423          	sd	zero,648(sp)
   12242:	87ce                	mv	a5,s3
   12244:	28013823          	sd	zero,656(sp)
   12248:	28013c23          	sd	zero,664(sp)
   1224c:	2a013023          	sd	zero,672(sp)
   12250:	0004b423          	sd	zero,8(s1)
   12254:	0004b823          	sd	zero,16(s1)
   12258:	0004bc23          	sd	zero,24(s1)
   1225c:	00f70023          	sb	a5,0(a4)
   12260:	27b5                	addiw	a5,a5,13
   12262:	0705                	addi	a4,a4,1
   12264:	0ff7f793          	zext.b	a5,a5
   12268:	fee49ae3          	bne	s1,a4,1225c <test_point_mul_once+0x5c>
   1226c:	8726                	mv	a4,s1
   1226e:	05a0                	addi	s0,sp,712
   12270:	87d2                	mv	a5,s4
   12272:	00f70023          	sb	a5,0(a4)
   12276:	27b5                	addiw	a5,a5,13
   12278:	0705                	addi	a4,a4,1
   1227a:	0ff7f793          	zext.b	a5,a5
   1227e:	fe871ae3          	bne	a4,s0,12272 <test_point_mul_once+0x72>
   12282:	2a714703          	lbu	a4,679(sp)
   12286:	0530                	addi	a2,sp,648
   12288:	2c714783          	lbu	a5,711(sp)
   1228c:	00ac                	addi	a1,sp,72
   1228e:	0908                	addi	a0,sp,144
   12290:	00176713          	ori	a4,a4,1
   12294:	0017e793          	ori	a5,a5,1
   12298:	2ae103a3          	sb	a4,679(sp)
   1229c:	2cf103a3          	sb	a5,711(sp)
   122a0:	13f050ef          	jal	17bde <sm2_scalar_mul_window_ct_schemeB_mont_to_affine>
   122a4:	8626                	mv	a2,s1
   122a6:	090c                	addi	a1,sp,144
   122a8:	12a8                	addi	a0,sp,360
   122aa:	74e050ef          	jal	179f8 <sm2_scalar_mul_window_ct_schemeB_mont>
   122ae:	052c                	addi	a1,sp,648
   122b0:	0028                	addi	a0,sp,8
   122b2:	9bffe0ef          	jal	10c70 <sm2_z256_from_bytes@plt>
   122b6:	85a6                	mv	a1,s1
   122b8:	1028                	addi	a0,sp,40
   122ba:	9b7fe0ef          	jal	10c70 <sm2_z256_from_bytes@plt>
   122be:	002c                	addi	a1,sp,8
   122c0:	03a8                	addi	a0,sp,456
   122c2:	99ffe0ef          	jal	10c60 <sm2_z256_point_mul_generator@plt>
   122c6:	1428                	addi	a0,sp,552
   122c8:	03b0                	addi	a2,sp,456
   122ca:	102c                	addi	a1,sp,40
   122cc:	885fe0ef          	jal	10b50 <sm2_z256_point_mul@plt>
   122d0:	12a8                	addi	a0,sp,360
   122d2:	6f6030ef          	jal	159c8 <sm2_jacobian_is_infinity>
   122d6:	c521                	beqz	a0,1231e <test_point_mul_once+0x11e>
   122d8:	65e9                	lui	a1,0x1a
   122da:	86d2                	mv	a3,s4
   122dc:	864e                	mv	a2,s3
   122de:	90058593          	addi	a1,a1,-1792 # 19900 <_IO_stdin_used+0x1a0>
   122e2:	4509                	li	a0,2
   122e4:	89dfe0ef          	jal	10b80 <__printf_chk@plt>
   122e8:	4b81                	li	s7,0
   122ea:	34813703          	ld	a4,840(sp)
   122ee:	df093783          	ld	a5,-528(s2)
   122f2:	8fb9                	xor	a5,a5,a4
   122f4:	4701                	li	a4,0
   122f6:	1c079763          	bnez	a5,124c4 <test_point_mul_once+0x2c4>
   122fa:	39813083          	ld	ra,920(sp)
   122fe:	855e                	mv	a0,s7
   12300:	39013403          	ld	s0,912(sp)
   12304:	38813483          	ld	s1,904(sp)
   12308:	38013903          	ld	s2,896(sp)
   1230c:	37813983          	ld	s3,888(sp)
   12310:	37013a03          	ld	s4,880(sp)
   12314:	35813b83          	ld	s7,856(sp)
   12318:	3a010113          	addi	sp,sp,928
   1231c:	8082                	ret
   1231e:	12ac                	addi	a1,sp,360
   12320:	09a8                	addi	a0,sp,216
   12322:	37513423          	sd	s5,872(sp)
   12326:	37613023          	sd	s6,864(sp)
   1232a:	17d030ef          	jal	15ca6 <sm2_jacobian_mont_to_affine_mont>
   1232e:	09ac                	addi	a1,sp,216
   12330:	1208                	addi	a0,sp,288
   12332:	792030ef          	jal	15ac4 <sm2_affine_from_mont>
   12336:	16012783          	lw	a5,352(sp)
   1233a:	c791                	beqz	a5,12346 <test_point_mul_once+0x146>
   1233c:	36813a83          	ld	s5,872(sp)
   12340:	36013b03          	ld	s6,864(sp)
   12344:	bf51                	j	122d8 <test_point_mul_once+0xd8>
   12346:	120c                	addi	a1,sp,288
   12348:	8522                	mv	a0,s0
   1234a:	376010ef          	jal	136c0 <fp_to_bytes>
   1234e:	2e810a93          	addi	s5,sp,744
   12352:	028c                	addi	a1,sp,320
   12354:	8556                	mv	a0,s5
   12356:	36a010ef          	jal	136c0 <fp_to_bytes>
   1235a:	1210                	addi	a2,sp,288
   1235c:	09ac                	addi	a1,sp,216
   1235e:	1428                	addi	a0,sp,552
   12360:	931fe0ef          	jal	10c90 <sm2_z256_point_get_xy@plt>
   12364:	8baa                	mv	s7,a0
   12366:	4785                	li	a5,1
   12368:	00f50f63          	beq	a0,a5,12386 <test_point_mul_once+0x186>
   1236c:	86d2                	mv	a3,s4
   1236e:	864e                	mv	a2,s3
   12370:	65e9                	lui	a1,0x1a
   12372:	93058593          	addi	a1,a1,-1744 # 19930 <_IO_stdin_used+0x1d0>
   12376:	4509                	li	a0,2
   12378:	809fe0ef          	jal	10b80 <__printf_chk@plt>
   1237c:	36813a83          	ld	s5,872(sp)
   12380:	36013b03          	ld	s6,864(sp)
   12384:	b795                	j	122e8 <test_point_mul_once+0xe8>
   12386:	30810b13          	addi	s6,sp,776
   1238a:	09a8                	addi	a0,sp,216
   1238c:	85da                	mv	a1,s6
   1238e:	1624                	addi	s1,sp,808
   12390:	fe0fe0ef          	jal	10b70 <sm2_z256_to_bytes@plt>
   12394:	85a6                	mv	a1,s1
   12396:	1208                	addi	a0,sp,288
   12398:	fd8fe0ef          	jal	10b70 <sm2_z256_to_bytes@plt>
   1239c:	2c813703          	ld	a4,712(sp)
   123a0:	30813783          	ld	a5,776(sp)
   123a4:	0cf70763          	beq	a4,a5,12472 <test_point_mul_once+0x272>
   123a8:	86d2                	mv	a3,s4
   123aa:	864e                	mv	a2,s3
   123ac:	65e9                	lui	a1,0x1a
   123ae:	96058593          	addi	a1,a1,-1696 # 19960 <_IO_stdin_used+0x200>
   123b2:	4509                	li	a0,2
   123b4:	fccfe0ef          	jal	10b80 <__printf_chk@plt>
   123b8:	6a65                	lui	s4,0x19
   123ba:	6669                	lui	a2,0x1a
   123bc:	7b0a0593          	addi	a1,s4,1968 # 197b0 <_IO_stdin_used+0x50>
   123c0:	8e060613          	addi	a2,a2,-1824 # 198e0 <_IO_stdin_used+0x180>
   123c4:	4509                	li	a0,2
   123c6:	69e5                	lui	s3,0x19
   123c8:	fb8fe0ef          	jal	10b80 <__printf_chk@plt>
   123cc:	00044603          	lbu	a2,0(s0)
   123d0:	7b898593          	addi	a1,s3,1976 # 197b8 <_IO_stdin_used+0x58>
   123d4:	0405                	addi	s0,s0,1
   123d6:	4509                	li	a0,2
   123d8:	fa8fe0ef          	jal	10b80 <__printf_chk@plt>
   123dc:	ff5418e3          	bne	s0,s5,123cc <test_point_mul_once+0x1cc>
   123e0:	4529                	li	a0,10
   123e2:	fcefe0ef          	jal	10bb0 <putchar@plt>
   123e6:	6669                	lui	a2,0x1a
   123e8:	7b0a0593          	addi	a1,s4,1968
   123ec:	8e860613          	addi	a2,a2,-1816 # 198e8 <_IO_stdin_used+0x188>
   123f0:	4509                	li	a0,2
   123f2:	f8efe0ef          	jal	10b80 <__printf_chk@plt>
   123f6:	00044603          	lbu	a2,0(s0)
   123fa:	7b898593          	addi	a1,s3,1976
   123fe:	0405                	addi	s0,s0,1
   12400:	4509                	li	a0,2
   12402:	f7efe0ef          	jal	10b80 <__printf_chk@plt>
   12406:	ff6418e3          	bne	s0,s6,123f6 <test_point_mul_once+0x1f6>
   1240a:	4529                	li	a0,10
   1240c:	fa4fe0ef          	jal	10bb0 <putchar@plt>
   12410:	6669                	lui	a2,0x1a
   12412:	7b0a0593          	addi	a1,s4,1968
   12416:	8f060613          	addi	a2,a2,-1808 # 198f0 <_IO_stdin_used+0x190>
   1241a:	4509                	li	a0,2
   1241c:	f64fe0ef          	jal	10b80 <__printf_chk@plt>
   12420:	00044603          	lbu	a2,0(s0)
   12424:	7b898593          	addi	a1,s3,1976
   12428:	0405                	addi	s0,s0,1
   1242a:	4509                	li	a0,2
   1242c:	f54fe0ef          	jal	10b80 <__printf_chk@plt>
   12430:	fe8498e3          	bne	s1,s0,12420 <test_point_mul_once+0x220>
   12434:	4529                	li	a0,10
   12436:	f7afe0ef          	jal	10bb0 <putchar@plt>
   1243a:	7b0a0593          	addi	a1,s4,1968
   1243e:	8426                	mv	s0,s1
   12440:	6669                	lui	a2,0x1a
   12442:	06a4                	addi	s1,sp,840
   12444:	8f860613          	addi	a2,a2,-1800 # 198f8 <_IO_stdin_used+0x198>
   12448:	4509                	li	a0,2
   1244a:	f36fe0ef          	jal	10b80 <__printf_chk@plt>
   1244e:	00044603          	lbu	a2,0(s0)
   12452:	7b898593          	addi	a1,s3,1976
   12456:	0405                	addi	s0,s0,1
   12458:	4509                	li	a0,2
   1245a:	f26fe0ef          	jal	10b80 <__printf_chk@plt>
   1245e:	fe8498e3          	bne	s1,s0,1244e <test_point_mul_once+0x24e>
   12462:	4529                	li	a0,10
   12464:	f4cfe0ef          	jal	10bb0 <putchar@plt>
   12468:	36813a83          	ld	s5,872(sp)
   1246c:	36013b03          	ld	s6,864(sp)
   12470:	bda5                	j	122e8 <test_point_mul_once+0xe8>
   12472:	6418                	ld	a4,8(s0)
   12474:	008b3783          	ld	a5,8(s6)
   12478:	f2f718e3          	bne	a4,a5,123a8 <test_point_mul_once+0x1a8>
   1247c:	6818                	ld	a4,16(s0)
   1247e:	010b3783          	ld	a5,16(s6)
   12482:	f2f713e3          	bne	a4,a5,123a8 <test_point_mul_once+0x1a8>
   12486:	6c18                	ld	a4,24(s0)
   12488:	018b3783          	ld	a5,24(s6)
   1248c:	f0f71ee3          	bne	a4,a5,123a8 <test_point_mul_once+0x1a8>
   12490:	2e813703          	ld	a4,744(sp)
   12494:	32813783          	ld	a5,808(sp)
   12498:	f0f718e3          	bne	a4,a5,123a8 <test_point_mul_once+0x1a8>
   1249c:	008ab703          	ld	a4,8(s5)
   124a0:	649c                	ld	a5,8(s1)
   124a2:	f0f713e3          	bne	a4,a5,123a8 <test_point_mul_once+0x1a8>
   124a6:	010ab703          	ld	a4,16(s5)
   124aa:	689c                	ld	a5,16(s1)
   124ac:	eef71ee3          	bne	a4,a5,123a8 <test_point_mul_once+0x1a8>
   124b0:	018ab703          	ld	a4,24(s5)
   124b4:	6c9c                	ld	a5,24(s1)
   124b6:	eef719e3          	bne	a4,a5,123a8 <test_point_mul_once+0x1a8>
   124ba:	36813a83          	ld	s5,872(sp)
   124be:	36013b03          	ld	s6,864(sp)
   124c2:	b525                	j	122ea <test_point_mul_once+0xea>
   124c4:	37513423          	sd	s5,872(sp)
   124c8:	37613023          	sd	s6,864(sp)
   124cc:	ef4fe0ef          	jal	10bc0 <__stack_chk_fail@plt>

00000000000124d0 <test_fp_to_from_mont_once>:
   124d0:	7165                	addi	sp,sp,-400
   124d2:	f2d2                	sd	s4,352(sp)
   124d4:	6a75                	lui	s4,0x1d
   124d6:	df0a3783          	ld	a5,-528(s4) # 1cdf0 <__stack_chk_guard@GLIBC_2.27>
   124da:	e6be                	sd	a5,328(sp)
   124dc:	4781                	li	a5,0
   124de:	e322                	sd	s0,384(sp)
   124e0:	fea6                	sd	s1,376(sp)
   124e2:	0038                	addi	a4,sp,8
   124e4:	e706                	sd	ra,392(sp)
   124e6:	84aa                	mv	s1,a0
   124e8:	faca                	sd	s2,368(sp)
   124ea:	1020                	addi	s0,sp,40
   124ec:	f6ce                	sd	s3,360(sp)
   124ee:	87aa                	mv	a5,a0
   124f0:	eed6                	sd	s5,344(sp)
   124f2:	e402                	sd	zero,8(sp)
   124f4:	e802                	sd	zero,16(sp)
   124f6:	ec02                	sd	zero,24(sp)
   124f8:	f002                	sd	zero,32(sp)
   124fa:	00f70023          	sb	a5,0(a4)
   124fe:	27b5                	addiw	a5,a5,13
   12500:	0705                	addi	a4,a4,1
   12502:	0ff7f793          	zext.b	a5,a5
   12506:	fee41ae3          	bne	s0,a4,124fa <test_fp_to_from_mont_once+0x2a>
   1250a:	67a2                	ld	a5,8(sp)
   1250c:	8522                	mv	a0,s0
   1250e:	002c                	addi	a1,sp,8
   12510:	10810913          	addi	s2,sp,264
   12514:	0017e793          	ori	a5,a5,1
   12518:	e43e                	sd	a5,8(sp)
   1251a:	05f060ef          	jal	18d78 <fp_to_mont>
   1251e:	85a2                	mv	a1,s0
   12520:	00a8                	addi	a0,sp,72
   12522:	669060ef          	jal	1938a <fp_from_mont>
   12526:	1220                	addi	s0,sp,296
   12528:	67a2                	ld	a5,8(sp)
   1252a:	012c                	addi	a1,sp,136
   1252c:	10a8                	addi	a0,sp,104
   1252e:	f4be                	sd	a5,104(sp)
   12530:	67c2                	ld	a5,16(sp)
   12532:	f8be                	sd	a5,112(sp)
   12534:	67e2                	ld	a5,24(sp)
   12536:	fcbe                	sd	a5,120(sp)
   12538:	7782                	ld	a5,32(sp)
   1253a:	e13e                	sd	a5,128(sp)
   1253c:	e64fe0ef          	jal	10ba0 <sm2_z256_modp_to_mont@plt>
   12540:	012c                	addi	a1,sp,136
   12542:	1128                	addi	a0,sp,168
   12544:	eccfe0ef          	jal	10c10 <sm2_z256_modp_from_mont@plt>
   12548:	002c                	addi	a1,sp,8
   1254a:	11a8                	addi	a0,sp,232
   1254c:	174010ef          	jal	136c0 <fp_to_bytes>
   12550:	00ac                	addi	a1,sp,72
   12552:	854a                	mv	a0,s2
   12554:	16c010ef          	jal	136c0 <fp_to_bytes>
   12558:	77aa                	ld	a5,168(sp)
   1255a:	01ac                	addi	a1,sp,200
   1255c:	8522                	mv	a0,s0
   1255e:	e5be                	sd	a5,200(sp)
   12560:	77ca                	ld	a5,176(sp)
   12562:	e9be                	sd	a5,208(sp)
   12564:	77ea                	ld	a5,184(sp)
   12566:	edbe                	sd	a5,216(sp)
   12568:	678e                	ld	a5,192(sp)
   1256a:	f1be                	sd	a5,224(sp)
   1256c:	154010ef          	jal	136c0 <fp_to_bytes>
   12570:	77ae                	ld	a5,232(sp)
   12572:	6732                	ld	a4,264(sp)
   12574:	08e78663          	beq	a5,a4,12600 <test_fp_to_from_mont_once+0x130>
   12578:	8626                	mv	a2,s1
   1257a:	65e9                	lui	a1,0x1a
   1257c:	98858593          	addi	a1,a1,-1656 # 19988 <_IO_stdin_used+0x228>
   12580:	4509                	li	a0,2
   12582:	dfefe0ef          	jal	10b80 <__printf_chk@plt>
   12586:	6ae5                	lui	s5,0x19
   12588:	6669                	lui	a2,0x1a
   1258a:	7b0a8593          	addi	a1,s5,1968 # 197b0 <_IO_stdin_used+0x50>
   1258e:	9a860613          	addi	a2,a2,-1624 # 199a8 <_IO_stdin_used+0x248>
   12592:	11a4                	addi	s1,sp,232
   12594:	4509                	li	a0,2
   12596:	69e5                	lui	s3,0x19
   12598:	de8fe0ef          	jal	10b80 <__printf_chk@plt>
   1259c:	0004c603          	lbu	a2,0(s1)
   125a0:	7b898593          	addi	a1,s3,1976 # 197b8 <_IO_stdin_used+0x58>
   125a4:	0485                	addi	s1,s1,1
   125a6:	4509                	li	a0,2
   125a8:	dd8fe0ef          	jal	10b80 <__printf_chk@plt>
   125ac:	fe9918e3          	bne	s2,s1,1259c <test_fp_to_from_mont_once+0xcc>
   125b0:	4529                	li	a0,10
   125b2:	dfefe0ef          	jal	10bb0 <putchar@plt>
   125b6:	6669                	lui	a2,0x1a
   125b8:	7b0a8593          	addi	a1,s5,1968
   125bc:	9b060613          	addi	a2,a2,-1616 # 199b0 <_IO_stdin_used+0x250>
   125c0:	4509                	li	a0,2
   125c2:	dbefe0ef          	jal	10b80 <__printf_chk@plt>
   125c6:	00094603          	lbu	a2,0(s2)
   125ca:	7b898593          	addi	a1,s3,1976
   125ce:	0905                	addi	s2,s2,1
   125d0:	4509                	li	a0,2
   125d2:	daefe0ef          	jal	10b80 <__printf_chk@plt>
   125d6:	ff2418e3          	bne	s0,s2,125c6 <test_fp_to_from_mont_once+0xf6>
   125da:	4529                	li	a0,10
   125dc:	dd4fe0ef          	jal	10bb0 <putchar@plt>
   125e0:	4501                	li	a0,0
   125e2:	6736                	ld	a4,328(sp)
   125e4:	df0a3783          	ld	a5,-528(s4)
   125e8:	8fb9                	xor	a5,a5,a4
   125ea:	4701                	li	a4,0
   125ec:	ebd5                	bnez	a5,126a0 <test_fp_to_from_mont_once+0x1d0>
   125ee:	60ba                	ld	ra,392(sp)
   125f0:	641a                	ld	s0,384(sp)
   125f2:	74f6                	ld	s1,376(sp)
   125f4:	7956                	ld	s2,368(sp)
   125f6:	79b6                	ld	s3,360(sp)
   125f8:	7a16                	ld	s4,352(sp)
   125fa:	6af6                	ld	s5,344(sp)
   125fc:	6159                	addi	sp,sp,400
   125fe:	8082                	ret
   12600:	76ce                	ld	a3,240(sp)
   12602:	00893703          	ld	a4,8(s2)
   12606:	f6e699e3          	bne	a3,a4,12578 <test_fp_to_from_mont_once+0xa8>
   1260a:	766e                	ld	a2,248(sp)
   1260c:	01093703          	ld	a4,16(s2)
   12610:	f6e614e3          	bne	a2,a4,12578 <test_fp_to_from_mont_once+0xa8>
   12614:	6592                	ld	a1,256(sp)
   12616:	01893703          	ld	a4,24(s2)
   1261a:	f4e59fe3          	bne	a1,a4,12578 <test_fp_to_from_mont_once+0xa8>
   1261e:	7732                	ld	a4,296(sp)
   12620:	06e78563          	beq	a5,a4,1268a <test_fp_to_from_mont_once+0x1ba>
   12624:	8626                	mv	a2,s1
   12626:	65e9                	lui	a1,0x1a
   12628:	9c058593          	addi	a1,a1,-1600 # 199c0 <_IO_stdin_used+0x260>
   1262c:	4509                	li	a0,2
   1262e:	d52fe0ef          	jal	10b80 <__printf_chk@plt>
   12632:	6ae5                	lui	s5,0x19
   12634:	6669                	lui	a2,0x1a
   12636:	7b0a8593          	addi	a1,s5,1968 # 197b0 <_IO_stdin_used+0x50>
   1263a:	9a860613          	addi	a2,a2,-1624 # 199a8 <_IO_stdin_used+0x248>
   1263e:	11a4                	addi	s1,sp,232
   12640:	4509                	li	a0,2
   12642:	69e5                	lui	s3,0x19
   12644:	d3cfe0ef          	jal	10b80 <__printf_chk@plt>
   12648:	0004c603          	lbu	a2,0(s1)
   1264c:	7b898593          	addi	a1,s3,1976 # 197b8 <_IO_stdin_used+0x58>
   12650:	0485                	addi	s1,s1,1
   12652:	4509                	li	a0,2
   12654:	d2cfe0ef          	jal	10b80 <__printf_chk@plt>
   12658:	ff2498e3          	bne	s1,s2,12648 <test_fp_to_from_mont_once+0x178>
   1265c:	4529                	li	a0,10
   1265e:	d52fe0ef          	jal	10bb0 <putchar@plt>
   12662:	7b0a8593          	addi	a1,s5,1968
   12666:	6669                	lui	a2,0x1a
   12668:	02a4                	addi	s1,sp,328
   1266a:	9e860613          	addi	a2,a2,-1560 # 199e8 <_IO_stdin_used+0x288>
   1266e:	4509                	li	a0,2
   12670:	d10fe0ef          	jal	10b80 <__printf_chk@plt>
   12674:	00044603          	lbu	a2,0(s0)
   12678:	7b898593          	addi	a1,s3,1976
   1267c:	0405                	addi	s0,s0,1
   1267e:	4509                	li	a0,2
   12680:	d00fe0ef          	jal	10b80 <__printf_chk@plt>
   12684:	fe9418e3          	bne	s0,s1,12674 <test_fp_to_from_mont_once+0x1a4>
   12688:	bf89                	j	125da <test_fp_to_from_mont_once+0x10a>
   1268a:	641c                	ld	a5,8(s0)
   1268c:	f8f69ce3          	bne	a3,a5,12624 <test_fp_to_from_mont_once+0x154>
   12690:	681c                	ld	a5,16(s0)
   12692:	f8f619e3          	bne	a2,a5,12624 <test_fp_to_from_mont_once+0x154>
   12696:	6c1c                	ld	a5,24(s0)
   12698:	4505                	li	a0,1
   1269a:	f8f595e3          	bne	a1,a5,12624 <test_fp_to_from_mont_once+0x154>
   1269e:	b791                	j	125e2 <test_fp_to_from_mont_once+0x112>
   126a0:	d20fe0ef          	jal	10bc0 <__stack_chk_fail@plt>

00000000000126a4 <compare_self_gmssl_points>:
   126a4:	7109                	addi	sp,sp,-384
   126a6:	ead2                	sd	s4,336(sp)
   126a8:	6a75                	lui	s4,0x1d
   126aa:	f666                	sd	s9,296(sp)
   126ac:	df0a3783          	ld	a5,-528(s4) # 1cdf0 <__stack_chk_guard@GLIBC_2.27>
   126b0:	ee3e                	sd	a5,280(sp)
   126b2:	4781                	li	a5,0
   126b4:	8caa                	mv	s9,a0
   126b6:	852e                	mv	a0,a1
   126b8:	faa2                	sd	s0,368(sp)
   126ba:	843a                	mv	s0,a4
   126bc:	f6a6                	sd	s1,360(sp)
   126be:	84ae                	mv	s1,a1
   126c0:	f2ca                	sd	s2,352(sp)
   126c2:	8936                	mv	s2,a3
   126c4:	eece                	sd	s3,344(sp)
   126c6:	89b2                	mv	s3,a2
   126c8:	fe86                	sd	ra,376(sp)
   126ca:	e6d6                	sd	s5,328(sp)
   126cc:	2fc030ef          	jal	159c8 <sm2_jacobian_is_infinity>
   126d0:	cd15                	beqz	a0,1270c <compare_self_gmssl_points+0x68>
   126d2:	0884                	addi	s1,sp,80
   126d4:	00810a93          	addi	s5,sp,8
   126d8:	8626                	mv	a2,s1
   126da:	85d6                	mv	a1,s5
   126dc:	854e                	mv	a0,s3
   126de:	db2fe0ef          	jal	10c90 <sm2_z256_point_get_xy@plt>
   126e2:	4785                	li	a5,1
   126e4:	14f50663          	beq	a0,a5,12830 <compare_self_gmssl_points+0x18c>
   126e8:	4505                	li	a0,1
   126ea:	6772                	ld	a4,280(sp)
   126ec:	df0a3783          	ld	a5,-528(s4)
   126f0:	8fb9                	xor	a5,a5,a4
   126f2:	4701                	li	a4,0
   126f4:	28079263          	bnez	a5,12978 <compare_self_gmssl_points+0x2d4>
   126f8:	70f6                	ld	ra,376(sp)
   126fa:	7456                	ld	s0,368(sp)
   126fc:	74b6                	ld	s1,360(sp)
   126fe:	7916                	ld	s2,352(sp)
   12700:	69f6                	ld	s3,344(sp)
   12702:	6a56                	ld	s4,336(sp)
   12704:	6ab6                	ld	s5,328(sp)
   12706:	7cb2                	ld	s9,296(sp)
   12708:	6119                	addi	sp,sp,384
   1270a:	8082                	ret
   1270c:	00810a93          	addi	s5,sp,8
   12710:	85a6                	mv	a1,s1
   12712:	8556                	mv	a0,s5
   12714:	f26a                	sd	s10,288(sp)
   12716:	0884                	addi	s1,sp,80
   12718:	58e030ef          	jal	15ca6 <sm2_jacobian_mont_to_affine_mont>
   1271c:	85d6                	mv	a1,s5
   1271e:	8526                	mv	a0,s1
   12720:	3a4030ef          	jal	15ac4 <sm2_affine_from_mont>
   12724:	4d4a                	lw	s10,144(sp)
   12726:	000d0d63          	beqz	s10,12740 <compare_self_gmssl_points+0x9c>
   1272a:	8626                	mv	a2,s1
   1272c:	85d6                	mv	a1,s5
   1272e:	854e                	mv	a0,s3
   12730:	d60fe0ef          	jal	10c90 <sm2_z256_point_get_xy@plt>
   12734:	4785                	li	a5,1
   12736:	1ef50663          	beq	a0,a5,12922 <compare_self_gmssl_points+0x27e>
   1273a:	7d12                	ld	s10,288(sp)
   1273c:	4505                	li	a0,1
   1273e:	b775                	j	126ea <compare_self_gmssl_points+0x46>
   12740:	85a6                	mv	a1,s1
   12742:	0928                	addi	a0,sp,152
   12744:	e2da                	sd	s6,320(sp)
   12746:	fe5e                	sd	s7,312(sp)
   12748:	0b810b93          	addi	s7,sp,184
   1274c:	fa62                	sd	s8,304(sp)
   1274e:	773000ef          	jal	136c0 <fp_to_bytes>
   12752:	188c                	addi	a1,sp,112
   12754:	855e                	mv	a0,s7
   12756:	76b000ef          	jal	136c0 <fp_to_bytes>
   1275a:	4c05                	li	s8,1
   1275c:	8626                	mv	a2,s1
   1275e:	85d6                	mv	a1,s5
   12760:	854e                	mv	a0,s3
   12762:	d2efe0ef          	jal	10c90 <sm2_z256_point_get_xy@plt>
   12766:	8b2a                	mv	s6,a0
   12768:	4785                	li	a5,1
   1276a:	00f50463          	beq	a0,a5,12772 <compare_self_gmssl_points+0xce>
   1276e:	7bf2                	ld	s7,312(sp)
   12770:	a8e9                	j	1284a <compare_self_gmssl_points+0x1a6>
   12772:	8556                	mv	a0,s5
   12774:	09ac                	addi	a1,sp,216
   12776:	bfafe0ef          	jal	10b70 <sm2_z256_to_bytes@plt>
   1277a:	0f810993          	addi	s3,sp,248
   1277e:	85ce                	mv	a1,s3
   12780:	8526                	mv	a0,s1
   12782:	beefe0ef          	jal	10b70 <sm2_z256_to_bytes@plt>
   12786:	676a                	ld	a4,152(sp)
   12788:	67ee                	ld	a5,216(sp)
   1278a:	18f70f63          	beq	a4,a5,12928 <compare_self_gmssl_points+0x284>
   1278e:	8666                	mv	a2,s9
   12790:	65e9                	lui	a1,0x1a
   12792:	9f058593          	addi	a1,a1,-1552 # 199f0 <_IO_stdin_used+0x290>
   12796:	4509                	li	a0,2
   12798:	be8fe0ef          	jal	10b80 <__printf_chk@plt>
   1279c:	7bf2                	ld	s7,312(sp)
   1279e:	8c5a                	mv	s8,s6
   127a0:	6ae5                	lui	s5,0x19
   127a2:	6669                	lui	a2,0x1a
   127a4:	7b0a8593          	addi	a1,s5,1968 # 197b0 <_IO_stdin_used+0x50>
   127a8:	a0060613          	addi	a2,a2,-1536 # 19a00 <_IO_stdin_used+0x2a0>
   127ac:	02090993          	addi	s3,s2,32
   127b0:	4509                	li	a0,2
   127b2:	64e5                	lui	s1,0x19
   127b4:	bccfe0ef          	jal	10b80 <__printf_chk@plt>
   127b8:	00094603          	lbu	a2,0(s2)
   127bc:	7b848593          	addi	a1,s1,1976 # 197b8 <_IO_stdin_used+0x58>
   127c0:	0905                	addi	s2,s2,1
   127c2:	4509                	li	a0,2
   127c4:	bbcfe0ef          	jal	10b80 <__printf_chk@plt>
   127c8:	ff3918e3          	bne	s2,s3,127b8 <compare_self_gmssl_points+0x114>
   127cc:	4529                	li	a0,10
   127ce:	be2fe0ef          	jal	10bb0 <putchar@plt>
   127d2:	c805                	beqz	s0,12802 <compare_self_gmssl_points+0x15e>
   127d4:	7b0a8593          	addi	a1,s5,1968
   127d8:	6669                	lui	a2,0x1a
   127da:	02040913          	addi	s2,s0,32
   127de:	a1060613          	addi	a2,a2,-1520 # 19a10 <_IO_stdin_used+0x2b0>
   127e2:	4509                	li	a0,2
   127e4:	b9cfe0ef          	jal	10b80 <__printf_chk@plt>
   127e8:	00044603          	lbu	a2,0(s0)
   127ec:	7b848593          	addi	a1,s1,1976
   127f0:	0405                	addi	s0,s0,1
   127f2:	4509                	li	a0,2
   127f4:	b8cfe0ef          	jal	10b80 <__printf_chk@plt>
   127f8:	ff2418e3          	bne	s0,s2,127e8 <compare_self_gmssl_points+0x144>
   127fc:	4529                	li	a0,10
   127fe:	bb2fe0ef          	jal	10bb0 <putchar@plt>
   12802:	8662                	mv	a2,s8
   12804:	65e9                	lui	a1,0x1a
   12806:	a2058593          	addi	a1,a1,-1504 # 19a20 <_IO_stdin_used+0x2c0>
   1280a:	4509                	li	a0,2
   1280c:	b74fe0ef          	jal	10b80 <__printf_chk@plt>
   12810:	65e9                	lui	a1,0x1a
   12812:	865a                	mv	a2,s6
   12814:	a3858593          	addi	a1,a1,-1480 # 19a38 <_IO_stdin_used+0x2d8>
   12818:	4509                	li	a0,2
   1281a:	b66fe0ef          	jal	10b80 <__printf_chk@plt>
   1281e:	020c1f63          	bnez	s8,1285c <compare_self_gmssl_points+0x1b8>
   12822:	0a0b1063          	bnez	s6,128c2 <compare_self_gmssl_points+0x21e>
   12826:	6b16                	ld	s6,320(sp)
   12828:	4501                	li	a0,0
   1282a:	7c52                	ld	s8,304(sp)
   1282c:	7d12                	ld	s10,288(sp)
   1282e:	bd75                	j	126ea <compare_self_gmssl_points+0x46>
   12830:	e2da                	sd	s6,320(sp)
   12832:	fa62                	sd	s8,304(sp)
   12834:	f26a                	sd	s10,288(sp)
   12836:	09ac                	addi	a1,sp,216
   12838:	8556                	mv	a0,s5
   1283a:	b36fe0ef          	jal	10b70 <sm2_z256_to_bytes@plt>
   1283e:	4c01                	li	s8,0
   12840:	19ac                	addi	a1,sp,248
   12842:	8526                	mv	a0,s1
   12844:	b2cfe0ef          	jal	10b70 <sm2_z256_to_bytes@plt>
   12848:	4d05                	li	s10,1
   1284a:	8666                	mv	a2,s9
   1284c:	65e9                	lui	a1,0x1a
   1284e:	9f058593          	addi	a1,a1,-1552 # 199f0 <_IO_stdin_used+0x290>
   12852:	4509                	li	a0,2
   12854:	8b6a                	mv	s6,s10
   12856:	b2afe0ef          	jal	10b80 <__printf_chk@plt>
   1285a:	b799                	j	127a0 <compare_self_gmssl_points+0xfc>
   1285c:	fe5e                	sd	s7,312(sp)
   1285e:	7b0a8593          	addi	a1,s5,1968
   12862:	6669                	lui	a2,0x1a
   12864:	0920                	addi	s0,sp,152
   12866:	8e060613          	addi	a2,a2,-1824 # 198e0 <_IO_stdin_used+0x180>
   1286a:	0b810b93          	addi	s7,sp,184
   1286e:	4509                	li	a0,2
   12870:	b10fe0ef          	jal	10b80 <__printf_chk@plt>
   12874:	00044603          	lbu	a2,0(s0)
   12878:	7b848593          	addi	a1,s1,1976
   1287c:	0405                	addi	s0,s0,1
   1287e:	4509                	li	a0,2
   12880:	b00fe0ef          	jal	10b80 <__printf_chk@plt>
   12884:	ff7418e3          	bne	s0,s7,12874 <compare_self_gmssl_points+0x1d0>
   12888:	4529                	li	a0,10
   1288a:	b26fe0ef          	jal	10bb0 <putchar@plt>
   1288e:	7b0a8593          	addi	a1,s5,1968
   12892:	6669                	lui	a2,0x1a
   12894:	0d810913          	addi	s2,sp,216
   12898:	8e860613          	addi	a2,a2,-1816 # 198e8 <_IO_stdin_used+0x188>
   1289c:	4509                	li	a0,2
   1289e:	ae2fe0ef          	jal	10b80 <__printf_chk@plt>
   128a2:	00044603          	lbu	a2,0(s0)
   128a6:	7b848593          	addi	a1,s1,1976
   128aa:	0405                	addi	s0,s0,1
   128ac:	4509                	li	a0,2
   128ae:	ad2fe0ef          	jal	10b80 <__printf_chk@plt>
   128b2:	fe8918e3          	bne	s2,s0,128a2 <compare_self_gmssl_points+0x1fe>
   128b6:	4529                	li	a0,10
   128b8:	af8fe0ef          	jal	10bb0 <putchar@plt>
   128bc:	7bf2                	ld	s7,312(sp)
   128be:	f60b04e3          	beqz	s6,12826 <compare_self_gmssl_points+0x182>
   128c2:	7b0a8593          	addi	a1,s5,1968
   128c6:	6669                	lui	a2,0x1a
   128c8:	09a0                	addi	s0,sp,216
   128ca:	8f060613          	addi	a2,a2,-1808 # 198f0 <_IO_stdin_used+0x190>
   128ce:	0f810993          	addi	s3,sp,248
   128d2:	4509                	li	a0,2
   128d4:	aacfe0ef          	jal	10b80 <__printf_chk@plt>
   128d8:	00044603          	lbu	a2,0(s0)
   128dc:	7b848593          	addi	a1,s1,1976
   128e0:	0405                	addi	s0,s0,1
   128e2:	4509                	li	a0,2
   128e4:	a9cfe0ef          	jal	10b80 <__printf_chk@plt>
   128e8:	fe8998e3          	bne	s3,s0,128d8 <compare_self_gmssl_points+0x234>
   128ec:	4529                	li	a0,10
   128ee:	ac2fe0ef          	jal	10bb0 <putchar@plt>
   128f2:	7b0a8593          	addi	a1,s5,1968
   128f6:	6669                	lui	a2,0x1a
   128f8:	11810913          	addi	s2,sp,280
   128fc:	8f860613          	addi	a2,a2,-1800 # 198f8 <_IO_stdin_used+0x198>
   12900:	4509                	li	a0,2
   12902:	a7efe0ef          	jal	10b80 <__printf_chk@plt>
   12906:	0009c603          	lbu	a2,0(s3)
   1290a:	7b848593          	addi	a1,s1,1976
   1290e:	0985                	addi	s3,s3,1
   12910:	4509                	li	a0,2
   12912:	a6efe0ef          	jal	10b80 <__printf_chk@plt>
   12916:	ff3918e3          	bne	s2,s3,12906 <compare_self_gmssl_points+0x262>
   1291a:	4529                	li	a0,10
   1291c:	a94fe0ef          	jal	10bb0 <putchar@plt>
   12920:	b719                	j	12826 <compare_self_gmssl_points+0x182>
   12922:	e2da                	sd	s6,320(sp)
   12924:	fa62                	sd	s8,304(sp)
   12926:	bf01                	j	12836 <compare_self_gmssl_points+0x192>
   12928:	770a                	ld	a4,160(sp)
   1292a:	778e                	ld	a5,224(sp)
   1292c:	e6f711e3          	bne	a4,a5,1278e <compare_self_gmssl_points+0xea>
   12930:	772a                	ld	a4,168(sp)
   12932:	77ae                	ld	a5,232(sp)
   12934:	e4f71de3          	bne	a4,a5,1278e <compare_self_gmssl_points+0xea>
   12938:	774a                	ld	a4,176(sp)
   1293a:	77ce                	ld	a5,240(sp)
   1293c:	e4f719e3          	bne	a4,a5,1278e <compare_self_gmssl_points+0xea>
   12940:	776a                	ld	a4,184(sp)
   12942:	77ee                	ld	a5,248(sp)
   12944:	e4f715e3          	bne	a4,a5,1278e <compare_self_gmssl_points+0xea>
   12948:	008bb703          	ld	a4,8(s7)
   1294c:	0089b783          	ld	a5,8(s3)
   12950:	e2f71fe3          	bne	a4,a5,1278e <compare_self_gmssl_points+0xea>
   12954:	010bb703          	ld	a4,16(s7)
   12958:	0109b783          	ld	a5,16(s3)
   1295c:	e2f719e3          	bne	a4,a5,1278e <compare_self_gmssl_points+0xea>
   12960:	018bb703          	ld	a4,24(s7)
   12964:	0189b783          	ld	a5,24(s3)
   12968:	e2f713e3          	bne	a4,a5,1278e <compare_self_gmssl_points+0xea>
   1296c:	6b16                	ld	s6,320(sp)
   1296e:	4505                	li	a0,1
   12970:	7bf2                	ld	s7,312(sp)
   12972:	7c52                	ld	s8,304(sp)
   12974:	7d12                	ld	s10,288(sp)
   12976:	bb95                	j	126ea <compare_self_gmssl_points+0x46>
   12978:	e2da                	sd	s6,320(sp)
   1297a:	fe5e                	sd	s7,312(sp)
   1297c:	fa62                	sd	s8,304(sp)
   1297e:	f26a                	sd	s10,288(sp)
   12980:	a40fe0ef          	jal	10bc0 <__stack_chk_fail@plt>

0000000000012984 <test_scalar_stress_point_mul>:
   12984:	d2010113          	addi	sp,sp,-736
   12988:	72fd                	lui	t0,0xfffff
   1298a:	2c813823          	sd	s0,720(sp)
   1298e:	77fd                	lui	a5,0xfffff
   12990:	29713c23          	sd	s7,664(sp)
   12994:	fb878793          	addi	a5,a5,-72 # ffffffffffffefb8 <__BSS_END__+0xfffffffffffc58a0>
   12998:	2c113c23          	sd	ra,728(sp)
   1299c:	6b85                	lui	s7,0x1
   1299e:	2c913423          	sd	s1,712(sp)
   129a2:	240b8713          	addi	a4,s7,576 # 1240 <__abi_tag-0xf078>
   129a6:	2d213023          	sd	s2,704(sp)
   129aa:	973e                	add	a4,a4,a5
   129ac:	2b313c23          	sd	s3,696(sp)
   129b0:	6475                	lui	s0,0x1d
   129b2:	2b413823          	sd	s4,688(sp)
   129b6:	2b513423          	sd	s5,680(sp)
   129ba:	2b613023          	sd	s6,672(sp)
   129be:	29813823          	sd	s8,656(sp)
   129c2:	29913423          	sd	s9,648(sp)
   129c6:	29a13023          	sd	s10,640(sp)
   129ca:	9116                	add	sp,sp,t0
   129cc:	009c                	addi	a5,sp,64
   129ce:	97ba                	add	a5,a5,a4
   129d0:	238b8713          	addi	a4,s7,568
   129d4:	f03e                	sd	a5,32(sp)
   129d6:	853e                	mv	a0,a5
   129d8:	009c                	addi	a5,sp,64
   129da:	973e                	add	a4,a4,a5
   129dc:	df043783          	ld	a5,-528(s0) # 1cdf0 <__stack_chk_guard@GLIBC_2.27>
   129e0:	e31c                	sd	a5,0(a4)
   129e2:	4781                	li	a5,0
   129e4:	dddfe0ef          	jal	117c0 <build_stress_scalars.constprop.0>
   129e8:	1e050e63          	beqz	a0,12be4 <test_scalar_stress_point_mul+0x260>
   129ec:	240b8793          	addi	a5,s7,576
   129f0:	7afd                	lui	s5,0xfffff
   129f2:	e08a8a93          	addi	s5,s5,-504 # ffffffffffffee08 <__BSS_END__+0xfffffffffffc56f0>
   129f6:	0098                	addi	a4,sp,64
   129f8:	97d6                	add	a5,a5,s5
   129fa:	7a7d                	lui	s4,0xfffff
   129fc:	00e78ab3          	add	s5,a5,a4
   12a00:	e50a0a13          	addi	s4,s4,-432 # ffffffffffffee50 <__BSS_END__+0xfffffffffffc5738>
   12a04:	240b8793          	addi	a5,s7,576
   12a08:	79fd                	lui	s3,0xfffff
   12a0a:	97d2                	add	a5,a5,s4
   12a0c:	e9898993          	addi	s3,s3,-360 # ffffffffffffee98 <__BSS_END__+0xfffffffffffc5780>
   12a10:	00e78a33          	add	s4,a5,a4
   12a14:	240b8793          	addi	a5,s7,576
   12a18:	97ce                	add	a5,a5,s3
   12a1a:	797d                	lui	s2,0xfffff
   12a1c:	00e789b3          	add	s3,a5,a4
   12a20:	dc890913          	addi	s2,s2,-568 # ffffffffffffedc8 <__BSS_END__+0xfffffffffffc56b0>
   12a24:	240b8793          	addi	a5,s7,576
   12a28:	7482                	ld	s1,32(sp)
   12a2a:	97ca                	add	a5,a5,s2
   12a2c:	8b2a                	mv	s6,a0
   12a2e:	00e78933          	add	s2,a5,a4
   12a32:	4b85                	li	s7,1
   12a34:	6490                	ld	a2,8(s1)
   12a36:	6094                	ld	a3,0(s1)
   12a38:	688c                	ld	a1,16(s1)
   12a3a:	6c88                	ld	a0,24(s1)
   12a3c:	00d66733          	or	a4,a2,a3
   12a40:	8f4d                	or	a4,a4,a1
   12a42:	8f49                	or	a4,a4,a0
   12a44:	00875793          	srli	a5,a4,0x8
   12a48:	01075813          	srli	a6,a4,0x10
   12a4c:	8fd9                	or	a5,a5,a4
   12a4e:	01875893          	srli	a7,a4,0x18
   12a52:	0107e7b3          	or	a5,a5,a6
   12a56:	02075813          	srli	a6,a4,0x20
   12a5a:	0117e7b3          	or	a5,a5,a7
   12a5e:	02875893          	srli	a7,a4,0x28
   12a62:	0107e7b3          	or	a5,a5,a6
   12a66:	03075813          	srli	a6,a4,0x30
   12a6a:	0117e7b3          	or	a5,a5,a7
   12a6e:	9361                	srli	a4,a4,0x38
   12a70:	0107e7b3          	or	a5,a5,a6
   12a74:	8fd9                	or	a5,a5,a4
   12a76:	0ff7f793          	zext.b	a5,a5
   12a7a:	14078d63          	beqz	a5,12bd4 <test_scalar_stress_point_mul+0x250>
   12a7e:	ff0007b7          	lui	a5,0xff000
   12a82:	17fd                	addi	a5,a5,-1 # fffffffffeffffff <__BSS_END__+0xfffffffffefc68e7>
   12a84:	10f68763          	beq	a3,a5,12b92 <test_scalar_stress_point_mul+0x20e>
   12a88:	6605                	lui	a2,0x1
   12a8a:	76fd                	lui	a3,0xfffff
   12a8c:	24060593          	addi	a1,a2,576 # 1240 <__abi_tag-0xf078>
   12a90:	de868693          	addi	a3,a3,-536 # ffffffffffffede8 <__BSS_END__+0xfffffffffffc56d0>
   12a94:	95b6                	add	a1,a1,a3
   12a96:	0094                	addi	a3,sp,64
   12a98:	96ae                	add	a3,a3,a1
   12a9a:	777d                	lui	a4,0xfffff
   12a9c:	e436                	sd	a3,8(sp)
   12a9e:	ef870713          	addi	a4,a4,-264 # ffffffffffffeef8 <__BSS_END__+0xfffffffffffc57e0>
   12aa2:	86b2                	mv	a3,a2
   12aa4:	24060613          	addi	a2,a2,576
   12aa8:	963a                	add	a2,a2,a4
   12aaa:	0098                	addi	a4,sp,64
   12aac:	9732                	add	a4,a4,a2
   12aae:	77fd                	lui	a5,0xfffff
   12ab0:	e83a                	sd	a4,16(sp)
   12ab2:	f5878793          	addi	a5,a5,-168 # ffffffffffffef58 <__BSS_END__+0xfffffffffffc5840>
   12ab6:	24068713          	addi	a4,a3,576
   12aba:	7c02                	ld	s8,32(sp)
   12abc:	973e                	add	a4,a4,a5
   12abe:	009c                	addi	a5,sp,64
   12ac0:	97ba                	add	a5,a5,a4
   12ac2:	4c81                	li	s9,0
   12ac4:	ec3e                	sd	a5,24(sp)
   12ac6:	6d69                	lui	s10,0x1a
   12ac8:	a031                	j	12ad4 <test_scalar_stress_point_mul+0x150>
   12aca:	0c9d                	addi	s9,s9,7
   12acc:	0e0c0c13          	addi	s8,s8,224
   12ad0:	116cf263          	bgeu	s9,s6,12bd4 <test_scalar_stress_point_mul+0x250>
   12ad4:	8556                	mv	a0,s5
   12ad6:	731020ef          	jal	15a06 <sm2_get_base_affine>
   12ada:	8626                	mv	a2,s1
   12adc:	85d6                	mv	a1,s5
   12ade:	8552                	mv	a0,s4
   12ae0:	0fe050ef          	jal	17bde <sm2_scalar_mul_window_ct_schemeB_mont_to_affine>
   12ae4:	8662                	mv	a2,s8
   12ae6:	85d2                	mv	a1,s4
   12ae8:	854e                	mv	a0,s3
   12aea:	70f040ef          	jal	179f8 <sm2_scalar_mul_window_ct_schemeB_mont>
   12aee:	85a6                	mv	a1,s1
   12af0:	854a                	mv	a0,s2
   12af2:	97efe0ef          	jal	10c70 <sm2_z256_from_bytes@plt>
   12af6:	6522                	ld	a0,8(sp)
   12af8:	85e2                	mv	a1,s8
   12afa:	976fe0ef          	jal	10c70 <sm2_z256_from_bytes@plt>
   12afe:	6542                	ld	a0,16(sp)
   12b00:	85ca                	mv	a1,s2
   12b02:	95efe0ef          	jal	10c60 <sm2_z256_point_mul_generator@plt>
   12b06:	6642                	ld	a2,16(sp)
   12b08:	65a2                	ld	a1,8(sp)
   12b0a:	6562                	ld	a0,24(sp)
   12b0c:	844fe0ef          	jal	10b50 <sm2_z256_point_mul@plt>
   12b10:	6662                	ld	a2,24(sp)
   12b12:	8762                	mv	a4,s8
   12b14:	86a6                	mv	a3,s1
   12b16:	85ce                	mv	a1,s3
   12b18:	a50d0513          	addi	a0,s10,-1456 # 19a50 <_IO_stdin_used+0x2f0>
   12b1c:	b89ff0ef          	jal	126a4 <compare_self_gmssl_points>
   12b20:	f54d                	bnez	a0,12aca <test_scalar_stress_point_mul+0x146>
   12b22:	65e9                	lui	a1,0x1a
   12b24:	86e6                	mv	a3,s9
   12b26:	fffb8613          	addi	a2,s7,-1
   12b2a:	a6858593          	addi	a1,a1,-1432 # 19a68 <_IO_stdin_used+0x308>
   12b2e:	4509                	li	a0,2
   12b30:	850fe0ef          	jal	10b80 <__printf_chk@plt>
   12b34:	4581                	li	a1,0
   12b36:	6569                	lui	a0,0x1a
   12b38:	ad850513          	addi	a0,a0,-1320 # 19ad8 <_IO_stdin_used+0x378>
   12b3c:	b83fe0ef          	jal	116be <mark_result>
   12b40:	0098                	addi	a4,sp,64
   12b42:	6785                	lui	a5,0x1
   12b44:	23878793          	addi	a5,a5,568 # 1238 <__abi_tag-0xf080>
   12b48:	97ba                	add	a5,a5,a4
   12b4a:	6398                	ld	a4,0(a5)
   12b4c:	df043783          	ld	a5,-528(s0)
   12b50:	8fb9                	xor	a5,a5,a4
   12b52:	4701                	li	a4,0
   12b54:	26079b63          	bnez	a5,12dca <test_scalar_stress_point_mul+0x446>
   12b58:	6285                	lui	t0,0x1
   12b5a:	9116                	add	sp,sp,t0
   12b5c:	2d813083          	ld	ra,728(sp)
   12b60:	2d013403          	ld	s0,720(sp)
   12b64:	2c813483          	ld	s1,712(sp)
   12b68:	2c013903          	ld	s2,704(sp)
   12b6c:	2b813983          	ld	s3,696(sp)
   12b70:	2b013a03          	ld	s4,688(sp)
   12b74:	2a813a83          	ld	s5,680(sp)
   12b78:	2a013b03          	ld	s6,672(sp)
   12b7c:	29813b83          	ld	s7,664(sp)
   12b80:	29013c03          	ld	s8,656(sp)
   12b84:	28813c83          	ld	s9,648(sp)
   12b88:	28013d03          	ld	s10,640(sp)
   12b8c:	2e010113          	addi	sp,sp,736
   12b90:	8082                	ret
   12b92:	57fd                	li	a5,-1
   12b94:	eef61ae3          	bne	a2,a5,12a88 <test_scalar_stress_point_mul+0x104>
   12b98:	001587b7          	lui	a5,0x158
   12b9c:	2e378793          	addi	a5,a5,739 # 1582e3 <__BSS_END__+0x11ebcb>
   12ba0:	07b6                	slli	a5,a5,0xd
   12ba2:	21778793          	addi	a5,a5,535
   12ba6:	07b2                	slli	a5,a5,0xc
   12ba8:	bdf78793          	addi	a5,a5,-1057
   12bac:	07c2                	slli	a5,a5,0x10
   12bae:	37278793          	addi	a5,a5,882
   12bb2:	ecf59be3          	bne	a1,a5,12a88 <test_scalar_stress_point_mul+0x104>
   12bb6:	002347b7          	lui	a5,0x234
   12bba:	1d578793          	addi	a5,a5,469 # 2341d5 <__BSS_END__+0x1faabd>
   12bbe:	07b6                	slli	a5,a5,0xd
   12bc0:	72178793          	addi	a5,a5,1825
   12bc4:	07b6                	slli	a5,a5,0xd
   12bc6:	7d378793          	addi	a5,a5,2003
   12bca:	07ba                	slli	a5,a5,0xe
   12bcc:	b5378793          	addi	a5,a5,-1197
   12bd0:	eaf51ce3          	bne	a0,a5,12a88 <test_scalar_stress_point_mul+0x104>
   12bd4:	02048493          	addi	s1,s1,32
   12bd8:	001b8793          	addi	a5,s7,1
   12bdc:	016bf463          	bgeu	s7,s6,12be4 <test_scalar_stress_point_mul+0x260>
   12be0:	8bbe                	mv	s7,a5
   12be2:	bd89                	j	12a34 <test_scalar_stress_point_mul+0xb0>
   12be4:	6485                	lui	s1,0x1
   12be6:	25848893          	addi	a7,s1,600 # 1258 <__abi_tag-0xf060>
   12bea:	002889b3          	add	s3,a7,sp
   12bee:	27848893          	addi	a7,s1,632
   12bf2:	00288a33          	add	s4,a7,sp
   12bf6:	787d                	lui	a6,0xfffff
   12bf8:	24048893          	addi	a7,s1,576
   12bfc:	e0880813          	addi	a6,a6,-504 # ffffffffffffee08 <__BSS_END__+0xfffffffffffc56f0>
   12c00:	98c2                	add	a7,a7,a6
   12c02:	04010813          	addi	a6,sp,64
   12c06:	9846                	add	a6,a6,a7
   12c08:	757d                	lui	a0,0xfffff
   12c0a:	e442                	sd	a6,8(sp)
   12c0c:	e5050513          	addi	a0,a0,-432 # ffffffffffffee50 <__BSS_END__+0xfffffffffffc5738>
   12c10:	24048813          	addi	a6,s1,576
   12c14:	75fd                	lui	a1,0xfffff
   12c16:	982a                	add	a6,a6,a0
   12c18:	0088                	addi	a0,sp,64
   12c1a:	9542                	add	a0,a0,a6
   12c1c:	e9858593          	addi	a1,a1,-360 # ffffffffffffee98 <__BSS_END__+0xfffffffffffc5780>
   12c20:	e82a                	sd	a0,16(sp)
   12c22:	8526                	mv	a0,s1
   12c24:	24048493          	addi	s1,s1,576
   12c28:	767d                	lui	a2,0xfffff
   12c2a:	94ae                	add	s1,s1,a1
   12c2c:	008c                	addi	a1,sp,64
   12c2e:	95a6                	add	a1,a1,s1
   12c30:	dc860613          	addi	a2,a2,-568 # ffffffffffffedc8 <__BSS_END__+0xfffffffffffc56b0>
   12c34:	ec2e                	sd	a1,24(sp)
   12c36:	85aa                	mv	a1,a0
   12c38:	24050513          	addi	a0,a0,576
   12c3c:	76fd                	lui	a3,0xfffff
   12c3e:	9532                	add	a0,a0,a2
   12c40:	0090                	addi	a2,sp,64
   12c42:	962a                	add	a2,a2,a0
   12c44:	de868693          	addi	a3,a3,-536 # ffffffffffffede8 <__BSS_END__+0xfffffffffffc56d0>
   12c48:	f032                	sd	a2,32(sp)
   12c4a:	862e                	mv	a2,a1
   12c4c:	24058593          	addi	a1,a1,576
   12c50:	777d                	lui	a4,0xfffff
   12c52:	95b6                	add	a1,a1,a3
   12c54:	0094                	addi	a3,sp,64
   12c56:	96ae                	add	a3,a3,a1
   12c58:	ef870713          	addi	a4,a4,-264 # ffffffffffffeef8 <__BSS_END__+0xfffffffffffc57e0>
   12c5c:	f436                	sd	a3,40(sp)
   12c5e:	86b2                	mv	a3,a2
   12c60:	24060613          	addi	a2,a2,576
   12c64:	77fd                	lui	a5,0xfffff
   12c66:	963a                	add	a2,a2,a4
   12c68:	0098                	addi	a4,sp,64
   12c6a:	9732                	add	a4,a4,a2
   12c6c:	f5878793          	addi	a5,a5,-168 # ffffffffffffef58 <__BSS_END__+0xfffffffffffc5840>
   12c70:	f83a                	sd	a4,48(sp)
   12c72:	24068713          	addi	a4,a3,576
   12c76:	973e                	add	a4,a4,a5
   12c78:	009c                	addi	a5,sp,64
   12c7a:	97ba                	add	a5,a5,a4
   12c7c:	4a81                	li	s5,0
   12c7e:	fc3e                	sd	a5,56(sp)
   12c80:	6969                	lui	s2,0x1a
   12c82:	fc300493          	li	s1,-61
   12c86:	6705                	lui	a4,0x1
   12c88:	0ffaf793          	zext.b	a5,s5
   12c8c:	1f870613          	addi	a2,a4,504 # 11f8 <__abi_tag-0xf0c0>
   12c90:	0217869b          	addiw	a3,a5,33
   12c94:	0098                	addi	a4,sp,64
   12c96:	0ff6f693          	zext.b	a3,a3
   12c9a:	963a                	add	a2,a2,a4
   12c9c:	00d60023          	sb	a3,0(a2)
   12ca0:	26b5                	addiw	a3,a3,13
   12ca2:	0605                	addi	a2,a2,1
   12ca4:	0ff6f693          	zext.b	a3,a3
   12ca8:	fec99ae3          	bne	s3,a2,12c9c <test_scalar_stress_point_mul+0x318>
   12cac:	40f487bb          	subw	a5,s1,a5
   12cb0:	86ce                	mv	a3,s3
   12cb2:	0ff7f793          	zext.b	a5,a5
   12cb6:	00f68023          	sb	a5,0(a3)
   12cba:	27b5                	addiw	a5,a5,13
   12cbc:	0685                	addi	a3,a3,1
   12cbe:	0ff7f793          	zext.b	a5,a5
   12cc2:	feda1ae3          	bne	s4,a3,12cb6 <test_scalar_stress_point_mul+0x332>
   12cc6:	001af793          	andi	a5,s5,1
   12cca:	ef91                	bnez	a5,12ce6 <test_scalar_stress_point_mul+0x362>
   12ccc:	0094                	addi	a3,sp,64
   12cce:	6705                	lui	a4,0x1
   12cd0:	21770793          	addi	a5,a4,535 # 1217 <__abi_tag-0xf0a1>
   12cd4:	21770713          	addi	a4,a4,535
   12cd8:	97b6                	add	a5,a5,a3
   12cda:	9736                	add	a4,a4,a3
   12cdc:	0007c783          	lbu	a5,0(a5)
   12ce0:	9b81                	andi	a5,a5,-32
   12ce2:	00f70023          	sb	a5,0(a4)
   12ce6:	002af793          	andi	a5,s5,2
   12cea:	ef91                	bnez	a5,12d06 <test_scalar_stress_point_mul+0x382>
   12cec:	0094                	addi	a3,sp,64
   12cee:	6705                	lui	a4,0x1
   12cf0:	23770793          	addi	a5,a4,567 # 1237 <__abi_tag-0xf081>
   12cf4:	23770713          	addi	a4,a4,567
   12cf8:	97b6                	add	a5,a5,a3
   12cfa:	9736                	add	a4,a4,a3
   12cfc:	0007c783          	lbu	a5,0(a5)
   12d00:	9b81                	andi	a5,a5,-32
   12d02:	00f70023          	sb	a5,0(a4)
   12d06:	004af793          	andi	a5,s5,4
   12d0a:	ef99                	bnez	a5,12d28 <test_scalar_stress_point_mul+0x3a4>
   12d0c:	0094                	addi	a3,sp,64
   12d0e:	6705                	lui	a4,0x1
   12d10:	1f870793          	addi	a5,a4,504 # 11f8 <__abi_tag-0xf0c0>
   12d14:	1f870713          	addi	a4,a4,504
   12d18:	97b6                	add	a5,a5,a3
   12d1a:	9736                	add	a4,a4,a3
   12d1c:	0007c783          	lbu	a5,0(a5)
   12d20:	f807e793          	ori	a5,a5,-128
   12d24:	00f70023          	sb	a5,0(a4)
   12d28:	008af793          	andi	a5,s5,8
   12d2c:	ef99                	bnez	a5,12d4a <test_scalar_stress_point_mul+0x3c6>
   12d2e:	0094                	addi	a3,sp,64
   12d30:	6705                	lui	a4,0x1
   12d32:	21870793          	addi	a5,a4,536 # 1218 <__abi_tag-0xf0a0>
   12d36:	21870713          	addi	a4,a4,536
   12d3a:	97b6                	add	a5,a5,a3
   12d3c:	9736                	add	a4,a4,a3
   12d3e:	0007c783          	lbu	a5,0(a5)
   12d42:	f807e793          	ori	a5,a5,-128
   12d46:	00f70023          	sb	a5,0(a4)
   12d4a:	6522                	ld	a0,8(sp)
   12d4c:	6b05                	lui	s6,0x1
   12d4e:	4b9020ef          	jal	15a06 <sm2_get_base_affine>
   12d52:	65a2                	ld	a1,8(sp)
   12d54:	009c                	addi	a5,sp,64
   12d56:	6542                	ld	a0,16(sp)
   12d58:	1f8b0613          	addi	a2,s6,504 # 11f8 <__abi_tag-0xf0c0>
   12d5c:	963e                	add	a2,a2,a5
   12d5e:	681040ef          	jal	17bde <sm2_scalar_mul_window_ct_schemeB_mont_to_affine>
   12d62:	65c2                	ld	a1,16(sp)
   12d64:	864e                	mv	a2,s3
   12d66:	6562                	ld	a0,24(sp)
   12d68:	491040ef          	jal	179f8 <sm2_scalar_mul_window_ct_schemeB_mont>
   12d6c:	7502                	ld	a0,32(sp)
   12d6e:	009c                	addi	a5,sp,64
   12d70:	1f8b0593          	addi	a1,s6,504
   12d74:	95be                	add	a1,a1,a5
   12d76:	efbfd0ef          	jal	10c70 <sm2_z256_from_bytes@plt>
   12d7a:	7522                	ld	a0,40(sp)
   12d7c:	85ce                	mv	a1,s3
   12d7e:	ef3fd0ef          	jal	10c70 <sm2_z256_from_bytes@plt>
   12d82:	7582                	ld	a1,32(sp)
   12d84:	7542                	ld	a0,48(sp)
   12d86:	edbfd0ef          	jal	10c60 <sm2_z256_point_mul_generator@plt>
   12d8a:	7642                	ld	a2,48(sp)
   12d8c:	75a2                	ld	a1,40(sp)
   12d8e:	7562                	ld	a0,56(sp)
   12d90:	dc1fd0ef          	jal	10b50 <sm2_z256_point_mul@plt>
   12d94:	7662                	ld	a2,56(sp)
   12d96:	1f8b0693          	addi	a3,s6,504
   12d9a:	65e2                	ld	a1,24(sp)
   12d9c:	009c                	addi	a5,sp,64
   12d9e:	874e                	mv	a4,s3
   12da0:	96be                	add	a3,a3,a5
   12da2:	a9090513          	addi	a0,s2,-1392 # 19a90 <_IO_stdin_used+0x330>
   12da6:	8ffff0ef          	jal	126a4 <compare_self_gmssl_points>
   12daa:	c901                	beqz	a0,12dba <test_scalar_stress_point_mul+0x436>
   12dac:	2a85                	addiw	s5,s5,1
   12dae:	10000793          	li	a5,256
   12db2:	ecfa9ae3          	bne	s5,a5,12c86 <test_scalar_stress_point_mul+0x302>
   12db6:	4585                	li	a1,1
   12db8:	bbbd                	j	12b36 <test_scalar_stress_point_mul+0x1b2>
   12dba:	8656                	mv	a2,s5
   12dbc:	65e9                	lui	a1,0x1a
   12dbe:	ab058593          	addi	a1,a1,-1360 # 19ab0 <_IO_stdin_used+0x350>
   12dc2:	4509                	li	a0,2
   12dc4:	dbdfd0ef          	jal	10b80 <__printf_chk@plt>
   12dc8:	b3b5                	j	12b34 <test_scalar_stress_point_mul+0x1b0>
   12dca:	df7fd0ef          	jal	10bc0 <__stack_chk_fail@plt>

0000000000012dce <test_scalar_stress_generator>:
   12dce:	7161                	addi	sp,sp,-432
   12dd0:	72fd                	lui	t0,0xfffff
   12dd2:	ef26                	sd	s1,408(sp)
   12dd4:	77fd                	lui	a5,0xfffff
   12dd6:	e352                	sd	s4,384(sp)
   12dd8:	fd878793          	addi	a5,a5,-40 # ffffffffffffefd8 <__BSS_END__+0xfffffffffffc58c0>
   12ddc:	f706                	sd	ra,424(sp)
   12dde:	6485                	lui	s1,0x1
   12de0:	f322                	sd	s0,416(sp)
   12de2:	15048713          	addi	a4,s1,336 # 1150 <__abi_tag-0xf168>
   12de6:	eb4a                	sd	s2,400(sp)
   12de8:	973e                	add	a4,a4,a5
   12dea:	e74e                	sd	s3,392(sp)
   12dec:	6a75                	lui	s4,0x1d
   12dee:	fed6                	sd	s5,376(sp)
   12df0:	9116                	add	sp,sp,t0
   12df2:	101c                	addi	a5,sp,32
   12df4:	97ba                	add	a5,a5,a4
   12df6:	14848713          	addi	a4,s1,328
   12dfa:	e03e                	sd	a5,0(sp)
   12dfc:	853e                	mv	a0,a5
   12dfe:	101c                	addi	a5,sp,32
   12e00:	973e                	add	a4,a4,a5
   12e02:	df0a3783          	ld	a5,-528(s4) # 1cdf0 <__stack_chk_guard@GLIBC_2.27>
   12e06:	e31c                	sd	a5,0(a4)
   12e08:	4781                	li	a5,0
   12e0a:	9b7fe0ef          	jal	117c0 <build_stress_scalars.constprop.0>
   12e0e:	c941                	beqz	a0,12e9e <test_scalar_stress_generator+0xd0>
   12e10:	15048593          	addi	a1,s1,336
   12e14:	767d                	lui	a2,0xfffff
   12e16:	ed060613          	addi	a2,a2,-304 # ffffffffffffeed0 <__BSS_END__+0xfffffffffffc57b8>
   12e1a:	6402                	ld	s0,0(sp)
   12e1c:	95b2                	add	a1,a1,a2
   12e1e:	1010                	addi	a2,sp,32
   12e20:	962e                	add	a2,a2,a1
   12e22:	76fd                	lui	a3,0xfffff
   12e24:	e032                	sd	a2,0(sp)
   12e26:	eb068693          	addi	a3,a3,-336 # ffffffffffffeeb0 <__BSS_END__+0xfffffffffffc5798>
   12e2a:	15048613          	addi	a2,s1,336
   12e2e:	777d                	lui	a4,0xfffff
   12e30:	9636                	add	a2,a2,a3
   12e32:	1014                	addi	a3,sp,32
   12e34:	96b2                	add	a3,a3,a2
   12e36:	f1870713          	addi	a4,a4,-232 # ffffffffffffef18 <__BSS_END__+0xfffffffffffc5800>
   12e3a:	e436                	sd	a3,8(sp)
   12e3c:	15048693          	addi	a3,s1,336
   12e40:	96ba                	add	a3,a3,a4
   12e42:	1018                	addi	a4,sp,32
   12e44:	9736                	add	a4,a4,a3
   12e46:	77fd                	lui	a5,0xfffff
   12e48:	e83a                	sd	a4,16(sp)
   12e4a:	f7878793          	addi	a5,a5,-136 # ffffffffffffef78 <__BSS_END__+0xfffffffffffc5860>
   12e4e:	15048713          	addi	a4,s1,336
   12e52:	892a                	mv	s2,a0
   12e54:	973e                	add	a4,a4,a5
   12e56:	101c                	addi	a5,sp,32
   12e58:	97ba                	add	a5,a5,a4
   12e5a:	4481                	li	s1,0
   12e5c:	ec3e                	sd	a5,24(sp)
   12e5e:	69e9                	lui	s3,0x1a
   12e60:	6502                	ld	a0,0(sp)
   12e62:	3e1020ef          	jal	15a42 <sm2_get_base_affine_mont>
   12e66:	6522                	ld	a0,8(sp)
   12e68:	85a2                	mv	a1,s0
   12e6a:	e07fd0ef          	jal	10c70 <sm2_z256_from_bytes@plt>
   12e6e:	6582                	ld	a1,0(sp)
   12e70:	8622                	mv	a2,s0
   12e72:	6542                	ld	a0,16(sp)
   12e74:	741040ef          	jal	17db4 <sm2_scalar_mul_window_ct_schemeB_mont_affine_to_jacobian_mont>
   12e78:	65a2                	ld	a1,8(sp)
   12e7a:	6562                	ld	a0,24(sp)
   12e7c:	de5fd0ef          	jal	10c60 <sm2_z256_point_mul_generator@plt>
   12e80:	6662                	ld	a2,24(sp)
   12e82:	86a2                	mv	a3,s0
   12e84:	65c2                	ld	a1,16(sp)
   12e86:	af898513          	addi	a0,s3,-1288 # 19af8 <_IO_stdin_used+0x398>
   12e8a:	4701                	li	a4,0
   12e8c:	819ff0ef          	jal	126a4 <compare_self_gmssl_points>
   12e90:	12050063          	beqz	a0,12fb0 <test_scalar_stress_generator+0x1e2>
   12e94:	0485                	addi	s1,s1,1
   12e96:	02040413          	addi	s0,s0,32
   12e9a:	fc9913e3          	bne	s2,s1,12e60 <test_scalar_stress_generator+0x92>
   12e9e:	6585                	lui	a1,0x1
   12ea0:	16858513          	addi	a0,a1,360 # 1168 <__abi_tag-0xf150>
   12ea4:	00250433          	add	s0,a0,sp
   12ea8:	767d                	lui	a2,0xfffff
   12eaa:	15058513          	addi	a0,a1,336
   12eae:	ed060613          	addi	a2,a2,-304 # ffffffffffffeed0 <__BSS_END__+0xfffffffffffc57b8>
   12eb2:	9532                	add	a0,a0,a2
   12eb4:	1010                	addi	a2,sp,32
   12eb6:	962a                	add	a2,a2,a0
   12eb8:	76fd                	lui	a3,0xfffff
   12eba:	e032                	sd	a2,0(sp)
   12ebc:	eb068693          	addi	a3,a3,-336 # ffffffffffffeeb0 <__BSS_END__+0xfffffffffffc5798>
   12ec0:	862e                	mv	a2,a1
   12ec2:	15058593          	addi	a1,a1,336
   12ec6:	95b6                	add	a1,a1,a3
   12ec8:	1014                	addi	a3,sp,32
   12eca:	96ae                	add	a3,a3,a1
   12ecc:	777d                	lui	a4,0xfffff
   12ece:	e436                	sd	a3,8(sp)
   12ed0:	f1870713          	addi	a4,a4,-232 # ffffffffffffef18 <__BSS_END__+0xfffffffffffc5800>
   12ed4:	86b2                	mv	a3,a2
   12ed6:	15060613          	addi	a2,a2,336
   12eda:	963a                	add	a2,a2,a4
   12edc:	1018                	addi	a4,sp,32
   12ede:	9732                	add	a4,a4,a2
   12ee0:	77fd                	lui	a5,0xfffff
   12ee2:	e83a                	sd	a4,16(sp)
   12ee4:	f7878793          	addi	a5,a5,-136 # ffffffffffffef78 <__BSS_END__+0xfffffffffffc5860>
   12ee8:	15068713          	addi	a4,a3,336
   12eec:	4481                	li	s1,0
   12eee:	973e                	add	a4,a4,a5
   12ef0:	101c                	addi	a5,sp,32
   12ef2:	97ba                	add	a5,a5,a4
   12ef4:	6969                	lui	s2,0x1a
   12ef6:	ec3e                	sd	a5,24(sp)
   12ef8:	10000993          	li	s3,256
   12efc:	f904879b          	addiw	a5,s1,-112
   12f00:	1014                	addi	a3,sp,32
   12f02:	6705                	lui	a4,0x1
   12f04:	12870713          	addi	a4,a4,296 # 1128 <__abi_tag-0xf190>
   12f08:	9736                	add	a4,a4,a3
   12f0a:	0ff7f793          	zext.b	a5,a5
   12f0e:	00f70023          	sb	a5,0(a4)
   12f12:	27b5                	addiw	a5,a5,13
   12f14:	0705                	addi	a4,a4,1
   12f16:	0ff7f793          	zext.b	a5,a5
   12f1a:	fe871ae3          	bne	a4,s0,12f0e <test_scalar_stress_generator+0x140>
   12f1e:	0034f793          	andi	a5,s1,3
   12f22:	ef91                	bnez	a5,12f3e <test_scalar_stress_generator+0x170>
   12f24:	1014                	addi	a3,sp,32
   12f26:	6705                	lui	a4,0x1
   12f28:	14770793          	addi	a5,a4,327 # 1147 <__abi_tag-0xf171>
   12f2c:	14770713          	addi	a4,a4,327
   12f30:	97b6                	add	a5,a5,a3
   12f32:	9736                	add	a4,a4,a3
   12f34:	0007c783          	lbu	a5,0(a5)
   12f38:	9b81                	andi	a5,a5,-32
   12f3a:	00f70023          	sb	a5,0(a4)
   12f3e:	0074f793          	andi	a5,s1,7
   12f42:	ef99                	bnez	a5,12f60 <test_scalar_stress_generator+0x192>
   12f44:	1014                	addi	a3,sp,32
   12f46:	6705                	lui	a4,0x1
   12f48:	12870793          	addi	a5,a4,296 # 1128 <__abi_tag-0xf190>
   12f4c:	12870713          	addi	a4,a4,296
   12f50:	97b6                	add	a5,a5,a3
   12f52:	9736                	add	a4,a4,a3
   12f54:	0007c783          	lbu	a5,0(a5)
   12f58:	f807e793          	ori	a5,a5,-128
   12f5c:	00f70023          	sb	a5,0(a4)
   12f60:	6502                	ld	a0,0(sp)
   12f62:	6a85                	lui	s5,0x1
   12f64:	2df020ef          	jal	15a42 <sm2_get_base_affine_mont>
   12f68:	6522                	ld	a0,8(sp)
   12f6a:	101c                	addi	a5,sp,32
   12f6c:	128a8593          	addi	a1,s5,296 # 1128 <__abi_tag-0xf190>
   12f70:	95be                	add	a1,a1,a5
   12f72:	cfffd0ef          	jal	10c70 <sm2_z256_from_bytes@plt>
   12f76:	6582                	ld	a1,0(sp)
   12f78:	101c                	addi	a5,sp,32
   12f7a:	6542                	ld	a0,16(sp)
   12f7c:	128a8613          	addi	a2,s5,296
   12f80:	963e                	add	a2,a2,a5
   12f82:	633040ef          	jal	17db4 <sm2_scalar_mul_window_ct_schemeB_mont_affine_to_jacobian_mont>
   12f86:	65a2                	ld	a1,8(sp)
   12f88:	6562                	ld	a0,24(sp)
   12f8a:	cd7fd0ef          	jal	10c60 <sm2_z256_point_mul_generator@plt>
   12f8e:	6662                	ld	a2,24(sp)
   12f90:	128a8693          	addi	a3,s5,296
   12f94:	65c2                	ld	a1,16(sp)
   12f96:	101c                	addi	a5,sp,32
   12f98:	96be                	add	a3,a3,a5
   12f9a:	b3890513          	addi	a0,s2,-1224 # 19b38 <_IO_stdin_used+0x3d8>
   12f9e:	4701                	li	a4,0
   12fa0:	f04ff0ef          	jal	126a4 <compare_self_gmssl_points>
   12fa4:	c929                	beqz	a0,12ff6 <test_scalar_stress_generator+0x228>
   12fa6:	2485                	addiw	s1,s1,1
   12fa8:	f5349ae3          	bne	s1,s3,12efc <test_scalar_stress_generator+0x12e>
   12fac:	4585                	li	a1,1
   12fae:	a809                	j	12fc0 <test_scalar_stress_generator+0x1f2>
   12fb0:	65e9                	lui	a1,0x1a
   12fb2:	8626                	mv	a2,s1
   12fb4:	b1858593          	addi	a1,a1,-1256 # 19b18 <_IO_stdin_used+0x3b8>
   12fb8:	4509                	li	a0,2
   12fba:	bc7fd0ef          	jal	10b80 <__printf_chk@plt>
   12fbe:	4581                	li	a1,0
   12fc0:	6569                	lui	a0,0x1a
   12fc2:	b8850513          	addi	a0,a0,-1144 # 19b88 <_IO_stdin_used+0x428>
   12fc6:	ef8fe0ef          	jal	116be <mark_result>
   12fca:	1018                	addi	a4,sp,32
   12fcc:	6785                	lui	a5,0x1
   12fce:	14878793          	addi	a5,a5,328 # 1148 <__abi_tag-0xf170>
   12fd2:	97ba                	add	a5,a5,a4
   12fd4:	6398                	ld	a4,0(a5)
   12fd6:	df0a3783          	ld	a5,-528(s4)
   12fda:	8fb9                	xor	a5,a5,a4
   12fdc:	4701                	li	a4,0
   12fde:	e785                	bnez	a5,13006 <test_scalar_stress_generator+0x238>
   12fe0:	6285                	lui	t0,0x1
   12fe2:	9116                	add	sp,sp,t0
   12fe4:	70ba                	ld	ra,424(sp)
   12fe6:	741a                	ld	s0,416(sp)
   12fe8:	64fa                	ld	s1,408(sp)
   12fea:	695a                	ld	s2,400(sp)
   12fec:	69ba                	ld	s3,392(sp)
   12fee:	6a1a                	ld	s4,384(sp)
   12ff0:	7af6                	ld	s5,376(sp)
   12ff2:	615d                	addi	sp,sp,432
   12ff4:	8082                	ret
   12ff6:	8626                	mv	a2,s1
   12ff8:	65e9                	lui	a1,0x1a
   12ffa:	b6058593          	addi	a1,a1,-1184 # 19b60 <_IO_stdin_used+0x400>
   12ffe:	4509                	li	a0,2
   13000:	b81fd0ef          	jal	10b80 <__printf_chk@plt>
   13004:	bf6d                	j	12fbe <test_scalar_stress_generator+0x1f0>
   13006:	bbbfd0ef          	jal	10bc0 <__stack_chk_fail@plt>

000000000001300a <fp_mont_reduce>:
   1300a:	6198                	ld	a4,0(a1)
   1300c:	587d                	li	a6,-1
   1300e:	02081e13          	slli	t3,a6,0x20
   13012:	659c                	ld	a5,8(a1)
   13014:	6990                	ld	a2,16(a1)
   13016:	2a001893          	bseti	a7,zero,0x20
   1301a:	03c70333          	mul	t1,a4,t3
   1301e:	fff8c893          	not	a7,a7
   13022:	03c73f33          	mulhu	t5,a4,t3
   13026:	40e00e33          	neg	t3,a4
   1302a:	8e19                	sub	a2,a2,a4
   1302c:	03073eb3          	mulhu	t4,a4,a6
   13030:	03170833          	mul	a6,a4,a7
   13034:	6d94                	ld	a3,24(a1)
   13036:	979a                	add	a5,a5,t1
   13038:	031738b3          	mulhu	a7,a4,a7
   1303c:	0067b333          	sltu	t1,a5,t1
   13040:	973e                	add	a4,a4,a5
   13042:	937a                	add	t1,t1,t5
   13044:	00f737b3          	sltu	a5,a4,a5
   13048:	979a                	add	a5,a5,t1
   1304a:	01c63e33          	sltu	t3,a2,t3
   1304e:	97b2                	add	a5,a5,a2
   13050:	01de0333          	add	t1,t3,t4
   13054:	00c7b633          	sltu	a2,a5,a2
   13058:	96c2                	add	a3,a3,a6
   1305a:	961a                	add	a2,a2,t1
   1305c:	1101                	addi	sp,sp,-32
   1305e:	0106b833          	sltu	a6,a3,a6
   13062:	9636                	add	a2,a2,a3
   13064:	ec22                	sd	s0,24(sp)
   13066:	9846                	add	a6,a6,a7
   13068:	e826                	sd	s1,16(sp)
   1306a:	00d636b3          	sltu	a3,a2,a3
   1306e:	e44a                	sd	s2,8(sp)
   13070:	96c2                	add	a3,a3,a6
   13072:	0005b023          	sd	zero,0(a1)
   13076:	e598                	sd	a4,8(a1)
   13078:	e99c                	sd	a5,16(a1)
   1307a:	ed90                	sd	a2,24(a1)
   1307c:	c2a1                	beqz	a3,130bc <fp_mont_reduce+0xb2>
   1307e:	0205b803          	ld	a6,32(a1)
   13082:	9836                	add	a6,a6,a3
   13084:	0305b023          	sd	a6,32(a1)
   13088:	02d87a63          	bgeu	a6,a3,130bc <fp_mont_reduce+0xb2>
   1308c:	7594                	ld	a3,40(a1)
   1308e:	00168813          	addi	a6,a3,1
   13092:	0305b423          	sd	a6,40(a1)
   13096:	02d87363          	bgeu	a6,a3,130bc <fp_mont_reduce+0xb2>
   1309a:	7994                	ld	a3,48(a1)
   1309c:	00168813          	addi	a6,a3,1
   130a0:	0305b823          	sd	a6,48(a1)
   130a4:	00d87c63          	bgeu	a6,a3,130bc <fp_mont_reduce+0xb2>
   130a8:	7d94                	ld	a3,56(a1)
   130aa:	00168813          	addi	a6,a3,1
   130ae:	0305bc23          	sd	a6,56(a1)
   130b2:	00d87563          	bgeu	a6,a3,130bc <fp_mont_reduce+0xb2>
   130b6:	61b4                	ld	a3,64(a1)
   130b8:	0685                	addi	a3,a3,1
   130ba:	e1b4                	sd	a3,64(a1)
   130bc:	587d                	li	a6,-1
   130be:	02081893          	slli	a7,a6,0x20
   130c2:	03170333          	mul	t1,a4,a7
   130c6:	00f706b3          	add	a3,a4,a5
   130ca:	03173f33          	mulhu	t5,a4,a7
   130ce:	00e6bfb3          	sltu	t6,a3,a4
   130d2:	02e838b3          	mulhu	a7,a6,a4
   130d6:	2a001e93          	bseti	t4,zero,0x20
   130da:	fffece93          	not	t4,t4
   130de:	40e607b3          	sub	a5,a2,a4
   130e2:	9336                	add	t1,t1,a3
   130e4:	03d70e33          	mul	t3,a4,t4
   130e8:	00d336b3          	sltu	a3,t1,a3
   130ec:	9f7e                	add	t5,t5,t6
   130ee:	0205b803          	ld	a6,32(a1)
   130f2:	96fa                	add	a3,a3,t5
   130f4:	96be                	add	a3,a3,a5
   130f6:	00c7b633          	sltu	a2,a5,a2
   130fa:	03d73733          	mulhu	a4,a4,t4
   130fe:	00f6b7b3          	sltu	a5,a3,a5
   13102:	98b2                	add	a7,a7,a2
   13104:	9872                	add	a6,a6,t3
   13106:	97c6                	add	a5,a5,a7
   13108:	01c83e33          	sltu	t3,a6,t3
   1310c:	97c2                	add	a5,a5,a6
   1310e:	0005b423          	sd	zero,8(a1)
   13112:	9e3a                	add	t3,t3,a4
   13114:	0107b833          	sltu	a6,a5,a6
   13118:	0065b823          	sd	t1,16(a1)
   1311c:	9872                	add	a6,a6,t3
   1311e:	ed94                	sd	a3,24(a1)
   13120:	f19c                	sd	a5,32(a1)
   13122:	02080663          	beqz	a6,1314e <fp_mont_reduce+0x144>
   13126:	7598                	ld	a4,40(a1)
   13128:	9742                	add	a4,a4,a6
   1312a:	f598                	sd	a4,40(a1)
   1312c:	03077163          	bgeu	a4,a6,1314e <fp_mont_reduce+0x144>
   13130:	7998                	ld	a4,48(a1)
   13132:	00170613          	addi	a2,a4,1
   13136:	f990                	sd	a2,48(a1)
   13138:	00e67b63          	bgeu	a2,a4,1314e <fp_mont_reduce+0x144>
   1313c:	7d98                	ld	a4,56(a1)
   1313e:	00170613          	addi	a2,a4,1
   13142:	fd90                	sd	a2,56(a1)
   13144:	00e67563          	bgeu	a2,a4,1314e <fp_mont_reduce+0x144>
   13148:	61b8                	ld	a4,64(a1)
   1314a:	0705                	addi	a4,a4,1
   1314c:	e1b8                	sd	a4,64(a1)
   1314e:	577d                	li	a4,-1
   13150:	02071813          	slli	a6,a4,0x20
   13154:	03030633          	mul	a2,t1,a6
   13158:	2a001f13          	bseti	t5,zero,0x20
   1315c:	03033fb3          	mulhu	t6,t1,a6
   13160:	ffff4f13          	not	t5,t5
   13164:	02673eb3          	mulhu	t4,a4,t1
   13168:	406787b3          	sub	a5,a5,t1
   1316c:	03e308b3          	mul	a7,t1,t5
   13170:	0285b803          	ld	a6,40(a1)
   13174:	00d60733          	add	a4,a2,a3
   13178:	40600e33          	neg	t3,t1
   1317c:	006706b3          	add	a3,a4,t1
   13180:	00c73633          	sltu	a2,a4,a2
   13184:	967e                	add	a2,a2,t6
   13186:	00e6b733          	sltu	a4,a3,a4
   1318a:	9732                	add	a4,a4,a2
   1318c:	03e33633          	mulhu	a2,t1,t5
   13190:	973e                	add	a4,a4,a5
   13192:	01c7b333          	sltu	t1,a5,t3
   13196:	9376                	add	t1,t1,t4
   13198:	00f737b3          	sltu	a5,a4,a5
   1319c:	9846                	add	a6,a6,a7
   1319e:	979a                	add	a5,a5,t1
   131a0:	97c2                	add	a5,a5,a6
   131a2:	011838b3          	sltu	a7,a6,a7
   131a6:	98b2                	add	a7,a7,a2
   131a8:	0107b833          	sltu	a6,a5,a6
   131ac:	0005b823          	sd	zero,16(a1)
   131b0:	9846                	add	a6,a6,a7
   131b2:	ed94                	sd	a3,24(a1)
   131b4:	f198                	sd	a4,32(a1)
   131b6:	f59c                	sd	a5,40(a1)
   131b8:	02080163          	beqz	a6,131da <fp_mont_reduce+0x1d0>
   131bc:	7990                	ld	a2,48(a1)
   131be:	9642                	add	a2,a2,a6
   131c0:	f990                	sd	a2,48(a1)
   131c2:	01067c63          	bgeu	a2,a6,131da <fp_mont_reduce+0x1d0>
   131c6:	7d90                	ld	a2,56(a1)
   131c8:	00160813          	addi	a6,a2,1
   131cc:	0305bc23          	sd	a6,56(a1)
   131d0:	00c87563          	bgeu	a6,a2,131da <fp_mont_reduce+0x1d0>
   131d4:	61b0                	ld	a2,64(a1)
   131d6:	0605                	addi	a2,a2,1
   131d8:	e1b0                	sd	a2,64(a1)
   131da:	567d                	li	a2,-1
   131dc:	02061813          	slli	a6,a2,0x20
   131e0:	03068333          	mul	t1,a3,a6
   131e4:	2a001f13          	bseti	t5,zero,0x20
   131e8:	0306bfb3          	mulhu	t6,a3,a6
   131ec:	ffff4f13          	not	t5,t5
   131f0:	02d63eb3          	mulhu	t4,a2,a3
   131f4:	8f95                	sub	a5,a5,a3
   131f6:	03e68833          	mul	a6,a3,t5
   131fa:	7990                	ld	a2,48(a1)
   131fc:	971a                	add	a4,a4,t1
   131fe:	40d00e33          	neg	t3,a3
   13202:	00d708b3          	add	a7,a4,a3
   13206:	00673333          	sltu	t1,a4,t1
   1320a:	937e                	add	t1,t1,t6
   1320c:	00e8b733          	sltu	a4,a7,a4
   13210:	971a                	add	a4,a4,t1
   13212:	03e6b6b3          	mulhu	a3,a3,t5
   13216:	973e                	add	a4,a4,a5
   13218:	01c7b333          	sltu	t1,a5,t3
   1321c:	9376                	add	t1,t1,t4
   1321e:	00f737b3          	sltu	a5,a4,a5
   13222:	9642                	add	a2,a2,a6
   13224:	979a                	add	a5,a5,t1
   13226:	97b2                	add	a5,a5,a2
   13228:	01063833          	sltu	a6,a2,a6
   1322c:	9836                	add	a6,a6,a3
   1322e:	00c7b633          	sltu	a2,a5,a2
   13232:	0005bc23          	sd	zero,24(a1)
   13236:	9642                	add	a2,a2,a6
   13238:	0315b023          	sd	a7,32(a1)
   1323c:	f598                	sd	a4,40(a1)
   1323e:	f99c                	sd	a5,48(a1)
   13240:	ca09                	beqz	a2,13252 <fp_mont_reduce+0x248>
   13242:	7d9c                	ld	a5,56(a1)
   13244:	97b2                	add	a5,a5,a2
   13246:	fd9c                	sd	a5,56(a1)
   13248:	00c7f563          	bgeu	a5,a2,13252 <fp_mont_reduce+0x248>
   1324c:	61bc                	ld	a5,64(a1)
   1324e:	0785                	addi	a5,a5,1
   13250:	e1bc                	sd	a5,64(a1)
   13252:	01153023          	sd	a7,0(a0)
   13256:	2a001813          	bseti	a6,zero,0x20
   1325a:	7590                	ld	a2,40(a1)
   1325c:	5efd                	li	t4,-1
   1325e:	1e82                	slli	t4,t4,0x20
   13260:	2a001713          	bseti	a4,zero,0x20
   13264:	0705                	addi	a4,a4,1
   13266:	2a001793          	bseti	a5,zero,0x20
   1326a:	e510                	sd	a2,8(a0)
   1326c:	fff7c793          	not	a5,a5
   13270:	0305b283          	ld	t0,48(a1)
   13274:	00553823          	sd	t0,16(a0)
   13278:	0385b383          	ld	t2,56(a1)
   1327c:	00753c23          	sd	t2,24(a0)
   13280:	61b4                	ld	a3,64(a1)
   13282:	8a85                	andi	a3,a3,1
   13284:	00d88fb3          	add	t6,a7,a3
   13288:	40d006b3          	neg	a3,a3
   1328c:	08c6833b          	add.uw	t1,a3,a2
   13290:	011fb8b3          	sltu	a7,t6,a7
   13294:	011305b3          	add	a1,t1,a7
   13298:	001f8f13          	addi	t5,t6,1
   1329c:	00c33633          	sltu	a2,t1,a2
   132a0:	0065b333          	sltu	t1,a1,t1
   132a4:	01e03433          	snez	s0,t5
   132a8:	01058e33          	add	t3,a1,a6
   132ac:	00666633          	or	a2,a2,t1
   132b0:	008e38b3          	sltu	a7,t3,s0
   132b4:	01d5b333          	sltu	t1,a1,t4
   132b8:	0ff67613          	zext.b	a2,a2
   132bc:	9616                	add	a2,a2,t0
   132be:	011368b3          	or	a7,t1,a7
   132c2:	00160493          	addi	s1,a2,1
   132c6:	0ff8f313          	zext.b	t1,a7
   132ca:	0106f6b3          	and	a3,a3,a6
   132ce:	0064b8b3          	sltu	a7,s1,t1
   132d2:	005632b3          	sltu	t0,a2,t0
   132d6:	969e                	add	a3,a3,t2
   132d8:	009033b3          	snez	t2,s1
   132dc:	9696                	add	a3,a3,t0
   132de:	0113e3b3          	or	t2,t2,a7
   132e2:	00e682b3          	add	t0,a3,a4
   132e6:	0ff3f393          	zext.b	t2,t2
   132ea:	00f6b8b3          	sltu	a7,a3,a5
   132ee:	0072b933          	sltu	s2,t0,t2
   132f2:	407282b3          	sub	t0,t0,t2
   132f6:	0128e8b3          	or	a7,a7,s2
   132fa:	408e0e33          	sub	t3,t3,s0
   132fe:	0018c893          	xori	a7,a7,1
   13302:	40648333          	sub	t1,s1,t1
   13306:	0ff8f893          	zext.b	a7,a7
   1330a:	64c2                	ld	s1,16(sp)
   1330c:	411003b3          	neg	t2,a7
   13310:	18fd                	addi	a7,a7,-1
   13312:	011fffb3          	and	t6,t6,a7
   13316:	007f7f33          	and	t5,t5,t2
   1331a:	0115f5b3          	and	a1,a1,a7
   1331e:	01ff6f33          	or	t5,t5,t6
   13322:	007e7e33          	and	t3,t3,t2
   13326:	001f0f93          	addi	t6,t5,1
   1332a:	00be6e33          	or	t3,t3,a1
   1332e:	01f03433          	snez	s0,t6
   13332:	9872                	add	a6,a6,t3
   13334:	01167633          	and	a2,a2,a7
   13338:	01de35b3          	sltu	a1,t3,t4
   1333c:	00737333          	and	t1,t1,t2
   13340:	00883eb3          	sltu	t4,a6,s0
   13344:	00c36333          	or	t1,t1,a2
   13348:	01d5e5b3          	or	a1,a1,t4
   1334c:	00130613          	addi	a2,t1,1
   13350:	0ff5f593          	zext.b	a1,a1
   13354:	0072f2b3          	and	t0,t0,t2
   13358:	0116f6b3          	and	a3,a3,a7
   1335c:	00b633b3          	sltu	t2,a2,a1
   13360:	00c03eb3          	snez	t4,a2
   13364:	00d2e8b3          	or	a7,t0,a3
   13368:	007eeeb3          	or	t4,t4,t2
   1336c:	9746                	add	a4,a4,a7
   1336e:	0ffefe93          	zext.b	t4,t4
   13372:	00f8b7b3          	sltu	a5,a7,a5
   13376:	01d736b3          	sltu	a3,a4,t4
   1337a:	40880833          	sub	a6,a6,s0
   1337e:	8fd5                	or	a5,a5,a3
   13380:	41d70733          	sub	a4,a4,t4
   13384:	0017c793          	xori	a5,a5,1
   13388:	40b606b3          	sub	a3,a2,a1
   1338c:	0ff7f793          	zext.b	a5,a5
   13390:	6462                	ld	s0,24(sp)
   13392:	40f005b3          	neg	a1,a5
   13396:	17fd                	addi	a5,a5,-1
   13398:	01e7ff33          	and	t5,a5,t5
   1339c:	01c7fe33          	and	t3,a5,t3
   133a0:	0067f333          	and	t1,a5,t1
   133a4:	00bfffb3          	and	t6,t6,a1
   133a8:	00b87633          	and	a2,a6,a1
   133ac:	8eed                	and	a3,a3,a1
   133ae:	8f6d                	and	a4,a4,a1
   133b0:	0117f7b3          	and	a5,a5,a7
   133b4:	01efefb3          	or	t6,t6,t5
   133b8:	01c66633          	or	a2,a2,t3
   133bc:	0066e6b3          	or	a3,a3,t1
   133c0:	8fd9                	or	a5,a5,a4
   133c2:	01f53023          	sd	t6,0(a0)
   133c6:	6922                	ld	s2,8(sp)
   133c8:	e510                	sd	a2,8(a0)
   133ca:	e914                	sd	a3,16(a0)
   133cc:	ed1c                	sd	a5,24(a0)
   133ce:	6105                	addi	sp,sp,32
   133d0:	8082                	ret

00000000000133d2 <fp_cmp>:
   133d2:	01853303          	ld	t1,24(a0)
   133d6:	6d9c                	ld	a5,24(a1)
   133d8:	6998                	ld	a4,16(a1)
   133da:	01053803          	ld	a6,16(a0)
   133de:	406786b3          	sub	a3,a5,t1
   133e2:	6510                	ld	a2,8(a0)
   133e4:	0016b693          	seqz	a3,a3
   133e8:	0085be03          	ld	t3,8(a1)
   133ec:	010738b3          	sltu	a7,a4,a6
   133f0:	00e83833          	sltu	a6,a6,a4
   133f4:	0116f8b3          	and	a7,a3,a7
   133f8:	0067b733          	sltu	a4,a5,t1
   133fc:	0106f6b3          	and	a3,a3,a6
   13400:	00f337b3          	sltu	a5,t1,a5
   13404:	01176733          	or	a4,a4,a7
   13408:	8fd5                	or	a5,a5,a3
   1340a:	00e7e6b3          	or	a3,a5,a4
   1340e:	00ce38b3          	sltu	a7,t3,a2
   13412:	01c63833          	sltu	a6,a2,t3
   13416:	0016c693          	xori	a3,a3,1
   1341a:	6110                	ld	a2,0(a0)
   1341c:	0116f533          	and	a0,a3,a7
   13420:	618c                	ld	a1,0(a1)
   13422:	0106f6b3          	and	a3,a3,a6
   13426:	8fd5                	or	a5,a5,a3
   13428:	8d59                	or	a0,a0,a4
   1342a:	00a7e733          	or	a4,a5,a0
   1342e:	00c5b6b3          	sltu	a3,a1,a2
   13432:	00174713          	xori	a4,a4,1
   13436:	00b63633          	sltu	a2,a2,a1
   1343a:	8ef9                	and	a3,a3,a4
   1343c:	8f71                	and	a4,a4,a2
   1343e:	8d55                	or	a0,a0,a3
   13440:	8fd9                	or	a5,a5,a4
   13442:	9d1d                	subw	a0,a0,a5
   13444:	8082                	ret

0000000000013446 <fp_copy>:
   13446:	6190                	ld	a2,0(a1)
   13448:	6594                	ld	a3,8(a1)
   1344a:	6998                	ld	a4,16(a1)
   1344c:	6d9c                	ld	a5,24(a1)
   1344e:	e110                	sd	a2,0(a0)
   13450:	e514                	sd	a3,8(a0)
   13452:	e918                	sd	a4,16(a0)
   13454:	ed1c                	sd	a5,24(a0)
   13456:	8082                	ret

0000000000013458 <fp_set_zero>:
   13458:	00053023          	sd	zero,0(a0)
   1345c:	00053423          	sd	zero,8(a0)
   13460:	00053823          	sd	zero,16(a0)
   13464:	00053c23          	sd	zero,24(a0)
   13468:	8082                	ret

000000000001346a <fp_set_one>:
   1346a:	4785                	li	a5,1
   1346c:	00053423          	sd	zero,8(a0)
   13470:	e11c                	sd	a5,0(a0)
   13472:	00053823          	sd	zero,16(a0)
   13476:	00053c23          	sd	zero,24(a0)
   1347a:	8082                	ret

000000000001347c <fp_is_zero>:
   1347c:	611c                	ld	a5,0(a0)
   1347e:	6510                	ld	a2,8(a0)
   13480:	6914                	ld	a3,16(a0)
   13482:	6d18                	ld	a4,24(a0)
   13484:	00c7e533          	or	a0,a5,a2
   13488:	8d55                	or	a0,a0,a3
   1348a:	8d59                	or	a0,a0,a4
   1348c:	00153513          	seqz	a0,a0
   13490:	8082                	ret

0000000000013492 <fp_is_equal>:
   13492:	6198                	ld	a4,0(a1)
   13494:	611c                	ld	a5,0(a0)
   13496:	6510                	ld	a2,8(a0)
   13498:	0085b883          	ld	a7,8(a1)
   1349c:	6914                	ld	a3,16(a0)
   1349e:	8fb9                	xor	a5,a5,a4
   134a0:	0105b803          	ld	a6,16(a1)
   134a4:	6d18                	ld	a4,24(a0)
   134a6:	01164633          	xor	a2,a2,a7
   134aa:	6d8c                	ld	a1,24(a1)
   134ac:	00c7e533          	or	a0,a5,a2
   134b0:	0106c7b3          	xor	a5,a3,a6
   134b4:	8d5d                	or	a0,a0,a5
   134b6:	00b747b3          	xor	a5,a4,a1
   134ba:	8d5d                	or	a0,a0,a5
   134bc:	00153513          	seqz	a0,a0
   134c0:	8082                	ret

00000000000134c2 <fp_from_bytes>:
   134c2:	711d                	addi	sp,sp,-96
   134c4:	6875                	lui	a6,0x1d
   134c6:	e8a2                	sd	s0,80(sp)
   134c8:	df083783          	ld	a5,-528(a6) # 1cdf0 <__stack_chk_guard@GLIBC_2.27>
   134cc:	f43e                	sd	a5,40(sp)
   134ce:	4781                	li	a5,0
   134d0:	fc4e                	sd	s3,56(sp)
   134d2:	ec86                	sd	ra,88(sp)
   134d4:	e4a6                	sd	s1,72(sp)
   134d6:	e0ca                	sd	s2,64(sp)
   134d8:	f852                	sd	s4,48(sp)
   134da:	0185c783          	lbu	a5,24(a1)
   134de:	0195c883          	lbu	a7,25(a1)
   134e2:	0105c683          	lbu	a3,16(a1)
   134e6:	0115c603          	lbu	a2,17(a1)
   134ea:	07a2                	slli	a5,a5,0x8
   134ec:	01a5cf83          	lbu	t6,26(a1)
   134f0:	0117e7b3          	or	a5,a5,a7
   134f4:	0085c703          	lbu	a4,8(a1)
   134f8:	06a2                	slli	a3,a3,0x8
   134fa:	0125c883          	lbu	a7,18(a1)
   134fe:	8ed1                	or	a3,a3,a2
   13500:	0095c283          	lbu	t0,9(a1)
   13504:	07a2                	slli	a5,a5,0x8
   13506:	0135c303          	lbu	t1,19(a1)
   1350a:	06a2                	slli	a3,a3,0x8
   1350c:	01b5ce83          	lbu	t4,27(a1)
   13510:	00ffefb3          	or	t6,t6,a5
   13514:	00a5c603          	lbu	a2,10(a1)
   13518:	00d8e6b3          	or	a3,a7,a3
   1351c:	0722                	slli	a4,a4,0x8
   1351e:	0005c783          	lbu	a5,0(a1)
   13522:	0145c883          	lbu	a7,20(a1)
   13526:	0fa2                	slli	t6,t6,0x8
   13528:	00576733          	or	a4,a4,t0
   1352c:	06a2                	slli	a3,a3,0x8
   1352e:	0015cf03          	lbu	t5,1(a1)
   13532:	01feeeb3          	or	t4,t4,t6
   13536:	01c5ce03          	lbu	t3,28(a1)
   1353a:	00d366b3          	or	a3,t1,a3
   1353e:	0722                	slli	a4,a4,0x8
   13540:	008e9313          	slli	t1,t4,0x8
   13544:	8e59                	or	a2,a2,a4
   13546:	0155ce83          	lbu	t4,21(a1)
   1354a:	00869713          	slli	a4,a3,0x8
   1354e:	00b5ca03          	lbu	s4,11(a1)
   13552:	01d5c903          	lbu	s2,29(a1)
   13556:	00e8e8b3          	or	a7,a7,a4
   1355a:	0025c483          	lbu	s1,2(a1)
   1355e:	07a2                	slli	a5,a5,0x8
   13560:	006e6e33          	or	t3,t3,t1
   13564:	01e7e7b3          	or	a5,a5,t5
   13568:	08a2                	slli	a7,a7,0x8
   1356a:	0035c283          	lbu	t0,3(a1)
   1356e:	0045c683          	lbu	a3,4(a1)
   13572:	0622                	slli	a2,a2,0x8
   13574:	0065c703          	lbu	a4,6(a1)
   13578:	0e22                	slli	t3,t3,0x8
   1357a:	0055cf03          	lbu	t5,5(a1)
   1357e:	07a2                	slli	a5,a5,0x8
   13580:	0075cf83          	lbu	t6,7(a1)
   13584:	011eeeb3          	or	t4,t4,a7
   13588:	00c5c383          	lbu	t2,12(a1)
   1358c:	00ca6a33          	or	s4,s4,a2
   13590:	01e5c883          	lbu	a7,30(a1)
   13594:	01c96933          	or	s2,s2,t3
   13598:	8cdd                	or	s1,s1,a5
   1359a:	0165c783          	lbu	a5,22(a1)
   1359e:	00d5c303          	lbu	t1,13(a1)
   135a2:	0a22                	slli	s4,s4,0x8
   135a4:	01f5c983          	lbu	s3,31(a1)
   135a8:	0922                	slli	s2,s2,0x8
   135aa:	00e5c603          	lbu	a2,14(a1)
   135ae:	0ea2                	slli	t4,t4,0x8
   135b0:	00f5ce03          	lbu	t3,15(a1)
   135b4:	0128e8b3          	or	a7,a7,s2
   135b8:	0175c403          	lbu	s0,23(a1)
   135bc:	0143e3b3          	or	t2,t2,s4
   135c0:	00849593          	slli	a1,s1,0x8
   135c4:	03a2                	slli	t2,t2,0x8
   135c6:	00b2e5b3          	or	a1,t0,a1
   135ca:	01d7e2b3          	or	t0,a5,t4
   135ce:	00889793          	slli	a5,a7,0x8
   135d2:	02a2                	slli	t0,t0,0x8
   135d4:	00f9eeb3          	or	t4,s3,a5
   135d8:	05a2                	slli	a1,a1,0x8
   135da:	007367b3          	or	a5,t1,t2
   135de:	005468b3          	or	a7,s0,t0
   135e2:	001e8313          	addi	t1,t4,1
   135e6:	8dd5                	or	a1,a1,a3
   135e8:	07a2                	slli	a5,a5,0x8
   135ea:	006032b3          	snez	t0,t1
   135ee:	05a2                	slli	a1,a1,0x8
   135f0:	8fd1                	or	a5,a5,a2
   135f2:	2a001693          	bseti	a3,zero,0x20
   135f6:	567d                	li	a2,-1
   135f8:	96c6                	add	a3,a3,a7
   135fa:	1602                	slli	a2,a2,0x20
   135fc:	00c8b633          	sltu	a2,a7,a2
   13600:	00bf6f33          	or	t5,t5,a1
   13604:	07a2                	slli	a5,a5,0x8
   13606:	0056b5b3          	sltu	a1,a3,t0
   1360a:	00fe6e33          	or	t3,t3,a5
   1360e:	0f22                	slli	t5,t5,0x8
   13610:	00b667b3          	or	a5,a2,a1
   13614:	001e0593          	addi	a1,t3,1
   13618:	0ff7f613          	zext.b	a2,a5
   1361c:	01e767b3          	or	a5,a4,t5
   13620:	07a2                	slli	a5,a5,0x8
   13622:	00c5b733          	sltu	a4,a1,a2
   13626:	00b03f33          	snez	t5,a1
   1362a:	00ffefb3          	or	t6,t6,a5
   1362e:	00ef6f33          	or	t5,t5,a4
   13632:	2a001793          	bseti	a5,zero,0x20
   13636:	0785                	addi	a5,a5,1
   13638:	0fff7f13          	zext.b	t5,t5
   1363c:	00ff8733          	add	a4,t6,a5
   13640:	2a001793          	bseti	a5,zero,0x20
   13644:	fff7c793          	not	a5,a5
   13648:	01e733b3          	sltu	t2,a4,t5
   1364c:	00ffb7b3          	sltu	a5,t6,a5
   13650:	40c58633          	sub	a2,a1,a2
   13654:	0077e7b3          	or	a5,a5,t2
   13658:	405686b3          	sub	a3,a3,t0
   1365c:	0017c793          	xori	a5,a5,1
   13660:	41e70733          	sub	a4,a4,t5
   13664:	0ff7f793          	zext.b	a5,a5
   13668:	40f005b3          	neg	a1,a5
   1366c:	17fd                	addi	a5,a5,-1
   1366e:	00b37333          	and	t1,t1,a1
   13672:	01d7feb3          	and	t4,a5,t4
   13676:	8eed                	and	a3,a3,a1
   13678:	0117f8b3          	and	a7,a5,a7
   1367c:	8e6d                	and	a2,a2,a1
   1367e:	01c7fe33          	and	t3,a5,t3
   13682:	8f6d                	and	a4,a4,a1
   13684:	01f7f7b3          	and	a5,a5,t6
   13688:	8f5d                	or	a4,a4,a5
   1368a:	01d36333          	or	t1,t1,t4
   1368e:	0116e6b3          	or	a3,a3,a7
   13692:	01c66633          	or	a2,a2,t3
   13696:	00653023          	sd	t1,0(a0)
   1369a:	75a2                	ld	a1,40(sp)
   1369c:	df083783          	ld	a5,-528(a6)
   136a0:	8fad                	xor	a5,a5,a1
   136a2:	4581                	li	a1,0
   136a4:	e514                	sd	a3,8(a0)
   136a6:	e910                	sd	a2,16(a0)
   136a8:	ed18                	sd	a4,24(a0)
   136aa:	eb89                	bnez	a5,136bc <fp_from_bytes+0x1fa>
   136ac:	60e6                	ld	ra,88(sp)
   136ae:	6446                	ld	s0,80(sp)
   136b0:	64a6                	ld	s1,72(sp)
   136b2:	6906                	ld	s2,64(sp)
   136b4:	79e2                	ld	s3,56(sp)
   136b6:	7a42                	ld	s4,48(sp)
   136b8:	6125                	addi	sp,sp,96
   136ba:	8082                	ret
   136bc:	d04fd0ef          	jal	10bc0 <__stack_chk_fail@plt>

00000000000136c0 <fp_to_bytes>:
   136c0:	6d9c                	ld	a5,24(a1)
   136c2:	6b87d793          	rev8	a5,a5
   136c6:	e11c                	sd	a5,0(a0)
   136c8:	699c                	ld	a5,16(a1)
   136ca:	6b87d793          	rev8	a5,a5
   136ce:	e51c                	sd	a5,8(a0)
   136d0:	659c                	ld	a5,8(a1)
   136d2:	6b87d793          	rev8	a5,a5
   136d6:	e91c                	sd	a5,16(a0)
   136d8:	619c                	ld	a5,0(a1)
   136da:	6b87d793          	rev8	a5,a5
   136de:	ed1c                	sd	a5,24(a0)
   136e0:	8082                	ret

00000000000136e2 <fp_mont_set_zero>:
   136e2:	00053023          	sd	zero,0(a0)
   136e6:	00053423          	sd	zero,8(a0)
   136ea:	00053823          	sd	zero,16(a0)
   136ee:	00053c23          	sd	zero,24(a0)
   136f2:	8082                	ret

00000000000136f4 <fp_mont_set_one>:
   136f4:	67e9                	lui	a5,0x1a
   136f6:	f1878793          	addi	a5,a5,-232 # 19f18 <FP_MONT_ONE>
   136fa:	6390                	ld	a2,0(a5)
   136fc:	6794                	ld	a3,8(a5)
   136fe:	6b98                	ld	a4,16(a5)
   13700:	6f9c                	ld	a5,24(a5)
   13702:	e110                	sd	a2,0(a0)
   13704:	e514                	sd	a3,8(a0)
   13706:	e918                	sd	a4,16(a0)
   13708:	ed1c                	sd	a5,24(a0)
   1370a:	8082                	ret

000000000001370c <fp_mul_4x4_u512_ct>:
   1370c:	00063883          	ld	a7,0(a2)
   13710:	711d                	addi	sp,sp,-96
   13712:	00863283          	ld	t0,8(a2)
   13716:	e8a6                	sd	s1,80(sp)
   13718:	0005b803          	ld	a6,0(a1)
   1371c:	e4ca                	sd	s2,72(sp)
   1371e:	0085b383          	ld	t2,8(a1)
   13722:	f856                	sd	s5,48(sp)
   13724:	0105bf83          	ld	t6,16(a1)
   13728:	eca2                	sd	s0,88(sp)
   1372a:	031837b3          	mulhu	a5,a6,a7
   1372e:	0185be03          	ld	t3,24(a1)
   13732:	03028733          	mul	a4,t0,a6
   13736:	01863e83          	ld	t4,24(a2)
   1373a:	031386b3          	mul	a3,t2,a7
   1373e:	01063f03          	ld	t5,16(a2)
   13742:	0302b333          	mulhu	t1,t0,a6
   13746:	e0ce                	sd	s3,64(sp)
   13748:	0313b5b3          	mulhu	a1,t2,a7
   1374c:	fc52                	sd	s4,56(sp)
   1374e:	00f70633          	add	a2,a4,a5
   13752:	030f04b3          	mul	s1,t5,a6
   13756:	00e63733          	sltu	a4,a2,a4
   1375a:	9636                	add	a2,a2,a3
   1375c:	971a                	add	a4,a4,t1
   1375e:	00d636b3          	sltu	a3,a2,a3
   13762:	972e                	add	a4,a4,a1
   13764:	030f3933          	mulhu	s2,t5,a6
   13768:	00e68333          	add	t1,a3,a4
   1376c:	02538ab3          	mul	s5,t2,t0
   13770:	00b737b3          	sltu	a5,a4,a1
   13774:	00d336b3          	sltu	a3,t1,a3
   13778:	0253b433          	mulhu	s0,t2,t0
   1377c:	8fd5                	or	a5,a5,a3
   1377e:	031f89b3          	mul	s3,t6,a7
   13782:	9326                	add	t1,t1,s1
   13784:	0ff7f793          	zext.b	a5,a5
   13788:	031fba33          	mulhu	s4,t6,a7
   1378c:	009334b3          	sltu	s1,t1,s1
   13790:	97ca                	add	a5,a5,s2
   13792:	97a6                	add	a5,a5,s1
   13794:	9356                	add	t1,t1,s5
   13796:	00f405b3          	add	a1,s0,a5
   1379a:	01533ab3          	sltu	s5,t1,s5
   1379e:	f45a                	sd	s6,40(sp)
   137a0:	934e                	add	t1,t1,s3
   137a2:	00ba8b33          	add	s6,s5,a1
   137a6:	013339b3          	sltu	s3,t1,s3
   137aa:	016a0733          	add	a4,s4,s6
   137ae:	030e8933          	mul	s2,t4,a6
   137b2:	00e986b3          	add	a3,s3,a4
   137b6:	0085b5b3          	sltu	a1,a1,s0
   137ba:	015b3433          	sltu	s0,s6,s5
   137be:	030ebb33          	mulhu	s6,t4,a6
   137c2:	8c4d                	or	s0,s0,a1
   137c4:	014735b3          	sltu	a1,a4,s4
   137c8:	0136ba33          	sltu	s4,a3,s3
   137cc:	0ff47713          	zext.b	a4,s0
   137d0:	027f09b3          	mul	s3,t5,t2
   137d4:	0097b7b3          	sltu	a5,a5,s1
   137d8:	0145e5b3          	or	a1,a1,s4
   137dc:	f05e                	sd	s7,32(sp)
   137de:	97ba                	add	a5,a5,a4
   137e0:	027f3bb3          	mulhu	s7,t5,t2
   137e4:	0ff5f593          	zext.b	a1,a1
   137e8:	e866                	sd	s9,16(sp)
   137ea:	96ca                	add	a3,a3,s2
   137ec:	025f8cb3          	mul	s9,t6,t0
   137f0:	95be                	add	a1,a1,a5
   137f2:	ec62                	sd	s8,24(sp)
   137f4:	0126b933          	sltu	s2,a3,s2
   137f8:	025fbc33          	mulhu	s8,t6,t0
   137fc:	95da                	add	a1,a1,s6
   137fe:	031e07b3          	mul	a5,t3,a7
   13802:	00b90a33          	add	s4,s2,a1
   13806:	96ce                	add	a3,a3,s3
   13808:	031e3733          	mulhu	a4,t3,a7
   1380c:	014b8ab3          	add	s5,s7,s4
   13810:	0136b9b3          	sltu	s3,a3,s3
   13814:	96e6                	add	a3,a3,s9
   13816:	015984b3          	add	s1,s3,s5
   1381a:	0196bcb3          	sltu	s9,a3,s9
   1381e:	009c0433          	add	s0,s8,s1
   13822:	e46a                	sd	s10,8(sp)
   13824:	96be                	add	a3,a3,a5
   13826:	008c8d33          	add	s10,s9,s0
   1382a:	e06e                	sd	s11,0(sp)
   1382c:	017abab3          	sltu	s5,s5,s7
   13830:	00f6bdb3          	sltu	s11,a3,a5
   13834:	012a3a33          	sltu	s4,s4,s2
   13838:	01a707b3          	add	a5,a4,s10
   1383c:	0134b4b3          	sltu	s1,s1,s3
   13840:	0165b5b3          	sltu	a1,a1,s6
   13844:	027e8933          	mul	s2,t4,t2
   13848:	00fd89b3          	add	s3,s11,a5
   1384c:	019d3d33          	sltu	s10,s10,s9
   13850:	009ae4b3          	or	s1,s5,s1
   13854:	0145e5b3          	or	a1,a1,s4
   13858:	01843433          	sltu	s0,s0,s8
   1385c:	027eb3b3          	mulhu	t2,t4,t2
   13860:	0ff5f593          	zext.b	a1,a1
   13864:	01a46433          	or	s0,s0,s10
   13868:	00e7b733          	sltu	a4,a5,a4
   1386c:	0ff4f493          	zext.b	s1,s1
   13870:	01b9b7b3          	sltu	a5,s3,s11
   13874:	03ef8b33          	mul	s6,t6,t5
   13878:	94ae                	add	s1,s1,a1
   1387a:	8f5d                	or	a4,a4,a5
   1387c:	0ff47413          	zext.b	s0,s0
   13880:	03efba33          	mulhu	s4,t6,t5
   13884:	9426                	add	s0,s0,s1
   13886:	0ff77713          	zext.b	a4,a4
   1388a:	025e04b3          	mul	s1,t3,t0
   1388e:	013905b3          	add	a1,s2,s3
   13892:	9722                	add	a4,a4,s0
   13894:	025e3ab3          	mulhu	s5,t3,t0
   13898:	0125b933          	sltu	s2,a1,s2
   1389c:	971e                	add	a4,a4,t2
   1389e:	00e90bb3          	add	s7,s2,a4
   138a2:	95da                	add	a1,a1,s6
   138a4:	017a02b3          	add	t0,s4,s7
   138a8:	0165bb33          	sltu	s6,a1,s6
   138ac:	005b0c33          	add	s8,s6,t0
   138b0:	95a6                	add	a1,a1,s1
   138b2:	018a87b3          	add	a5,s5,s8
   138b6:	0095b9b3          	sltu	s3,a1,s1
   138ba:	03fe8433          	mul	s0,t4,t6
   138be:	00f984b3          	add	s1,s3,a5
   138c2:	016c3c33          	sltu	s8,s8,s6
   138c6:	012bbbb3          	sltu	s7,s7,s2
   138ca:	0142b2b3          	sltu	t0,t0,s4
   138ce:	00773733          	sltu	a4,a4,t2
   138d2:	03febfb3          	mulhu	t6,t4,t6
   138d6:	0134b9b3          	sltu	s3,s1,s3
   138da:	0182e2b3          	or	t0,t0,s8
   138de:	01776733          	or	a4,a4,s7
   138e2:	0157b7b3          	sltu	a5,a5,s5
   138e6:	03ee03b3          	mul	t2,t3,t5
   138ea:	0ff77713          	zext.b	a4,a4
   138ee:	0137e7b3          	or	a5,a5,s3
   138f2:	0ff2f293          	zext.b	t0,t0
   138f6:	03ee3f33          	mulhu	t5,t3,t5
   138fa:	92ba                	add	t0,t0,a4
   138fc:	0ff7f793          	zext.b	a5,a5
   13900:	94a2                	add	s1,s1,s0
   13902:	9796                	add	a5,a5,t0
   13904:	0084b433          	sltu	s0,s1,s0
   13908:	97fe                	add	a5,a5,t6
   1390a:	00f40933          	add	s2,s0,a5
   1390e:	009382b3          	add	t0,t2,s1
   13912:	012f0733          	add	a4,t5,s2
   13916:	03de04b3          	mul	s1,t3,t4
   1391a:	0072b3b3          	sltu	t2,t0,t2
   1391e:	03de3e33          	mulhu	t3,t3,t4
   13922:	00893933          	sltu	s2,s2,s0
   13926:	00e38eb3          	add	t4,t2,a4
   1392a:	01f7b7b3          	sltu	a5,a5,t6
   1392e:	01e73733          	sltu	a4,a4,t5
   13932:	0127e7b3          	or	a5,a5,s2
   13936:	007eb3b3          	sltu	t2,t4,t2
   1393a:	03180833          	mul	a6,a6,a7
   1393e:	0ff7f793          	zext.b	a5,a5
   13942:	00776733          	or	a4,a4,t2
   13946:	6466                	ld	s0,88(sp)
   13948:	01d488b3          	add	a7,s1,t4
   1394c:	97f2                	add	a5,a5,t3
   1394e:	0ff77713          	zext.b	a4,a4
   13952:	0098b4b3          	sltu	s1,a7,s1
   13956:	97ba                	add	a5,a5,a4
   13958:	6926                	ld	s2,72(sp)
   1395a:	97a6                	add	a5,a5,s1
   1395c:	6986                	ld	s3,64(sp)
   1395e:	64c6                	ld	s1,80(sp)
   13960:	01053023          	sd	a6,0(a0)
   13964:	e510                	sd	a2,8(a0)
   13966:	00653823          	sd	t1,16(a0)
   1396a:	ed14                	sd	a3,24(a0)
   1396c:	f10c                	sd	a1,32(a0)
   1396e:	02553423          	sd	t0,40(a0)
   13972:	03153823          	sd	a7,48(a0)
   13976:	fd1c                	sd	a5,56(a0)
   13978:	7a62                	ld	s4,56(sp)
   1397a:	7ac2                	ld	s5,48(sp)
   1397c:	7b22                	ld	s6,40(sp)
   1397e:	7b82                	ld	s7,32(sp)
   13980:	6c62                	ld	s8,24(sp)
   13982:	6cc2                	ld	s9,16(sp)
   13984:	6d22                	ld	s10,8(sp)
   13986:	6d82                	ld	s11,0(sp)
   13988:	6125                	addi	sp,sp,96
   1398a:	8082                	ret

000000000001398c <fp_mont_reduce_ct>:
   1398c:	e7eff06f          	j	1300a <fp_mont_reduce>

0000000000013990 <fp_mont_mul_ct>:
   13990:	7171                	addi	sp,sp,-176
   13992:	f122                	sd	s0,160(sp)
   13994:	842a                	mv	s0,a0
   13996:	ed26                	sd	s1,152(sp)
   13998:	850a                	mv	a0,sp
   1399a:	64f5                	lui	s1,0x1d
   1399c:	df04b783          	ld	a5,-528(s1) # 1cdf0 <__stack_chk_guard@GLIBC_2.27>
   139a0:	e53e                	sd	a5,136(sp)
   139a2:	4781                	li	a5,0
   139a4:	f506                	sd	ra,168(sp)
   139a6:	d67ff0ef          	jal	1370c <fp_mul_4x4_u512_ct>
   139aa:	6782                	ld	a5,0(sp)
   139ac:	008c                	addi	a1,sp,64
   139ae:	8522                	mv	a0,s0
   139b0:	e102                	sd	zero,128(sp)
   139b2:	e0be                	sd	a5,64(sp)
   139b4:	67a2                	ld	a5,8(sp)
   139b6:	e4be                	sd	a5,72(sp)
   139b8:	67c2                	ld	a5,16(sp)
   139ba:	e8be                	sd	a5,80(sp)
   139bc:	67e2                	ld	a5,24(sp)
   139be:	ecbe                	sd	a5,88(sp)
   139c0:	7782                	ld	a5,32(sp)
   139c2:	f0be                	sd	a5,96(sp)
   139c4:	77a2                	ld	a5,40(sp)
   139c6:	f4be                	sd	a5,104(sp)
   139c8:	77c2                	ld	a5,48(sp)
   139ca:	f8be                	sd	a5,112(sp)
   139cc:	77e2                	ld	a5,56(sp)
   139ce:	fcbe                	sd	a5,120(sp)
   139d0:	e3aff0ef          	jal	1300a <fp_mont_reduce>
   139d4:	672a                	ld	a4,136(sp)
   139d6:	df04b783          	ld	a5,-528(s1)
   139da:	8fb9                	xor	a5,a5,a4
   139dc:	4701                	li	a4,0
   139de:	e791                	bnez	a5,139ea <fp_mont_mul_ct+0x5a>
   139e0:	70aa                	ld	ra,168(sp)
   139e2:	740a                	ld	s0,160(sp)
   139e4:	64ea                	ld	s1,152(sp)
   139e6:	614d                	addi	sp,sp,176
   139e8:	8082                	ret
   139ea:	9d6fd0ef          	jal	10bc0 <__stack_chk_fail@plt>

00000000000139ee <fp_mont_inv>:
   139ee:	7121                	addi	sp,sp,-448
   139f0:	f34a                	sd	s2,416(sp)
   139f2:	892a                	mv	s2,a0
   139f4:	ef4e                	sd	s3,408(sp)
   139f6:	0028                	addi	a0,sp,8
   139f8:	69f5                	lui	s3,0x1d
   139fa:	df09b783          	ld	a5,-528(s3) # 1cdf0 <__stack_chk_guard@GLIBC_2.27>
   139fe:	e73e                	sd	a5,392(sp)
   13a00:	4781                	li	a5,0
   13a02:	ff06                	sd	ra,440(sp)
   13a04:	fb22                	sd	s0,432(sp)
   13a06:	441d                	li	s0,7
   13a08:	f726                	sd	s1,424(sp)
   13a0a:	84ae                	mv	s1,a1
   13a0c:	4c1040ef          	jal	186cc <fp_mont_sqr>
   13a10:	002c                	addi	a1,sp,8
   13a12:	8626                	mv	a2,s1
   13a14:	852e                	mv	a0,a1
   13a16:	76a040ef          	jal	18180 <fp_mont_mul>
   13a1a:	002c                	addi	a1,sp,8
   13a1c:	1028                	addi	a0,sp,40
   13a1e:	4af040ef          	jal	186cc <fp_mont_sqr>
   13a22:	102c                	addi	a1,sp,40
   13a24:	852e                	mv	a0,a1
   13a26:	4a7040ef          	jal	186cc <fp_mont_sqr>
   13a2a:	102c                	addi	a1,sp,40
   13a2c:	0030                	addi	a2,sp,8
   13a2e:	852e                	mv	a0,a1
   13a30:	750040ef          	jal	18180 <fp_mont_mul>
   13a34:	102c                	addi	a1,sp,40
   13a36:	00a8                	addi	a0,sp,72
   13a38:	495040ef          	jal	186cc <fp_mont_sqr>
   13a3c:	00ac                	addi	a1,sp,72
   13a3e:	852e                	mv	a0,a1
   13a40:	48d040ef          	jal	186cc <fp_mont_sqr>
   13a44:	00ac                	addi	a1,sp,72
   13a46:	852e                	mv	a0,a1
   13a48:	485040ef          	jal	186cc <fp_mont_sqr>
   13a4c:	00ac                	addi	a1,sp,72
   13a4e:	852e                	mv	a0,a1
   13a50:	47d040ef          	jal	186cc <fp_mont_sqr>
   13a54:	00ac                	addi	a1,sp,72
   13a56:	1030                	addi	a2,sp,40
   13a58:	852e                	mv	a0,a1
   13a5a:	726040ef          	jal	18180 <fp_mont_mul>
   13a5e:	00ac                	addi	a1,sp,72
   13a60:	10a8                	addi	a0,sp,104
   13a62:	46b040ef          	jal	186cc <fp_mont_sqr>
   13a66:	10ac                	addi	a1,sp,104
   13a68:	347d                	addiw	s0,s0,-1
   13a6a:	852e                	mv	a0,a1
   13a6c:	461040ef          	jal	186cc <fp_mont_sqr>
   13a70:	f87d                	bnez	s0,13a66 <fp_mont_inv+0x78>
   13a72:	10ac                	addi	a1,sp,104
   13a74:	00b0                	addi	a2,sp,72
   13a76:	852e                	mv	a0,a1
   13a78:	443d                	li	s0,15
   13a7a:	706040ef          	jal	18180 <fp_mont_mul>
   13a7e:	10ac                	addi	a1,sp,104
   13a80:	0128                	addi	a0,sp,136
   13a82:	44b040ef          	jal	186cc <fp_mont_sqr>
   13a86:	012c                	addi	a1,sp,136
   13a88:	347d                	addiw	s0,s0,-1
   13a8a:	852e                	mv	a0,a1
   13a8c:	441040ef          	jal	186cc <fp_mont_sqr>
   13a90:	f87d                	bnez	s0,13a86 <fp_mont_inv+0x98>
   13a92:	012c                	addi	a1,sp,136
   13a94:	10b0                	addi	a2,sp,104
   13a96:	852e                	mv	a0,a1
   13a98:	4415                	li	s0,5
   13a9a:	6e6040ef          	jal	18180 <fp_mont_mul>
   13a9e:	102c                	addi	a1,sp,40
   13aa0:	1128                	addi	a0,sp,168
   13aa2:	42b040ef          	jal	186cc <fp_mont_sqr>
   13aa6:	112c                	addi	a1,sp,168
   13aa8:	852e                	mv	a0,a1
   13aaa:	423040ef          	jal	186cc <fp_mont_sqr>
   13aae:	112c                	addi	a1,sp,168
   13ab0:	0030                	addi	a2,sp,8
   13ab2:	852e                	mv	a0,a1
   13ab4:	6cc040ef          	jal	18180 <fp_mont_mul>
   13ab8:	00ac                	addi	a1,sp,72
   13aba:	01a8                	addi	a0,sp,200
   13abc:	411040ef          	jal	186cc <fp_mont_sqr>
   13ac0:	01ac                	addi	a1,sp,200
   13ac2:	347d                	addiw	s0,s0,-1
   13ac4:	852e                	mv	a0,a1
   13ac6:	407040ef          	jal	186cc <fp_mont_sqr>
   13aca:	f87d                	bnez	s0,13ac0 <fp_mont_inv+0xd2>
   13acc:	01ac                	addi	a1,sp,200
   13ace:	1130                	addi	a2,sp,168
   13ad0:	852e                	mv	a0,a1
   13ad2:	4435                	li	s0,13
   13ad4:	6ac040ef          	jal	18180 <fp_mont_mul>
   13ad8:	10ac                	addi	a1,sp,104
   13ada:	11a8                	addi	a0,sp,232
   13adc:	3f1040ef          	jal	186cc <fp_mont_sqr>
   13ae0:	11ac                	addi	a1,sp,232
   13ae2:	347d                	addiw	s0,s0,-1
   13ae4:	852e                	mv	a0,a1
   13ae6:	3e7040ef          	jal	186cc <fp_mont_sqr>
   13aea:	f87d                	bnez	s0,13ae0 <fp_mont_inv+0xf2>
   13aec:	11ac                	addi	a1,sp,232
   13aee:	01b0                	addi	a2,sp,200
   13af0:	852e                	mv	a0,a1
   13af2:	447d                	li	s0,31
   13af4:	68c040ef          	jal	18180 <fp_mont_mul>
   13af8:	11ac                	addi	a1,sp,232
   13afa:	0228                	addi	a0,sp,264
   13afc:	3d1040ef          	jal	186cc <fp_mont_sqr>
   13b00:	022c                	addi	a1,sp,264
   13b02:	8626                	mv	a2,s1
   13b04:	852e                	mv	a0,a1
   13b06:	67a040ef          	jal	18180 <fp_mont_mul>
   13b0a:	012c                	addi	a1,sp,136
   13b0c:	1228                	addi	a0,sp,296
   13b0e:	3bf040ef          	jal	186cc <fp_mont_sqr>
   13b12:	122c                	addi	a1,sp,296
   13b14:	347d                	addiw	s0,s0,-1
   13b16:	852e                	mv	a0,a1
   13b18:	3b5040ef          	jal	186cc <fp_mont_sqr>
   13b1c:	f87d                	bnez	s0,13b12 <fp_mont_inv+0x124>
   13b1e:	122c                	addi	a1,sp,296
   13b20:	0130                	addi	a2,sp,136
   13b22:	852e                	mv	a0,a1
   13b24:	02000413          	li	s0,32
   13b28:	658040ef          	jal	18180 <fp_mont_mul>
   13b2c:	022c                	addi	a1,sp,264
   13b2e:	12a8                	addi	a0,sp,360
   13b30:	39d040ef          	jal	186cc <fp_mont_sqr>
   13b34:	12ac                	addi	a1,sp,360
   13b36:	347d                	addiw	s0,s0,-1
   13b38:	852e                	mv	a0,a1
   13b3a:	393040ef          	jal	186cc <fp_mont_sqr>
   13b3e:	f87d                	bnez	s0,13b34 <fp_mont_inv+0x146>
   13b40:	12b0                	addi	a2,sp,360
   13b42:	012c                	addi	a1,sp,136
   13b44:	02a8                	addi	a0,sp,328
   13b46:	03f00413          	li	s0,63
   13b4a:	636040ef          	jal	18180 <fp_mont_mul>
   13b4e:	02ac                	addi	a1,sp,328
   13b50:	852e                	mv	a0,a1
   13b52:	37b040ef          	jal	186cc <fp_mont_sqr>
   13b56:	02ac                	addi	a1,sp,328
   13b58:	347d                	addiw	s0,s0,-1
   13b5a:	852e                	mv	a0,a1
   13b5c:	371040ef          	jal	186cc <fp_mont_sqr>
   13b60:	f87d                	bnez	s0,13b56 <fp_mont_inv+0x168>
   13b62:	02ac                	addi	a1,sp,328
   13b64:	1230                	addi	a2,sp,296
   13b66:	852e                	mv	a0,a1
   13b68:	447d                	li	s0,31
   13b6a:	616040ef          	jal	18180 <fp_mont_mul>
   13b6e:	02ac                	addi	a1,sp,328
   13b70:	852e                	mv	a0,a1
   13b72:	35b040ef          	jal	186cc <fp_mont_sqr>
   13b76:	02ac                	addi	a1,sp,328
   13b78:	347d                	addiw	s0,s0,-1
   13b7a:	852e                	mv	a0,a1
   13b7c:	351040ef          	jal	186cc <fp_mont_sqr>
   13b80:	f87d                	bnez	s0,13b76 <fp_mont_inv+0x188>
   13b82:	02ac                	addi	a1,sp,328
   13b84:	0130                	addi	a2,sp,136
   13b86:	852e                	mv	a0,a1
   13b88:	447d                	li	s0,31
   13b8a:	5f6040ef          	jal	18180 <fp_mont_mul>
   13b8e:	02ac                	addi	a1,sp,328
   13b90:	852e                	mv	a0,a1
   13b92:	33b040ef          	jal	186cc <fp_mont_sqr>
   13b96:	02ac                	addi	a1,sp,328
   13b98:	347d                	addiw	s0,s0,-1
   13b9a:	852e                	mv	a0,a1
   13b9c:	331040ef          	jal	186cc <fp_mont_sqr>
   13ba0:	f87d                	bnez	s0,13b96 <fp_mont_inv+0x1a8>
   13ba2:	02ac                	addi	a1,sp,328
   13ba4:	447d                	li	s0,31
   13ba6:	852e                	mv	a0,a1
   13ba8:	325040ef          	jal	186cc <fp_mont_sqr>
   13bac:	02ac                	addi	a1,sp,328
   13bae:	347d                	addiw	s0,s0,-1
   13bb0:	852e                	mv	a0,a1
   13bb2:	31b040ef          	jal	186cc <fp_mont_sqr>
   13bb6:	f87d                	bnez	s0,13bac <fp_mont_inv+0x1be>
   13bb8:	02ac                	addi	a1,sp,328
   13bba:	0130                	addi	a2,sp,136
   13bbc:	852e                	mv	a0,a1
   13bbe:	4475                	li	s0,29
   13bc0:	5c0040ef          	jal	18180 <fp_mont_mul>
   13bc4:	02ac                	addi	a1,sp,328
   13bc6:	852e                	mv	a0,a1
   13bc8:	305040ef          	jal	186cc <fp_mont_sqr>
   13bcc:	02ac                	addi	a1,sp,328
   13bce:	347d                	addiw	s0,s0,-1
   13bd0:	852e                	mv	a0,a1
   13bd2:	2fb040ef          	jal	186cc <fp_mont_sqr>
   13bd6:	f87d                	bnez	s0,13bcc <fp_mont_inv+0x1de>
   13bd8:	02ac                	addi	a1,sp,328
   13bda:	11b0                	addi	a2,sp,232
   13bdc:	852e                	mv	a0,a1
   13bde:	5a2040ef          	jal	18180 <fp_mont_mul>
   13be2:	02ac                	addi	a1,sp,328
   13be4:	852e                	mv	a0,a1
   13be6:	2e7040ef          	jal	186cc <fp_mont_sqr>
   13bea:	02ac                	addi	a1,sp,328
   13bec:	852e                	mv	a0,a1
   13bee:	2df040ef          	jal	186cc <fp_mont_sqr>
   13bf2:	8626                	mv	a2,s1
   13bf4:	02ac                	addi	a1,sp,328
   13bf6:	854a                	mv	a0,s2
   13bf8:	588040ef          	jal	18180 <fp_mont_mul>
   13bfc:	673a                	ld	a4,392(sp)
   13bfe:	df09b783          	ld	a5,-528(s3)
   13c02:	8fb9                	xor	a5,a5,a4
   13c04:	4701                	li	a4,0
   13c06:	eb81                	bnez	a5,13c16 <fp_mont_inv+0x228>
   13c08:	70fa                	ld	ra,440(sp)
   13c0a:	745a                	ld	s0,432(sp)
   13c0c:	74ba                	ld	s1,424(sp)
   13c0e:	791a                	ld	s2,416(sp)
   13c10:	69fa                	ld	s3,408(sp)
   13c12:	6139                	addi	sp,sp,448
   13c14:	8082                	ret
   13c16:	fabfc0ef          	jal	10bc0 <__stack_chk_fail@plt>

0000000000013c1a <fn_modulus_n>:
   13c1a:	6569                	lui	a0,0x1a
   13c1c:	fb850513          	addi	a0,a0,-72 # 19fb8 <FN_N>
   13c20:	8082                	ret

0000000000013c22 <fn_zero>:
   13c22:	00053c23          	sd	zero,24(a0)
   13c26:	00053823          	sd	zero,16(a0)
   13c2a:	00053423          	sd	zero,8(a0)
   13c2e:	00053023          	sd	zero,0(a0)
   13c32:	8082                	ret

0000000000013c34 <fn_is_zero>:
   13c34:	611c                	ld	a5,0(a0)
   13c36:	6510                	ld	a2,8(a0)
   13c38:	6914                	ld	a3,16(a0)
   13c3a:	6d18                	ld	a4,24(a0)
   13c3c:	00c7e533          	or	a0,a5,a2
   13c40:	8d55                	or	a0,a0,a3
   13c42:	8d59                	or	a0,a0,a4
   13c44:	00153513          	seqz	a0,a0
   13c48:	8082                	ret

0000000000013c4a <fn_cmp>:
   13c4a:	6d18                	ld	a4,24(a0)
   13c4c:	6d9c                	ld	a5,24(a1)
   13c4e:	02f76763          	bltu	a4,a5,13c7c <fn_cmp+0x32>
   13c52:	02e7e763          	bltu	a5,a4,13c80 <fn_cmp+0x36>
   13c56:	6918                	ld	a4,16(a0)
   13c58:	699c                	ld	a5,16(a1)
   13c5a:	02f76163          	bltu	a4,a5,13c7c <fn_cmp+0x32>
   13c5e:	02e7e163          	bltu	a5,a4,13c80 <fn_cmp+0x36>
   13c62:	6518                	ld	a4,8(a0)
   13c64:	659c                	ld	a5,8(a1)
   13c66:	00f76b63          	bltu	a4,a5,13c7c <fn_cmp+0x32>
   13c6a:	00e7eb63          	bltu	a5,a4,13c80 <fn_cmp+0x36>
   13c6e:	6108                	ld	a0,0(a0)
   13c70:	619c                	ld	a5,0(a1)
   13c72:	00f56563          	bltu	a0,a5,13c7c <fn_cmp+0x32>
   13c76:	00a7b533          	sltu	a0,a5,a0
   13c7a:	8082                	ret
   13c7c:	557d                	li	a0,-1
   13c7e:	8082                	ret
   13c80:	4505                	li	a0,1
   13c82:	8082                	ret

0000000000013c84 <fn_from_be>:
   13c84:	1101                	addi	sp,sp,-32
   13c86:	0014f7b7          	lui	a5,0x14f
   13c8a:	ec22                	sd	s0,24(sp)
   13c8c:	efd78793          	addi	a5,a5,-259 # 14eefd <__BSS_END__+0x1157e5>
   13c90:	e826                	sd	s1,16(sp)
   13c92:	07be                	slli	a5,a5,0xf
   13c94:	e44a                	sd	s2,8(sp)
   13c96:	12778793          	addi	a5,a5,295
   13c9a:	0005c703          	lbu	a4,0(a1)
   13c9e:	c6fe1f37          	lui	t5,0xc6fe1
   13ca2:	0015c683          	lbu	a3,1(a1)
   13ca6:	0f12                	slli	t5,t5,0x4
   13ca8:	0025c303          	lbu	t1,2(a1)
   13cac:	07b6                	slli	a5,a5,0xd
   13cae:	0722                	slli	a4,a4,0x8
   13cb0:	0035c883          	lbu	a7,3(a1)
   13cb4:	8f55                	or	a4,a4,a3
   13cb6:	0045c603          	lbu	a2,4(a1)
   13cba:	0722                	slli	a4,a4,0x8
   13cbc:	0055c683          	lbu	a3,5(a1)
   13cc0:	00e36333          	or	t1,t1,a4
   13cc4:	0065c703          	lbu	a4,6(a1)
   13cc8:	0322                	slli	t1,t1,0x8
   13cca:	0075c803          	lbu	a6,7(a1)
   13cce:	0068e8b3          	or	a7,a7,t1
   13cd2:	4a7f0f13          	addi	t5,t5,1191 # ffffffffc6fe14a7 <__BSS_END__+0xffffffffc6fa7d8f>
   13cd6:	08a2                	slli	a7,a7,0x8
   13cd8:	75578793          	addi	a5,a5,1877
   13cdc:	01166633          	or	a2,a2,a7
   13ce0:	3901f8b7          	lui	a7,0x3901f
   13ce4:	0622                	slli	a2,a2,0x8
   13ce6:	0892                	slli	a7,a7,0x4
   13ce8:	8ed1                	or	a3,a3,a2
   13cea:	b5988893          	addi	a7,a7,-1191 # 3901eb59 <__BSS_END__+0x38fe5441>
   13cee:	06a2                	slli	a3,a3,0x8
   13cf0:	08b2                	slli	a7,a7,0xc
   13cf2:	8f55                	or	a4,a4,a3
   13cf4:	0e388893          	addi	a7,a7,227
   13cf8:	0722                	slli	a4,a4,0x8
   13cfa:	08c6                	slli	a7,a7,0x11
   13cfc:	00e86833          	or	a6,a6,a4
   13d00:	52a88893          	addi	a7,a7,1322
   13d04:	01053c23          	sd	a6,24(a0)
   13d08:	0f32                	slli	t5,t5,0xc
   13d0a:	0085c703          	lbu	a4,8(a1)
   13d0e:	07ba                	slli	a5,a5,0xe
   13d10:	0095c683          	lbu	a3,9(a1)
   13d14:	f1df0f13          	addi	t5,t5,-227
   13d18:	00a5ce83          	lbu	t4,10(a1)
   13d1c:	12278793          	addi	a5,a5,290
   13d20:	0722                	slli	a4,a4,0x8
   13d22:	00b5ce03          	lbu	t3,11(a1)
   13d26:	8f55                	or	a4,a4,a3
   13d28:	00c5c603          	lbu	a2,12(a1)
   13d2c:	0722                	slli	a4,a4,0x8
   13d2e:	00d5c683          	lbu	a3,13(a1)
   13d32:	00eeeeb3          	or	t4,t4,a4
   13d36:	00e5c703          	lbu	a4,14(a1)
   13d3a:	0ea2                	slli	t4,t4,0x8
   13d3c:	00f5c303          	lbu	t1,15(a1)
   13d40:	01de6e33          	or	t3,t3,t4
   13d44:	0f46                	slli	t5,t5,0x11
   13d46:	0e22                	slli	t3,t3,0x8
   13d48:	ad5f0f13          	addi	t5,t5,-1323
   13d4c:	01c66633          	or	a2,a2,t3
   13d50:	ffeb1eb7          	lui	t4,0xffeb1
   13d54:	0622                	slli	a2,a2,0x8
   13d56:	103e8e93          	addi	t4,t4,259 # ffffffffffeb1103 <__BSS_END__+0xffffffffffe779eb>
   13d5a:	8ed1                	or	a3,a3,a2
   13d5c:	0ebe                	slli	t4,t4,0xf
   13d5e:	06a2                	slli	a3,a3,0x8
   13d60:	2a001393          	bseti	t2,zero,0x20
   13d64:	8f55                	or	a4,a4,a3
   13d66:	0385                	addi	t2,t2,1
   13d68:	0722                	slli	a4,a4,0x8
   13d6a:	93c2                	add	t2,t2,a6
   13d6c:	00e36333          	or	t1,t1,a4
   13d70:	ed9e8e93          	addi	t4,t4,-295
   13d74:	00653823          	sd	t1,16(a0)
   13d78:	00130293          	addi	t0,t1,1
   13d7c:	0105c703          	lbu	a4,16(a1)
   13d80:	00503fb3          	snez	t6,t0
   13d84:	0115c683          	lbu	a3,17(a1)
   13d88:	0eb6                	slli	t4,t4,0xd
   13d8a:	0125c603          	lbu	a2,18(a1)
   13d8e:	8abe8e93          	addi	t4,t4,-1877
   13d92:	0722                	slli	a4,a4,0x8
   13d94:	0135c903          	lbu	s2,19(a1)
   13d98:	8f55                	or	a4,a4,a3
   13d9a:	0145c483          	lbu	s1,20(a1)
   13d9e:	0722                	slli	a4,a4,0x8
   13da0:	0155c403          	lbu	s0,21(a1)
   13da4:	8f51                	or	a4,a4,a2
   13da6:	0165c683          	lbu	a3,22(a1)
   13daa:	0722                	slli	a4,a4,0x8
   13dac:	0175c603          	lbu	a2,23(a1)
   13db0:	00e96733          	or	a4,s2,a4
   13db4:	0eba                	slli	t4,t4,0xe
   13db6:	0722                	slli	a4,a4,0x8
   13db8:	edde8e93          	addi	t4,t4,-291
   13dbc:	8cd9                	or	s1,s1,a4
   13dbe:	2a001713          	bseti	a4,zero,0x20
   13dc2:	04a2                	slli	s1,s1,0x8
   13dc4:	fff74713          	not	a4,a4
   13dc8:	8c45                	or	s0,s0,s1
   13dca:	00e83733          	sltu	a4,a6,a4
   13dce:	0422                	slli	s0,s0,0x8
   13dd0:	8ec1                	or	a3,a3,s0
   13dd2:	06a2                	slli	a3,a3,0x8
   13dd4:	00d66e33          	or	t3,a2,a3
   13dd8:	01c53423          	sd	t3,8(a0)
   13ddc:	01c8b6b3          	sltu	a3,a7,t3
   13de0:	0185c603          	lbu	a2,24(a1)
   13de4:	0016b893          	seqz	a7,a3
   13de8:	0195c403          	lbu	s0,25(a1)
   13dec:	9f72                	add	t5,t5,t3
   13dee:	01a5c683          	lbu	a3,26(a1)
   13df2:	0622                	slli	a2,a2,0x8
   13df4:	01b5c903          	lbu	s2,27(a1)
   13df8:	8e41                	or	a2,a2,s0
   13dfa:	01c5c483          	lbu	s1,28(a1)
   13dfe:	0622                	slli	a2,a2,0x8
   13e00:	01d5c403          	lbu	s0,29(a1)
   13e04:	8e55                	or	a2,a2,a3
   13e06:	01e5c683          	lbu	a3,30(a1)
   13e0a:	0622                	slli	a2,a2,0x8
   13e0c:	01f5c583          	lbu	a1,31(a1)
   13e10:	00c96633          	or	a2,s2,a2
   13e14:	6922                	ld	s2,8(sp)
   13e16:	0622                	slli	a2,a2,0x8
   13e18:	8e45                	or	a2,a2,s1
   13e1a:	64c2                	ld	s1,16(sp)
   13e1c:	0622                	slli	a2,a2,0x8
   13e1e:	8e41                	or	a2,a2,s0
   13e20:	0622                	slli	a2,a2,0x8
   13e22:	8ed1                	or	a3,a3,a2
   13e24:	06a2                	slli	a3,a3,0x8
   13e26:	00d5e433          	or	s0,a1,a3
   13e2a:	0087b7b3          	sltu	a5,a5,s0
   13e2e:	9ea2                	add	t4,t4,s0
   13e30:	0017c793          	xori	a5,a5,1
   13e34:	00ff36b3          	sltu	a3,t5,a5
   13e38:	40ff0633          	sub	a2,t5,a5
   13e3c:	00d8e8b3          	or	a7,a7,a3
   13e40:	0ff8f893          	zext.b	a7,a7
   13e44:	0112b6b3          	sltu	a3,t0,a7
   13e48:	411287b3          	sub	a5,t0,a7
   13e4c:	00dfe5b3          	or	a1,t6,a3
   13e50:	0ff5f593          	zext.b	a1,a1
   13e54:	00b3b8b3          	sltu	a7,t2,a1
   13e58:	40b386b3          	sub	a3,t2,a1
   13e5c:	01176733          	or	a4,a4,a7
   13e60:	00174713          	xori	a4,a4,1
   13e64:	0ff77713          	zext.b	a4,a4
   13e68:	40e008b3          	neg	a7,a4
   13e6c:	177d                	addi	a4,a4,-1
   13e6e:	8c79                	and	s0,s0,a4
   13e70:	011efeb3          	and	t4,t4,a7
   13e74:	011675b3          	and	a1,a2,a7
   13e78:	00677333          	and	t1,a4,t1
   13e7c:	01c77633          	and	a2,a4,t3
   13e80:	0117f7b3          	and	a5,a5,a7
   13e84:	01077733          	and	a4,a4,a6
   13e88:	0116f6b3          	and	a3,a3,a7
   13e8c:	008ee833          	or	a6,t4,s0
   13e90:	6462                	ld	s0,24(sp)
   13e92:	8e4d                	or	a2,a2,a1
   13e94:	0067e7b3          	or	a5,a5,t1
   13e98:	8f55                	or	a4,a4,a3
   13e9a:	01053023          	sd	a6,0(a0)
   13e9e:	e510                	sd	a2,8(a0)
   13ea0:	e91c                	sd	a5,16(a0)
   13ea2:	ed18                	sd	a4,24(a0)
   13ea4:	6105                	addi	sp,sp,32
   13ea6:	8082                	ret

0000000000013ea8 <fn_to_be>:
   13ea8:	6d9c                	ld	a5,24(a1)
   13eaa:	6b87d793          	rev8	a5,a5
   13eae:	e11c                	sd	a5,0(a0)
   13eb0:	699c                	ld	a5,16(a1)
   13eb2:	6b87d793          	rev8	a5,a5
   13eb6:	e51c                	sd	a5,8(a0)
   13eb8:	659c                	ld	a5,8(a1)
   13eba:	6b87d793          	rev8	a5,a5
   13ebe:	e91c                	sd	a5,16(a0)
   13ec0:	619c                	ld	a5,0(a1)
   13ec2:	6b87d793          	rev8	a5,a5
   13ec6:	ed1c                	sd	a5,24(a0)
   13ec8:	8082                	ret

0000000000013eca <fn_add>:
   13eca:	0005be83          	ld	t4,0(a1)
   13ece:	ffeb1737          	lui	a4,0xffeb1
   13ed2:	00063883          	ld	a7,0(a2)
   13ed6:	10370713          	addi	a4,a4,259 # ffffffffffeb1103 <__BSS_END__+0xffffffffffe779eb>
   13eda:	0085be03          	ld	t3,8(a1)
   13ede:	073e                	slli	a4,a4,0xf
   13ee0:	661c                	ld	a5,8(a2)
   13ee2:	ed970713          	addi	a4,a4,-295
   13ee6:	98f6                	add	a7,a7,t4
   13ee8:	0105bf83          	ld	t6,16(a1)
   13eec:	01d8beb3          	sltu	t4,a7,t4
   13ef0:	01063803          	ld	a6,16(a2)
   13ef4:	97f2                	add	a5,a5,t3
   13ef6:	6d8c                	ld	a1,24(a1)
   13ef8:	9ebe                	add	t4,t4,a5
   13efa:	01c7be33          	sltu	t3,a5,t3
   13efe:	00feb7b3          	sltu	a5,t4,a5
   13f02:	987e                	add	a6,a6,t6
   13f04:	00fe6e33          	or	t3,t3,a5
   13f08:	6e14                	ld	a3,24(a2)
   13f0a:	0ffe7e13          	zext.b	t3,t3
   13f0e:	01f83fb3          	sltu	t6,a6,t6
   13f12:	9e42                	add	t3,t3,a6
   13f14:	c6fe17b7          	lui	a5,0xc6fe1
   13f18:	010e3833          	sltu	a6,t3,a6
   13f1c:	96ae                	add	a3,a3,a1
   13f1e:	010fefb3          	or	t6,t6,a6
   13f22:	0792                	slli	a5,a5,0x4
   13f24:	0fffff93          	zext.b	t6,t6
   13f28:	00b6b5b3          	sltu	a1,a3,a1
   13f2c:	9fb6                	add	t6,t6,a3
   13f2e:	0736                	slli	a4,a4,0xd
   13f30:	00dfb6b3          	sltu	a3,t6,a3
   13f34:	4a778793          	addi	a5,a5,1191 # ffffffffc6fe14a7 <__BSS_END__+0xffffffffc6fa7d8f>
   13f38:	8dd5                	or	a1,a1,a3
   13f3a:	8ab70713          	addi	a4,a4,-1877
   13f3e:	07b2                	slli	a5,a5,0xc
   13f40:	0014f637          	lui	a2,0x14f
   13f44:	efd60613          	addi	a2,a2,-259 # 14eefd <__BSS_END__+0x1157e5>
   13f48:	0ff5f593          	zext.b	a1,a1
   13f4c:	073a                	slli	a4,a4,0xe
   13f4e:	f1d78793          	addi	a5,a5,-227
   13f52:	063e                	slli	a2,a2,0xf
   13f54:	40b005b3          	neg	a1,a1
   13f58:	edd70713          	addi	a4,a4,-291
   13f5c:	07c6                	slli	a5,a5,0x11
   13f5e:	12760613          	addi	a2,a2,295
   13f62:	c6fe1837          	lui	a6,0xc6fe1
   13f66:	3901f6b7          	lui	a3,0x3901f
   13f6a:	0812                	slli	a6,a6,0x4
   13f6c:	0692                	slli	a3,a3,0x4
   13f6e:	00e5f333          	and	t1,a1,a4
   13f72:	ad478793          	addi	a5,a5,-1324
   13f76:	0636                	slli	a2,a2,0xd
   13f78:	4a780813          	addi	a6,a6,1191 # ffffffffc6fe14a7 <__BSS_END__+0xffffffffc6fa7d8f>
   13f7c:	b5968693          	addi	a3,a3,-1191 # 3901eb59 <__BSS_END__+0x38fe5441>
   13f80:	989a                	add	a7,a7,t1
   13f82:	8fed                	and	a5,a5,a1
   13f84:	75560613          	addi	a2,a2,1877
   13f88:	0832                	slli	a6,a6,0xc
   13f8a:	06b2                	slli	a3,a3,0xc
   13f8c:	9ebe                	add	t4,t4,a5
   13f8e:	0068b333          	sltu	t1,a7,t1
   13f92:	063a                	slli	a2,a2,0xe
   13f94:	f1d80813          	addi	a6,a6,-227
   13f98:	0e368693          	addi	a3,a3,227
   13f9c:	9376                	add	t1,t1,t4
   13f9e:	12260613          	addi	a2,a2,290
   13fa2:	0846                	slli	a6,a6,0x11
   13fa4:	06c6                	slli	a3,a3,0x11
   13fa6:	01163633          	sltu	a2,a2,a7
   13faa:	00feb7b3          	sltu	a5,t4,a5
   13fae:	ad580813          	addi	a6,a6,-1323
   13fb2:	01d33eb3          	sltu	t4,t1,t4
   13fb6:	52a68693          	addi	a3,a3,1322
   13fba:	00164f13          	xori	t5,a2,1
   13fbe:	981a                	add	a6,a6,t1
   13fc0:	01d7e7b3          	or	a5,a5,t4
   13fc4:	0066b6b3          	sltu	a3,a3,t1
   13fc8:	01e83633          	sltu	a2,a6,t5
   13fcc:	0ff7f793          	zext.b	a5,a5
   13fd0:	0016b693          	seqz	a3,a3
   13fd4:	9e3e                	add	t3,t3,a5
   13fd6:	8ed1                	or	a3,a3,a2
   13fd8:	001e0e93          	addi	t4,t3,1
   13fdc:	0ff6f693          	zext.b	a3,a3
   13fe0:	2a001613          	bseti	a2,zero,0x20
   13fe4:	8df1                	and	a1,a1,a2
   13fe6:	95fe                	add	a1,a1,t6
   13fe8:	00deb633          	sltu	a2,t4,a3
   13fec:	00fe37b3          	sltu	a5,t3,a5
   13ff0:	01d03fb3          	snez	t6,t4
   13ff4:	97ae                	add	a5,a5,a1
   13ff6:	00cfefb3          	or	t6,t6,a2
   13ffa:	2a001593          	bseti	a1,zero,0x20
   13ffe:	0585                	addi	a1,a1,1
   14000:	95be                	add	a1,a1,a5
   14002:	0fffff93          	zext.b	t6,t6
   14006:	2a001613          	bseti	a2,zero,0x20
   1400a:	fff64613          	not	a2,a2
   1400e:	00c7b633          	sltu	a2,a5,a2
   14012:	01f5b2b3          	sltu	t0,a1,t6
   14016:	00566633          	or	a2,a2,t0
   1401a:	9746                	add	a4,a4,a7
   1401c:	00164613          	xori	a2,a2,1
   14020:	41e80833          	sub	a6,a6,t5
   14024:	0ff67613          	zext.b	a2,a2
   14028:	40de8eb3          	sub	t4,t4,a3
   1402c:	40c00f33          	neg	t5,a2
   14030:	fff60693          	addi	a3,a2,-1
   14034:	41f585b3          	sub	a1,a1,t6
   14038:	01e77733          	and	a4,a4,t5
   1403c:	00d8f8b3          	and	a7,a7,a3
   14040:	01e87833          	and	a6,a6,t5
   14044:	00d37333          	and	t1,t1,a3
   14048:	01eefeb3          	and	t4,t4,t5
   1404c:	00de7e33          	and	t3,t3,a3
   14050:	01e5f5b3          	and	a1,a1,t5
   14054:	8ff5                	and	a5,a5,a3
   14056:	01176733          	or	a4,a4,a7
   1405a:	00686833          	or	a6,a6,t1
   1405e:	01ceeeb3          	or	t4,t4,t3
   14062:	8ddd                	or	a1,a1,a5
   14064:	e118                	sd	a4,0(a0)
   14066:	01053423          	sd	a6,8(a0)
   1406a:	01d53823          	sd	t4,16(a0)
   1406e:	ed0c                	sd	a1,24(a0)
   14070:	8082                	ret

0000000000014072 <fn_sub>:
   14072:	6614                	ld	a3,8(a2)
   14074:	0014f737          	lui	a4,0x14f
   14078:	0005b303          	ld	t1,0(a1)
   1407c:	efd70713          	addi	a4,a4,-259 # 14eefd <__BSS_END__+0x1157e5>
   14080:	00063283          	ld	t0,0(a2)
   14084:	073e                	slli	a4,a4,0xf
   14086:	0085b883          	ld	a7,8(a1)
   1408a:	12770713          	addi	a4,a4,295
   1408e:	01063f03          	ld	t5,16(a2)
   14092:	3901f7b7          	lui	a5,0x3901f
   14096:	0105be03          	ld	t3,16(a1)
   1409a:	00533fb3          	sltu	t6,t1,t0
   1409e:	40d88833          	sub	a6,a7,a3
   140a2:	00d8b8b3          	sltu	a7,a7,a3
   140a6:	01f83eb3          	sltu	t4,a6,t6
   140aa:	6d94                	ld	a3,24(a1)
   140ac:	01d8e8b3          	or	a7,a7,t4
   140b0:	6e10                	ld	a2,24(a2)
   140b2:	41ee0eb3          	sub	t4,t3,t5
   140b6:	0ff8f893          	zext.b	a7,a7
   140ba:	01ee35b3          	sltu	a1,t3,t5
   140be:	011ebe33          	sltu	t3,t4,a7
   140c2:	01c5e5b3          	or	a1,a1,t3
   140c6:	40c68f33          	sub	t5,a3,a2
   140ca:	0ff5f593          	zext.b	a1,a1
   140ce:	0792                	slli	a5,a5,0x4
   140d0:	00c6b6b3          	sltu	a3,a3,a2
   140d4:	0736                	slli	a4,a4,0xd
   140d6:	00bf3633          	sltu	a2,t5,a1
   140da:	b5978793          	addi	a5,a5,-1191 # 3901eb59 <__BSS_END__+0x38fe5441>
   140de:	8ed1                	or	a3,a3,a2
   140e0:	75570713          	addi	a4,a4,1877
   140e4:	07b2                	slli	a5,a5,0xc
   140e6:	0ff6f693          	zext.b	a3,a3
   140ea:	073a                	slli	a4,a4,0xe
   140ec:	0e378793          	addi	a5,a5,227
   140f0:	40d00e33          	neg	t3,a3
   140f4:	12370713          	addi	a4,a4,291
   140f8:	07c6                	slli	a5,a5,0x11
   140fa:	00ee7733          	and	a4,t3,a4
   140fe:	40530333          	sub	t1,t1,t0
   14102:	52b78793          	addi	a5,a5,1323
   14106:	933a                	add	t1,t1,a4
   14108:	00fe77b3          	and	a5,t3,a5
   1410c:	41f80633          	sub	a2,a6,t6
   14110:	00e33733          	sltu	a4,t1,a4
   14114:	963e                	add	a2,a2,a5
   14116:	411e8833          	sub	a6,t4,a7
   1411a:	9732                	add	a4,a4,a2
   1411c:	00f637b3          	sltu	a5,a2,a5
   14120:	00c73633          	sltu	a2,a4,a2
   14124:	40d806b3          	sub	a3,a6,a3
   14128:	8fd1                	or	a5,a5,a2
   1412a:	0106b833          	sltu	a6,a3,a6
   1412e:	0ff7f793          	zext.b	a5,a5
   14132:	fffe7613          	andi	a2,t3,-1
   14136:	96be                	add	a3,a3,a5
   14138:	40bf0f33          	sub	t5,t5,a1
   1413c:	4a061613          	bclri	a2,a2,0x20
   14140:	00f6b7b3          	sltu	a5,a3,a5
   14144:	967a                	add	a2,a2,t5
   14146:	0107e7b3          	or	a5,a5,a6
   1414a:	97b2                	add	a5,a5,a2
   1414c:	00653023          	sd	t1,0(a0)
   14150:	e518                	sd	a4,8(a0)
   14152:	e914                	sd	a3,16(a0)
   14154:	ed1c                	sd	a5,24(a0)
   14156:	8082                	ret

0000000000014158 <fn_mul_4x4_u512_ct>:
   14158:	1101                	addi	sp,sp,-32
   1415a:	2a001713          	bseti	a4,zero,0x20
   1415e:	ec22                	sd	s0,24(sp)
   14160:	86aa                	mv	a3,a0
   14162:	e826                	sd	s1,16(sp)
   14164:	177d                	addi	a4,a4,-1
   14166:	e44a                	sd	s2,8(sp)
   14168:	4815                	li	a6,5
   1416a:	e04e                	sd	s3,0(sp)
   1416c:	48a1                	li	a7,8
   1416e:	00053023          	sd	zero,0(a0)
   14172:	4319                	li	t1,6
   14174:	00053423          	sd	zero,8(a0)
   14178:	00053823          	sd	zero,16(a0)
   1417c:	00053c23          	sd	zero,24(a0)
   14180:	02053023          	sd	zero,32(a0)
   14184:	02053423          	sd	zero,40(a0)
   14188:	02053823          	sd	zero,48(a0)
   1418c:	02053c23          	sd	zero,56(a0)
   14190:	0005be83          	ld	t4,0(a1)
   14194:	00063f03          	ld	t5,0(a2)
   14198:	0006b903          	ld	s2,0(a3)
   1419c:	00eef7b3          	and	a5,t4,a4
   141a0:	020ede93          	srli	t4,t4,0x20
   141a4:	00ef74b3          	and	s1,t5,a4
   141a8:	020f5f13          	srli	t5,t5,0x20
   141ac:	02978e33          	mul	t3,a5,s1
   141b0:	0086bf83          	ld	t6,8(a3)
   141b4:	03e787b3          	mul	a5,a5,t5
   141b8:	0106b383          	ld	t2,16(a3)
   141bc:	029e84b3          	mul	s1,t4,s1
   141c0:	7288                	ld	a0,32(a3)
   141c2:	03ee8433          	mul	s0,t4,t5
   141c6:	0186be83          	ld	t4,24(a3)
   141ca:	020e5f13          	srli	t5,t3,0x20
   141ce:	00ee72b3          	and	t0,t3,a4
   141d2:	00e7f9b3          	and	s3,a5,a4
   141d6:	0207de13          	srli	t3,a5,0x20
   141da:	013f07b3          	add	a5,t5,s3
   141de:	00e4ff33          	and	t5,s1,a4
   141e2:	97fa                	add	a5,a5,t5
   141e4:	9081                	srli	s1,s1,0x20
   141e6:	02079f13          	slli	t5,a5,0x20
   141ea:	9e26                	add	t3,t3,s1
   141ec:	01e2ef33          	or	t5,t0,t5
   141f0:	9e22                	add	t3,t3,s0
   141f2:	997a                	add	s2,s2,t5
   141f4:	9381                	srli	a5,a5,0x20
   141f6:	0126b023          	sd	s2,0(a3)
   141fa:	01e93933          	sltu	s2,s2,t5
   141fe:	6184                	ld	s1,0(a1)
   14200:	9e3e                	add	t3,t3,a5
   14202:	00863f03          	ld	t5,8(a2)
   14206:	00e4f7b3          	and	a5,s1,a4
   1420a:	9081                	srli	s1,s1,0x20
   1420c:	00ef72b3          	and	t0,t5,a4
   14210:	020f5f13          	srli	t5,t5,0x20
   14214:	02578433          	mul	s0,a5,t0
   14218:	03e787b3          	mul	a5,a5,t5
   1421c:	025482b3          	mul	t0,s1,t0
   14220:	03e484b3          	mul	s1,s1,t5
   14224:	02045f13          	srli	t5,s0,0x20
   14228:	8c79                	and	s0,s0,a4
   1422a:	00e7f9b3          	and	s3,a5,a4
   1422e:	9381                	srli	a5,a5,0x20
   14230:	9f4e                	add	t5,t5,s3
   14232:	00e2f9b3          	and	s3,t0,a4
   14236:	9f4e                	add	t5,t5,s3
   14238:	0202d293          	srli	t0,t0,0x20
   1423c:	020f1993          	slli	s3,t5,0x20
   14240:	9796                	add	a5,a5,t0
   14242:	01346433          	or	s0,s0,s3
   14246:	97a6                	add	a5,a5,s1
   14248:	9fa2                	add	t6,t6,s0
   1424a:	020f5f13          	srli	t5,t5,0x20
   1424e:	9e7e                	add	t3,t3,t6
   14250:	9f3e                	add	t5,t5,a5
   14252:	9e4a                	add	t3,t3,s2
   14254:	008fb433          	sltu	s0,t6,s0
   14258:	01c6b423          	sd	t3,8(a3)
   1425c:	01fe34b3          	sltu	s1,t3,t6
   14260:	0005b903          	ld	s2,0(a1)
   14264:	01063e03          	ld	t3,16(a2)
   14268:	00e977b3          	and	a5,s2,a4
   1426c:	02095913          	srli	s2,s2,0x20
   14270:	00ee7fb3          	and	t6,t3,a4
   14274:	020e5e13          	srli	t3,t3,0x20
   14278:	03f782b3          	mul	t0,a5,t6
   1427c:	03c787b3          	mul	a5,a5,t3
   14280:	03f90fb3          	mul	t6,s2,t6
   14284:	03c90933          	mul	s2,s2,t3
   14288:	0202de13          	srli	t3,t0,0x20
   1428c:	00e2f2b3          	and	t0,t0,a4
   14290:	00e7f9b3          	and	s3,a5,a4
   14294:	9381                	srli	a5,a5,0x20
   14296:	9e4e                	add	t3,t3,s3
   14298:	00eff9b3          	and	s3,t6,a4
   1429c:	9e4e                	add	t3,t3,s3
   1429e:	020fdf93          	srli	t6,t6,0x20
   142a2:	020e1993          	slli	s3,t3,0x20
   142a6:	97fe                	add	a5,a5,t6
   142a8:	0132e2b3          	or	t0,t0,s3
   142ac:	97ca                	add	a5,a5,s2
   142ae:	9396                	add	t2,t2,t0
   142b0:	020e5f93          	srli	t6,t3,0x20
   142b4:	01e38e33          	add	t3,t2,t5
   142b8:	9fbe                	add	t6,t6,a5
   142ba:	008e07b3          	add	a5,t3,s0
   142be:	0053b2b3          	sltu	t0,t2,t0
   142c2:	97a6                	add	a5,a5,s1
   142c4:	ea9c                	sd	a5,16(a3)
   142c6:	0077b3b3          	sltu	t2,a5,t2
   142ca:	0005bf03          	ld	t5,0(a1)
   142ce:	6e00                	ld	s0,24(a2)
   142d0:	00ef77b3          	and	a5,t5,a4
   142d4:	020f5f13          	srli	t5,t5,0x20
   142d8:	00e474b3          	and	s1,s0,a4
   142dc:	9001                	srli	s0,s0,0x20
   142de:	02978e33          	mul	t3,a5,s1
   142e2:	028787b3          	mul	a5,a5,s0
   142e6:	029f04b3          	mul	s1,t5,s1
   142ea:	028f0f33          	mul	t5,t5,s0
   142ee:	020e5413          	srli	s0,t3,0x20
   142f2:	00ee7e33          	and	t3,t3,a4
   142f6:	00e7f933          	and	s2,a5,a4
   142fa:	9381                	srli	a5,a5,0x20
   142fc:	944a                	add	s0,s0,s2
   142fe:	00e4f933          	and	s2,s1,a4
   14302:	944a                	add	s0,s0,s2
   14304:	9f2a                	add	t5,t5,a0
   14306:	02041913          	slli	s2,s0,0x20
   1430a:	97fa                	add	a5,a5,t5
   1430c:	012e6e33          	or	t3,t3,s2
   14310:	9081                	srli	s1,s1,0x20
   14312:	9ef2                	add	t4,t4,t3
   14314:	97a6                	add	a5,a5,s1
   14316:	01df8f33          	add	t5,t6,t4
   1431a:	9001                	srli	s0,s0,0x20
   1431c:	9f16                	add	t5,t5,t0
   1431e:	01cebe33          	sltu	t3,t4,t3
   14322:	9f1e                	add	t5,t5,t2
   14324:	97a2                	add	a5,a5,s0
   14326:	97f2                	add	a5,a5,t3
   14328:	01df3eb3          	sltu	t4,t5,t4
   1432c:	97f6                	add	a5,a5,t4
   1432e:	01e6bc23          	sd	t5,24(a3)
   14332:	f29c                	sd	a5,32(a3)
   14334:	00a7b533          	sltu	a0,a5,a0
   14338:	03180963          	beq	a6,a7,1436a <fn_mul_4x4_u512_ct+0x212>
   1433c:	769c                	ld	a5,40(a3)
   1433e:	00180e1b          	addiw	t3,a6,1
   14342:	953e                	add	a0,a0,a5
   14344:	f688                	sd	a0,40(a3)
   14346:	00f53533          	sltu	a0,a0,a5
   1434a:	031e0663          	beq	t3,a7,14376 <fn_mul_4x4_u512_ct+0x21e>
   1434e:	7a9c                	ld	a5,48(a3)
   14350:	953e                	add	a0,a0,a5
   14352:	fa88                	sd	a0,48(a3)
   14354:	00f53533          	sltu	a0,a0,a5
   14358:	02680363          	beq	a6,t1,1437e <fn_mul_4x4_u512_ct+0x226>
   1435c:	7e9c                	ld	a5,56(a3)
   1435e:	06a1                	addi	a3,a3,8
   14360:	05a1                	addi	a1,a1,8
   14362:	8872                	mv	a6,t3
   14364:	97aa                	add	a5,a5,a0
   14366:	fa9c                	sd	a5,48(a3)
   14368:	b525                	j	14190 <fn_mul_4x4_u512_ct+0x38>
   1436a:	6462                	ld	s0,24(sp)
   1436c:	64c2                	ld	s1,16(sp)
   1436e:	6922                	ld	s2,8(sp)
   14370:	6982                	ld	s3,0(sp)
   14372:	6105                	addi	sp,sp,32
   14374:	8082                	ret
   14376:	05a1                	addi	a1,a1,8
   14378:	06a1                	addi	a3,a3,8
   1437a:	4821                	li	a6,8
   1437c:	bd11                	j	14190 <fn_mul_4x4_u512_ct+0x38>
   1437e:	05a1                	addi	a1,a1,8
   14380:	06a1                	addi	a3,a3,8
   14382:	481d                	li	a6,7
   14384:	b531                	j	14190 <fn_mul_4x4_u512_ct+0x38>

0000000000014386 <fn_mont_reduce_ct>:
   14386:	7119                	addi	sp,sp,-128
   14388:	327fa7b7          	lui	a5,0x327fa
   1438c:	e8878793          	addi	a5,a5,-376 # 327f9e88 <__BSS_END__+0x327c0770>
   14390:	53bbf737          	lui	a4,0x53bbf
   14394:	e03e                	sd	a5,0(sp)
   14396:	40970793          	addi	a5,a4,1033 # 53bbf409 <__BSS_END__+0x53b85cf1>
   1439a:	fc62                	sd	s8,56(sp)
   1439c:	2a001813          	bseti	a6,zero,0x20
   143a0:	f866                	sd	s9,48(sp)
   143a2:	39d54c37          	lui	s8,0x39d54
   143a6:	f46a                	sd	s10,40(sp)
   143a8:	72351cb7          	lui	s9,0x72351
   143ac:	f06e                	sd	s11,32(sp)
   143ae:	21c60d37          	lui	s10,0x21c60
   143b2:	7203edb7          	lui	s11,0x7203e
   143b6:	fca2                	sd	s0,120(sp)
   143b8:	f8a6                	sd	s1,112(sp)
   143ba:	86ae                	mv	a3,a1
   143bc:	f4ca                	sd	s2,104(sp)
   143be:	187d                	addi	a6,a6,-1
   143c0:	f0ce                	sd	s3,96(sp)
   143c2:	975c8c93          	addi	s9,s9,-1675 # 72350975 <__BSS_END__+0x7231725d>
   143c6:	ecd2                	sd	s4,88(sp)
   143c8:	123c0c13          	addi	s8,s8,291 # 39d54123 <__BSS_END__+0x39d1aa0b>
   143cc:	e8d6                	sd	s5,80(sp)
   143ce:	52bd0d13          	addi	s10,s10,1323 # 21c6052b <__BSS_END__+0x21c26e13>
   143d2:	e0de                	sd	s7,64(sp)
   143d4:	f6bd8d93          	addi	s11,s11,-149 # 7203df6b <__BSS_END__+0x72004853>
   143d8:	e43e                	sd	a5,8(sp)
   143da:	e82a                	sd	a0,16(sp)
   143dc:	ec2e                	sd	a1,24(sp)
   143de:	e4da                	sd	s6,72(sp)
   143e0:	4b15                	li	s6,5
   143e2:	0006b383          	ld	t2,0(a3)
   143e6:	001b0a1b          	addiw	s4,s6,1
   143ea:	6582                	ld	a1,0(sp)
   143ec:	68a2                	ld	a7,8(sp)
   143ee:	0103f7b3          	and	a5,t2,a6
   143f2:	0203d713          	srli	a4,t2,0x20
   143f6:	03978633          	mul	a2,a5,s9
   143fa:	02b787b3          	mul	a5,a5,a1
   143fe:	03970733          	mul	a4,a4,s9
   14402:	02065593          	srli	a1,a2,0x20
   14406:	01067633          	and	a2,a2,a6
   1440a:	0107f7b3          	and	a5,a5,a6
   1440e:	97ae                	add	a5,a5,a1
   14410:	01077733          	and	a4,a4,a6
   14414:	97ba                	add	a5,a5,a4
   14416:	1782                	slli	a5,a5,0x20
   14418:	8fd1                	or	a5,a5,a2
   1441a:	0107feb3          	and	t4,a5,a6
   1441e:	9381                	srli	a5,a5,0x20
   14420:	031e8e33          	mul	t3,t4,a7
   14424:	020e9713          	slli	a4,t4,0x20
   14428:	038e8fb3          	mul	t6,t4,s8
   1442c:	41d70733          	sub	a4,a4,t4
   14430:	03ae85b3          	mul	a1,t4,s10
   14434:	02079493          	slli	s1,a5,0x20
   14438:	03be8533          	mul	a0,t4,s11
   1443c:	8c9d                	sub	s1,s1,a5
   1443e:	03878433          	mul	s0,a5,s8
   14442:	010e72b3          	and	t0,t3,a6
   14446:	03a78f33          	mul	t5,a5,s10
   1444a:	020fd613          	srli	a2,t6,0x20
   1444e:	03178bb3          	mul	s7,a5,a7
   14452:	0205d313          	srli	t1,a1,0x20
   14456:	010578b3          	and	a7,a0,a6
   1445a:	9616                	add	a2,a2,t0
   1445c:	01047933          	and	s2,s0,a6
   14460:	9346                	add	t1,t1,a7
   14462:	010f72b3          	and	t0,t5,a6
   14466:	9001                	srli	s0,s0,0x20
   14468:	020e5e13          	srli	t3,t3,0x20
   1446c:	010779b3          	and	s3,a4,a6
   14470:	964a                	add	a2,a2,s2
   14472:	9301                	srli	a4,a4,0x20
   14474:	9316                	add	t1,t1,t0
   14476:	03b78ab3          	mul	s5,a5,s11
   1447a:	01fe9893          	slli	a7,t4,0x1f
   1447e:	9e22                	add	t3,t3,s0
   14480:	9e5e                	add	t3,t3,s7
   14482:	02031413          	slli	s0,t1,0x20
   14486:	0104f933          	and	s2,s1,a6
   1448a:	00e982b3          	add	t0,s3,a4
   1448e:	41d888b3          	sub	a7,a7,t4
   14492:	0105f5b3          	and	a1,a1,a6
   14496:	02061e93          	slli	t4,a2,0x20
   1449a:	9201                	srli	a2,a2,0x20
   1449c:	92ca                	add	t0,t0,s2
   1449e:	8dc1                	or	a1,a1,s0
   144a0:	010fffb3          	and	t6,t6,a6
   144a4:	6680                	ld	s0,8(a3)
   144a6:	020f5f13          	srli	t5,t5,0x20
   144aa:	9672                	add	a2,a2,t3
   144ac:	9101                	srli	a0,a0,0x20
   144ae:	0106be03          	ld	t3,16(a3)
   144b2:	01feeeb3          	or	t4,t4,t6
   144b6:	957a                	add	a0,a0,t5
   144b8:	02029f93          	slli	t6,t0,0x20
   144bc:	02035313          	srli	t1,t1,0x20
   144c0:	013fefb3          	or	t6,t6,s3
   144c4:	9556                	add	a0,a0,s5
   144c6:	942e                	add	s0,s0,a1
   144c8:	9e7e                	add	t3,t3,t6
   144ca:	0886                	slli	a7,a7,0x1
   144cc:	951a                	add	a0,a0,t1
   144ce:	993a                	add	s2,s2,a4
   144d0:	9572                	add	a0,a0,t3
   144d2:	0108ff33          	and	t5,a7,a6
   144d6:	01f79313          	slli	t1,a5,0x1f
   144da:	00b435b3          	sltu	a1,s0,a1
   144de:	9e9e                	add	t4,t4,t2
   144e0:	0204db93          	srli	s7,s1,0x20
   144e4:	9f4a                	add	t5,t5,s2
   144e6:	40f30333          	sub	t1,t1,a5
   144ea:	95aa                	add	a1,a1,a0
   144ec:	6e9c                	ld	a5,24(a3)
   144ee:	9622                	add	a2,a2,s0
   144f0:	7288                	ld	a0,32(a3)
   144f2:	020f1913          	slli	s2,t5,0x20
   144f6:	007eb3b3          	sltu	t2,t4,t2
   144fa:	975e                	add	a4,a4,s7
   144fc:	961e                	add	a2,a2,t2
   144fe:	01396933          	or	s2,s2,s3
   14502:	9726                	add	a4,a4,s1
   14504:	0202d293          	srli	t0,t0,0x20
   14508:	97ca                	add	a5,a5,s2
   1450a:	00863433          	sltu	s0,a2,s0
   1450e:	20a32333          	sh1add	t1,t1,a0
   14512:	9716                	add	a4,a4,t0
   14514:	95a2                	add	a1,a1,s0
   14516:	973e                	add	a4,a4,a5
   14518:	01fe3fb3          	sltu	t6,t3,t6
   1451c:	935e                	add	t1,t1,s7
   1451e:	0208d893          	srli	a7,a7,0x20
   14522:	01c5be33          	sltu	t3,a1,t3
   14526:	977e                	add	a4,a4,t6
   14528:	9346                	add	t1,t1,a7
   1452a:	020f5f13          	srli	t5,t5,0x20
   1452e:	9772                	add	a4,a4,t3
   14530:	0127b933          	sltu	s2,a5,s2
   14534:	937a                	add	t1,t1,t5
   14536:	00f737b3          	sltu	a5,a4,a5
   1453a:	991a                	add	s2,s2,t1
   1453c:	e690                	sd	a2,8(a3)
   1453e:	7690                	ld	a2,40(a3)
   14540:	97ca                	add	a5,a5,s2
   14542:	ee98                	sd	a4,24(a3)
   14544:	00a7b533          	sltu	a0,a5,a0
   14548:	7698                	ld	a4,40(a3)
   1454a:	962a                	add	a2,a2,a0
   1454c:	f29c                	sd	a5,32(a3)
   1454e:	01d6b023          	sd	t4,0(a3)
   14552:	47a5                	li	a5,9
   14554:	ea8c                	sd	a1,16(a3)
   14556:	00e63733          	sltu	a4,a2,a4
   1455a:	f690                	sd	a2,40(a3)
   1455c:	02fa0963          	beq	s4,a5,1458e <fn_mont_reduce_ct+0x208>
   14560:	7a90                	ld	a2,48(a3)
   14562:	00e607b3          	add	a5,a2,a4
   14566:	471d                	li	a4,7
   14568:	fa9c                	sd	a5,48(a3)
   1456a:	00c7b7b3          	sltu	a5,a5,a2
   1456e:	24eb0163          	beq	s6,a4,147b0 <fn_mont_reduce_ct+0x42a>
   14572:	7e98                	ld	a4,56(a3)
   14574:	97ba                	add	a5,a5,a4
   14576:	fe9c                	sd	a5,56(a3)
   14578:	00e7b7b3          	sltu	a5,a5,a4
   1457c:	4719                	li	a4,6
   1457e:	22eb0c63          	beq	s6,a4,147b6 <fn_mont_reduce_ct+0x430>
   14582:	62b8                	ld	a4,64(a3)
   14584:	06a1                	addi	a3,a3,8
   14586:	8b52                	mv	s6,s4
   14588:	97ba                	add	a5,a5,a4
   1458a:	fe9c                	sd	a5,56(a3)
   1458c:	bd99                	j	143e2 <fn_mont_reduce_ct+0x5c>
   1458e:	68e2                	ld	a7,24(sp)
   14590:	ffeb1337          	lui	t1,0xffeb1
   14594:	65c2                	ld	a1,16(sp)
   14596:	10330313          	addi	t1,t1,259 # ffffffffffeb1103 <__BSS_END__+0xffffffffffe779eb>
   1459a:	033e                	slli	t1,t1,0xf
   1459c:	c6fe17b7          	lui	a5,0xc6fe1
   145a0:	0208b503          	ld	a0,32(a7)
   145a4:	0792                	slli	a5,a5,0x4
   145a6:	ed930313          	addi	t1,t1,-295
   145aa:	4a778793          	addi	a5,a5,1191 # ffffffffc6fe14a7 <__BSS_END__+0xffffffffc6fa7d8f>
   145ae:	0336                	slli	t1,t1,0xd
   145b0:	07b2                	slli	a5,a5,0xc
   145b2:	e188                	sd	a0,0(a1)
   145b4:	8ab30313          	addi	t1,t1,-1877
   145b8:	0288be03          	ld	t3,40(a7)
   145bc:	0014f637          	lui	a2,0x14f
   145c0:	efd60613          	addi	a2,a2,-259 # 14eefd <__BSS_END__+0x1157e5>
   145c4:	033a                	slli	t1,t1,0xe
   145c6:	f1d78793          	addi	a5,a5,-227
   145ca:	063e                	slli	a2,a2,0xf
   145cc:	01c5b423          	sd	t3,8(a1)
   145d0:	edd30313          	addi	t1,t1,-291
   145d4:	0308b283          	ld	t0,48(a7)
   145d8:	07c6                	slli	a5,a5,0x11
   145da:	12760613          	addi	a2,a2,295
   145de:	c6fe1837          	lui	a6,0xc6fe1
   145e2:	3901f737          	lui	a4,0x3901f
   145e6:	0812                	slli	a6,a6,0x4
   145e8:	0055b823          	sd	t0,16(a1)
   145ec:	0712                	slli	a4,a4,0x4
   145ee:	0388be83          	ld	t4,56(a7)
   145f2:	ad478793          	addi	a5,a5,-1324
   145f6:	0636                	slli	a2,a2,0xd
   145f8:	4a780813          	addi	a6,a6,1191 # ffffffffc6fe14a7 <__BSS_END__+0xffffffffc6fa7d8f>
   145fc:	b5970713          	addi	a4,a4,-1191 # 3901eb59 <__BSS_END__+0x38fe5441>
   14600:	75560613          	addi	a2,a2,1877
   14604:	01d5bc23          	sd	t4,24(a1)
   14608:	0832                	slli	a6,a6,0xc
   1460a:	0408b683          	ld	a3,64(a7)
   1460e:	0732                	slli	a4,a4,0xc
   14610:	063a                	slli	a2,a2,0xe
   14612:	f1d80813          	addi	a6,a6,-227
   14616:	0e370713          	addi	a4,a4,227
   1461a:	12260613          	addi	a2,a2,290
   1461e:	8a85                	andi	a3,a3,1
   14620:	0846                	slli	a6,a6,0x11
   14622:	40d006b3          	neg	a3,a3
   14626:	0746                	slli	a4,a4,0x11
   14628:	0066f3b3          	and	t2,a3,t1
   1462c:	8ff5                	and	a5,a5,a3
   1462e:	93aa                	add	t2,t2,a0
   14630:	97f2                	add	a5,a5,t3
   14632:	00a3b533          	sltu	a0,t2,a0
   14636:	00763933          	sltu	s2,a2,t2
   1463a:	00f504b3          	add	s1,a0,a5
   1463e:	ad580813          	addi	a6,a6,-1323
   14642:	00a4b533          	sltu	a0,s1,a0
   14646:	52a70713          	addi	a4,a4,1322
   1464a:	01c7b7b3          	sltu	a5,a5,t3
   1464e:	00194913          	xori	s2,s2,1
   14652:	01048e33          	add	t3,s1,a6
   14656:	8fc9                	or	a5,a5,a0
   14658:	00973533          	sltu	a0,a4,s1
   1465c:	012e38b3          	sltu	a7,t3,s2
   14660:	0ff7f793          	zext.b	a5,a5
   14664:	00153513          	seqz	a0,a0
   14668:	9796                	add	a5,a5,t0
   1466a:	01156533          	or	a0,a0,a7
   1466e:	00178993          	addi	s3,a5,1
   14672:	0ff57513          	zext.b	a0,a0
   14676:	2a001893          	bseti	a7,zero,0x20
   1467a:	0116f6b3          	and	a3,a3,a7
   1467e:	96f6                	add	a3,a3,t4
   14680:	00a9b8b3          	sltu	a7,s3,a0
   14684:	0057b2b3          	sltu	t0,a5,t0
   14688:	01303433          	snez	s0,s3
   1468c:	92b6                	add	t0,t0,a3
   1468e:	01146433          	or	s0,s0,a7
   14692:	2a001f13          	bseti	t5,zero,0x20
   14696:	0f05                	addi	t5,t5,1
   14698:	01e28fb3          	add	t6,t0,t5
   1469c:	0ff47413          	zext.b	s0,s0
   146a0:	2a001693          	bseti	a3,zero,0x20
   146a4:	fff6c693          	not	a3,a3
   146a8:	008fbeb3          	sltu	t4,t6,s0
   146ac:	00d2b8b3          	sltu	a7,t0,a3
   146b0:	01d8e8b3          	or	a7,a7,t4
   146b4:	412e0e33          	sub	t3,t3,s2
   146b8:	0018c893          	xori	a7,a7,1
   146bc:	00638eb3          	add	t4,t2,t1
   146c0:	0ff8f893          	zext.b	a7,a7
   146c4:	40a98533          	sub	a0,s3,a0
   146c8:	41100933          	neg	s2,a7
   146cc:	18fd                	addi	a7,a7,-1
   146ce:	0078f3b3          	and	t2,a7,t2
   146d2:	012efeb3          	and	t4,t4,s2
   146d6:	007eeeb3          	or	t4,t4,t2
   146da:	0098f4b3          	and	s1,a7,s1
   146de:	012e7e33          	and	t3,t3,s2
   146e2:	01d63633          	sltu	a2,a2,t4
   146e6:	009e6e33          	or	t3,t3,s1
   146ea:	00164613          	xori	a2,a2,1
   146ee:	9872                	add	a6,a6,t3
   146f0:	01c73733          	sltu	a4,a4,t3
   146f4:	00c833b3          	sltu	t2,a6,a2
   146f8:	00f8f7b3          	and	a5,a7,a5
   146fc:	01257533          	and	a0,a0,s2
   14700:	00173713          	seqz	a4,a4
   14704:	8d5d                	or	a0,a0,a5
   14706:	00776733          	or	a4,a4,t2
   1470a:	0ff77713          	zext.b	a4,a4
   1470e:	00150393          	addi	t2,a0,1
   14712:	408f8fb3          	sub	t6,t6,s0
   14716:	0058f8b3          	and	a7,a7,t0
   1471a:	012fffb3          	and	t6,t6,s2
   1471e:	00e3b2b3          	sltu	t0,t2,a4
   14722:	007037b3          	snez	a5,t2
   14726:	011fefb3          	or	t6,t6,a7
   1472a:	0057e7b3          	or	a5,a5,t0
   1472e:	01ef88b3          	add	a7,t6,t5
   14732:	0ff7ff13          	zext.b	t5,a5
   14736:	00dfb6b3          	sltu	a3,t6,a3
   1473a:	01e8b2b3          	sltu	t0,a7,t5
   1473e:	40c80833          	sub	a6,a6,a2
   14742:	0056e6b3          	or	a3,a3,t0
   14746:	40e38633          	sub	a2,t2,a4
   1474a:	0016c693          	xori	a3,a3,1
   1474e:	006e87b3          	add	a5,t4,t1
   14752:	0ff6f713          	zext.b	a4,a3
   14756:	41e888b3          	sub	a7,a7,t5
   1475a:	40e00333          	neg	t1,a4
   1475e:	177d                	addi	a4,a4,-1
   14760:	7466                	ld	s0,120(sp)
   14762:	01d77eb3          	and	t4,a4,t4
   14766:	01c77e33          	and	t3,a4,t3
   1476a:	006676b3          	and	a3,a2,t1
   1476e:	8d79                	and	a0,a0,a4
   14770:	0067f7b3          	and	a5,a5,t1
   14774:	00687833          	and	a6,a6,t1
   14778:	0068f8b3          	and	a7,a7,t1
   1477c:	01f77733          	and	a4,a4,t6
   14780:	01d7e7b3          	or	a5,a5,t4
   14784:	01c86633          	or	a2,a6,t3
   14788:	8ec9                	or	a3,a3,a0
   1478a:	00e8e733          	or	a4,a7,a4
   1478e:	e19c                	sd	a5,0(a1)
   14790:	e590                	sd	a2,8(a1)
   14792:	74c6                	ld	s1,112(sp)
   14794:	e994                	sd	a3,16(a1)
   14796:	7926                	ld	s2,104(sp)
   14798:	ed98                	sd	a4,24(a1)
   1479a:	7986                	ld	s3,96(sp)
   1479c:	6a66                	ld	s4,88(sp)
   1479e:	6ac6                	ld	s5,80(sp)
   147a0:	6b26                	ld	s6,72(sp)
   147a2:	6b86                	ld	s7,64(sp)
   147a4:	7c62                	ld	s8,56(sp)
   147a6:	7cc2                	ld	s9,48(sp)
   147a8:	7d22                	ld	s10,40(sp)
   147aa:	7d82                	ld	s11,32(sp)
   147ac:	6109                	addi	sp,sp,128
   147ae:	8082                	ret
   147b0:	06a1                	addi	a3,a3,8
   147b2:	4b21                	li	s6,8
   147b4:	b13d                	j	143e2 <fn_mont_reduce_ct+0x5c>
   147b6:	06a1                	addi	a3,a3,8
   147b8:	4b1d                	li	s6,7
   147ba:	b125                	j	143e2 <fn_mont_reduce_ct+0x5c>

00000000000147bc <fn_mont_mul_ct>:
   147bc:	7171                	addi	sp,sp,-176
   147be:	f122                	sd	s0,160(sp)
   147c0:	842a                	mv	s0,a0
   147c2:	ed26                	sd	s1,152(sp)
   147c4:	850a                	mv	a0,sp
   147c6:	64f5                	lui	s1,0x1d
   147c8:	df04b783          	ld	a5,-528(s1) # 1cdf0 <__stack_chk_guard@GLIBC_2.27>
   147cc:	e53e                	sd	a5,136(sp)
   147ce:	4781                	li	a5,0
   147d0:	f506                	sd	ra,168(sp)
   147d2:	987ff0ef          	jal	14158 <fn_mul_4x4_u512_ct>
   147d6:	6782                	ld	a5,0(sp)
   147d8:	008c                	addi	a1,sp,64
   147da:	8522                	mv	a0,s0
   147dc:	e102                	sd	zero,128(sp)
   147de:	e0be                	sd	a5,64(sp)
   147e0:	67a2                	ld	a5,8(sp)
   147e2:	e4be                	sd	a5,72(sp)
   147e4:	67c2                	ld	a5,16(sp)
   147e6:	e8be                	sd	a5,80(sp)
   147e8:	67e2                	ld	a5,24(sp)
   147ea:	ecbe                	sd	a5,88(sp)
   147ec:	7782                	ld	a5,32(sp)
   147ee:	f0be                	sd	a5,96(sp)
   147f0:	77a2                	ld	a5,40(sp)
   147f2:	f4be                	sd	a5,104(sp)
   147f4:	77c2                	ld	a5,48(sp)
   147f6:	f8be                	sd	a5,112(sp)
   147f8:	77e2                	ld	a5,56(sp)
   147fa:	fcbe                	sd	a5,120(sp)
   147fc:	b8bff0ef          	jal	14386 <fn_mont_reduce_ct>
   14800:	672a                	ld	a4,136(sp)
   14802:	df04b783          	ld	a5,-528(s1)
   14806:	8fb9                	xor	a5,a5,a4
   14808:	4701                	li	a4,0
   1480a:	e791                	bnez	a5,14816 <fn_mont_mul_ct+0x5a>
   1480c:	70aa                	ld	ra,168(sp)
   1480e:	740a                	ld	s0,160(sp)
   14810:	64ea                	ld	s1,152(sp)
   14812:	614d                	addi	sp,sp,176
   14814:	8082                	ret
