
correctness_compare_asm_O3：     文件格式 elf64-littleriscv


Disassembly of section .plt:

0000000000010b20 <_PROCEDURE_LINKAGE_TABLE_>:
   10b20:	97 c3 00 00 33 03 c3 41 03 be 03 4d 13 03 43 fd     ....3..A...M..C.
   10b30:	93 82 03 4d 13 53 13 00 83 b2 82 00 67 00 0e 00     ...M.S......g...

0000000000010b40 <__libc_start_main@plt>:
   10b40:	0000ce17          	auipc	t3,0xc
   10b44:	4c0e3e03          	ld	t3,1216(t3) # 1d000 <__libc_start_main@GLIBC_2.34>
   10b48:	000e0367          	jalr	t1,t3
   10b4c:	00000013          	nop

0000000000010b50 <sm2_z256_point_mul@plt>:
   10b50:	0000ce17          	auipc	t3,0xc
   10b54:	4b8e3e03          	ld	t3,1208(t3) # 1d008 <sm2_z256_point_mul@Base>
   10b58:	000e0367          	jalr	t1,t3
   10b5c:	00000013          	nop

0000000000010b60 <sm2_z256_modn_mont_mul@plt>:
   10b60:	0000ce17          	auipc	t3,0xc
   10b64:	4b0e3e03          	ld	t3,1200(t3) # 1d010 <sm2_z256_modn_mont_mul@Base>
   10b68:	000e0367          	jalr	t1,t3
   10b6c:	00000013          	nop

0000000000010b70 <sm2_z256_to_bytes@plt>:
   10b70:	0000ce17          	auipc	t3,0xc
   10b74:	4a8e3e03          	ld	t3,1192(t3) # 1d018 <sm2_z256_to_bytes@Base>
   10b78:	000e0367          	jalr	t1,t3
   10b7c:	00000013          	nop

0000000000010b80 <__printf_chk@plt>:
   10b80:	0000ce17          	auipc	t3,0xc
   10b84:	4a0e3e03          	ld	t3,1184(t3) # 1d020 <__printf_chk@GLIBC_2.27>
   10b88:	000e0367          	jalr	t1,t3
   10b8c:	00000013          	nop

0000000000010b90 <sm2_z256_modp_mont_sqr@plt>:
   10b90:	0000ce17          	auipc	t3,0xc
   10b94:	498e3e03          	ld	t3,1176(t3) # 1d028 <sm2_z256_modp_mont_sqr@Base>
   10b98:	000e0367          	jalr	t1,t3
   10b9c:	00000013          	nop

0000000000010ba0 <sm2_z256_modp_to_mont@plt>:
   10ba0:	0000ce17          	auipc	t3,0xc
   10ba4:	490e3e03          	ld	t3,1168(t3) # 1d030 <sm2_z256_modp_to_mont@Base>
   10ba8:	000e0367          	jalr	t1,t3
   10bac:	00000013          	nop

0000000000010bb0 <putchar@plt>:
   10bb0:	0000ce17          	auipc	t3,0xc
   10bb4:	488e3e03          	ld	t3,1160(t3) # 1d038 <putchar@GLIBC_2.27>
   10bb8:	000e0367          	jalr	t1,t3
   10bbc:	00000013          	nop

0000000000010bc0 <__stack_chk_fail@plt>:
   10bc0:	0000ce17          	auipc	t3,0xc
   10bc4:	480e3e03          	ld	t3,1152(t3) # 1d040 <__stack_chk_fail@GLIBC_2.27>
   10bc8:	000e0367          	jalr	t1,t3
   10bcc:	00000013          	nop

0000000000010bd0 <memcpy@plt>:
   10bd0:	0000ce17          	auipc	t3,0xc
   10bd4:	478e3e03          	ld	t3,1144(t3) # 1d048 <memcpy@GLIBC_2.27>
   10bd8:	000e0367          	jalr	t1,t3
   10bdc:	00000013          	nop

0000000000010be0 <sm2_z256_modp_add@plt>:
   10be0:	0000ce17          	auipc	t3,0xc
   10be4:	470e3e03          	ld	t3,1136(t3) # 1d050 <sm2_z256_modp_add@Base>
   10be8:	000e0367          	jalr	t1,t3
   10bec:	00000013          	nop

0000000000010bf0 <sm2_z256_modp_mont_inv@plt>:
   10bf0:	0000ce17          	auipc	t3,0xc
   10bf4:	468e3e03          	ld	t3,1128(t3) # 1d058 <sm2_z256_modp_mont_inv@Base>
   10bf8:	000e0367          	jalr	t1,t3
   10bfc:	00000013          	nop

0000000000010c00 <sm2_z256_modn_mul@plt>:
   10c00:	0000ce17          	auipc	t3,0xc
   10c04:	460e3e03          	ld	t3,1120(t3) # 1d060 <sm2_z256_modn_mul@Base>
   10c08:	000e0367          	jalr	t1,t3
   10c0c:	00000013          	nop

0000000000010c10 <sm2_z256_modp_from_mont@plt>:
   10c10:	0000ce17          	auipc	t3,0xc
   10c14:	458e3e03          	ld	t3,1112(t3) # 1d068 <sm2_z256_modp_from_mont@Base>
   10c18:	000e0367          	jalr	t1,t3
   10c1c:	00000013          	nop

0000000000010c20 <sm2_z256_modp_mont_mul@plt>:
   10c20:	0000ce17          	auipc	t3,0xc
   10c24:	450e3e03          	ld	t3,1104(t3) # 1d070 <sm2_z256_modp_mont_mul@Base>
   10c28:	000e0367          	jalr	t1,t3
   10c2c:	00000013          	nop

0000000000010c30 <puts@plt>:
   10c30:	0000ce17          	auipc	t3,0xc
   10c34:	448e3e03          	ld	t3,1096(t3) # 1d078 <puts@GLIBC_2.27>
   10c38:	000e0367          	jalr	t1,t3
   10c3c:	00000013          	nop

0000000000010c40 <sm2_z256_modp_sub@plt>:
   10c40:	0000ce17          	auipc	t3,0xc
   10c44:	440e3e03          	ld	t3,1088(t3) # 1d080 <sm2_z256_modp_sub@Base>
   10c48:	000e0367          	jalr	t1,t3
   10c4c:	00000013          	nop

0000000000010c50 <sm2_z256_modn_from_mont@plt>:
   10c50:	0000ce17          	auipc	t3,0xc
   10c54:	438e3e03          	ld	t3,1080(t3) # 1d088 <sm2_z256_modn_from_mont@Base>
   10c58:	000e0367          	jalr	t1,t3
   10c5c:	00000013          	nop

0000000000010c60 <sm2_z256_point_mul_generator@plt>:
   10c60:	0000ce17          	auipc	t3,0xc
   10c64:	430e3e03          	ld	t3,1072(t3) # 1d090 <sm2_z256_point_mul_generator@Base>
   10c68:	000e0367          	jalr	t1,t3
   10c6c:	00000013          	nop

0000000000010c70 <sm2_z256_from_bytes@plt>:
   10c70:	0000ce17          	auipc	t3,0xc
   10c74:	428e3e03          	ld	t3,1064(t3) # 1d098 <sm2_z256_from_bytes@Base>
   10c78:	000e0367          	jalr	t1,t3
   10c7c:	00000013          	nop

0000000000010c80 <memset@plt>:
   10c80:	0000ce17          	auipc	t3,0xc
   10c84:	420e3e03          	ld	t3,1056(t3) # 1d0a0 <memset@GLIBC_2.27>
   10c88:	000e0367          	jalr	t1,t3
   10c8c:	00000013          	nop

0000000000010c90 <sm2_z256_point_get_xy@plt>:
   10c90:	0000ce17          	auipc	t3,0xc
   10c94:	418e3e03          	ld	t3,1048(t3) # 1d0a8 <sm2_z256_point_get_xy@Base>
   10c98:	000e0367          	jalr	t1,t3
   10c9c:	00000013          	nop

Disassembly of section .text:

0000000000010ca0 <main>:
   10ca0:	df010113          	addi	sp,sp,-528
   10ca4:	6775                	lui	a4,0x1d
   10ca6:	6569                	lui	a0,0x1a
   10ca8:	df073783          	ld	a5,-528(a4) # 1cdf0 <__stack_chk_guard@GLIBC_2.27>
   10cac:	ef3e                	sd	a5,408(sp)
   10cae:	4781                	li	a5,0
   10cb0:	bb050513          	addi	a0,a0,-1104 # 19bb0 <_IO_stdin_used+0x450>
   10cb4:	20113423          	sd	ra,520(sp)
   10cb8:	20813023          	sd	s0,512(sp)
   10cbc:	4405                	li	s0,1
   10cbe:	ffa6                	sd	s1,504(sp)
   10cc0:	3e900493          	li	s1,1001
   10cc4:	fbca                	sd	s2,496(sp)
   10cc6:	f7ce                	sd	s3,488(sp)
   10cc8:	f3d2                	sd	s4,480(sp)
   10cca:	efd6                	sd	s5,472(sp)
   10ccc:	ebda                	sd	s6,464(sp)
   10cce:	e7de                	sd	s7,456(sp)
   10cd0:	e3e2                	sd	s8,448(sp)
   10cd2:	ff66                	sd	s9,440(sp)
   10cd4:	fb6a                	sd	s10,432(sp)
   10cd6:	f76e                	sd	s11,424(sp)
   10cd8:	f59ff0ef          	jal	10c30 <puts@plt>
   10cdc:	6569                	lui	a0,0x1a
   10cde:	bd050513          	addi	a0,a0,-1072 # 19bd0 <_IO_stdin_used+0x470>
   10ce2:	f4fff0ef          	jal	10c30 <puts@plt>
   10ce6:	65e9                	lui	a1,0x1a
   10ce8:	bf858593          	addi	a1,a1,-1032 # 19bf8 <_IO_stdin_used+0x498>
   10cec:	3e800613          	li	a2,1000
   10cf0:	4509                	li	a0,2
   10cf2:	e8fff0ef          	jal	10b80 <__printf_chk@plt>
   10cf6:	a021                	j	10cfe <main+0x5e>
   10cf8:	2405                	addiw	s0,s0,1
   10cfa:	109401e3          	beq	s0,s1,115fc <main+0x95c>
   10cfe:	0ff47513          	zext.b	a0,s0
   10d02:	7ce010ef          	jal	124d0 <test_fp_to_from_mont_once>
   10d06:	f96d                	bnez	a0,10cf8 <main+0x58>
   10d08:	85aa                	mv	a1,a0
   10d0a:	05810913          	addi	s2,sp,88
   10d0e:	6569                	lui	a0,0x1a
   10d10:	18a4                	addi	s1,sp,120
   10d12:	c0850513          	addi	a0,a0,-1016 # 19c08 <_IO_stdin_used+0x4a8>
   10d16:	09810993          	addi	s3,sp,152
   10d1a:	0b810a13          	addi	s4,sp,184
   10d1e:	0f810c13          	addi	s8,sp,248
   10d22:	0d810b13          	addi	s6,sp,216
   10d26:	13810c93          	addi	s9,sp,312
   10d2a:	0aa0                	addi	s0,sp,344
   10d2c:	193000ef          	jal	116be <mark_result>
   10d30:	08000b93          	li	s7,128
   10d34:	4d05                	li	s10,1
   10d36:	6de5                	lui	s11,0x19
   10d38:	6ae5                	lui	s5,0x19
   10d3a:	0ffd7793          	zext.b	a5,s10
   10d3e:	85de                	mv	a1,s7
   10d40:	853e                	mv	a0,a5
   10d42:	e43e                	sd	a5,8(sp)
   10d44:	673000ef          	jal	11bb6 <test_fp_add_once>
   10d48:	fc02                	sd	zero,56(sp)
   10d4a:	67a2                	ld	a5,8(sp)
   10d4c:	e82a                	sd	a0,16(sp)
   10d4e:	e082                	sd	zero,64(sp)
   10d50:	1838                	addi	a4,sp,56
   10d52:	e482                	sd	zero,72(sp)
   10d54:	e882                	sd	zero,80(sp)
   10d56:	00f70023          	sb	a5,0(a4)
   10d5a:	27b5                	addiw	a5,a5,13
   10d5c:	0705                	addi	a4,a4,1
   10d5e:	0ff7f793          	zext.b	a5,a5
   10d62:	fee91ae3          	bne	s2,a4,10d56 <main+0xb6>
   10d66:	76e2                	ld	a3,56(sp)
   10d68:	00093023          	sd	zero,0(s2)
   10d6c:	00093423          	sd	zero,8(s2)
   10d70:	874a                	mv	a4,s2
   10d72:	00093823          	sd	zero,16(s2)
   10d76:	87de                	mv	a5,s7
   10d78:	0016e693          	ori	a3,a3,1
   10d7c:	00093c23          	sd	zero,24(s2)
   10d80:	fc36                	sd	a3,56(sp)
   10d82:	00f70023          	sb	a5,0(a4)
   10d86:	27b5                	addiw	a5,a5,13
   10d88:	0705                	addi	a4,a4,1
   10d8a:	0ff7f793          	zext.b	a5,a5
   10d8e:	fee49ae3          	bne	s1,a4,10d82 <main+0xe2>
   10d92:	67e6                	ld	a5,88(sp)
   10d94:	182c                	addi	a1,sp,56
   10d96:	8526                	mv	a0,s1
   10d98:	0017e793          	ori	a5,a5,1
   10d9c:	ecbe                	sd	a5,88(sp)
   10d9e:	7db070ef          	jal	18d78 <fp_to_mont>
   10da2:	85ca                	mv	a1,s2
   10da4:	854e                	mv	a0,s3
   10da6:	7d3070ef          	jal	18d78 <fp_to_mont>
   10daa:	864e                	mv	a2,s3
   10dac:	85a6                	mv	a1,s1
   10dae:	8552                	mv	a0,s4
   10db0:	294070ef          	jal	18044 <fp_mont_sub>
   10db4:	77e6                	ld	a5,120(sp)
   10db6:	8662                	mv	a2,s8
   10db8:	85da                	mv	a1,s6
   10dba:	0a28                	addi	a0,sp,280
   10dbc:	edbe                	sd	a5,216(sp)
   10dbe:	678a                	ld	a5,128(sp)
   10dc0:	f1be                	sd	a5,224(sp)
   10dc2:	67aa                	ld	a5,136(sp)
   10dc4:	f5be                	sd	a5,232(sp)
   10dc6:	67ca                	ld	a5,144(sp)
   10dc8:	f9be                	sd	a5,240(sp)
   10dca:	67ea                	ld	a5,152(sp)
   10dcc:	fdbe                	sd	a5,248(sp)
   10dce:	778a                	ld	a5,160(sp)
   10dd0:	e23e                	sd	a5,256(sp)
   10dd2:	77aa                	ld	a5,168(sp)
   10dd4:	e63e                	sd	a5,264(sp)
   10dd6:	77ca                	ld	a5,176(sp)
   10dd8:	ea3e                	sd	a5,272(sp)
   10dda:	e67ff0ef          	jal	10c40 <sm2_z256_modp_sub@plt>
   10dde:	7692                	ld	a3,288(sp)
   10de0:	67f2                	ld	a5,280(sp)
   10de2:	000a3703          	ld	a4,0(s4)
   10de6:	e2b6                	sd	a3,320(sp)
   10de8:	76b2                	ld	a3,296(sp)
   10dea:	fe3e                	sd	a5,312(sp)
   10dec:	e6b6                	sd	a3,328(sp)
   10dee:	76d2                	ld	a3,304(sp)
   10df0:	eab6                	sd	a3,336(sp)
   10df2:	6af70763          	beq	a4,a5,114a0 <main+0x800>
   10df6:	67e9                	lui	a5,0x1a
   10df8:	86de                	mv	a3,s7
   10dfa:	c2878593          	addi	a1,a5,-984 # 19c28 <_IO_stdin_used+0x4c8>
   10dfe:	0ffd7613          	zext.b	a2,s10
   10e02:	4509                	li	a0,2
   10e04:	d7dff0ef          	jal	10b80 <__printf_chk@plt>
   10e08:	67e5                	lui	a5,0x19
   10e0a:	7b0d8593          	addi	a1,s11,1968 # 197b0 <_IO_stdin_used+0x50>
   10e0e:	7e878613          	addi	a2,a5,2024 # 197e8 <_IO_stdin_used+0x88>
   10e12:	4509                	li	a0,2
   10e14:	d6dff0ef          	jal	10b80 <__printf_chk@plt>
   10e18:	87d2                	mv	a5,s4
   10e1a:	0007c603          	lbu	a2,0(a5)
   10e1e:	7b8a8593          	addi	a1,s5,1976 # 197b8 <_IO_stdin_used+0x58>
   10e22:	e03e                	sd	a5,0(sp)
   10e24:	4509                	li	a0,2
   10e26:	d5bff0ef          	jal	10b80 <__printf_chk@plt>
   10e2a:	6782                	ld	a5,0(sp)
   10e2c:	0785                	addi	a5,a5,1
   10e2e:	fefb16e3          	bne	s6,a5,10e1a <main+0x17a>
   10e32:	4529                	li	a0,10
   10e34:	d7dff0ef          	jal	10bb0 <putchar@plt>
   10e38:	67e9                	lui	a5,0x1a
   10e3a:	7b0d8593          	addi	a1,s11,1968
   10e3e:	80078613          	addi	a2,a5,-2048 # 19800 <_IO_stdin_used+0xa0>
   10e42:	4509                	li	a0,2
   10e44:	d3dff0ef          	jal	10b80 <__printf_chk@plt>
   10e48:	87e6                	mv	a5,s9
   10e4a:	0007c603          	lbu	a2,0(a5)
   10e4e:	7b8a8593          	addi	a1,s5,1976
   10e52:	e03e                	sd	a5,0(sp)
   10e54:	4509                	li	a0,2
   10e56:	d2bff0ef          	jal	10b80 <__printf_chk@plt>
   10e5a:	6782                	ld	a5,0(sp)
   10e5c:	0785                	addi	a5,a5,1
   10e5e:	fe8796e3          	bne	a5,s0,10e4a <main+0x1aa>
   10e62:	4529                	li	a0,10
   10e64:	d4dff0ef          	jal	10bb0 <putchar@plt>
   10e68:	ec02                	sd	zero,24(sp)
   10e6a:	67a2                	ld	a5,8(sp)
   10e6c:	fc02                	sd	zero,56(sp)
   10e6e:	1838                	addi	a4,sp,56
   10e70:	e082                	sd	zero,64(sp)
   10e72:	e482                	sd	zero,72(sp)
   10e74:	e882                	sd	zero,80(sp)
   10e76:	00f70023          	sb	a5,0(a4)
   10e7a:	27b5                	addiw	a5,a5,13
   10e7c:	0705                	addi	a4,a4,1
   10e7e:	0ff7f793          	zext.b	a5,a5
   10e82:	fee91ae3          	bne	s2,a4,10e76 <main+0x1d6>
   10e86:	76e2                	ld	a3,56(sp)
   10e88:	00093023          	sd	zero,0(s2)
   10e8c:	00093423          	sd	zero,8(s2)
   10e90:	874a                	mv	a4,s2
   10e92:	00093823          	sd	zero,16(s2)
   10e96:	87de                	mv	a5,s7
   10e98:	0016e693          	ori	a3,a3,1
   10e9c:	00093c23          	sd	zero,24(s2)
   10ea0:	fc36                	sd	a3,56(sp)
   10ea2:	00f70023          	sb	a5,0(a4)
   10ea6:	27b5                	addiw	a5,a5,13
   10ea8:	0705                	addi	a4,a4,1
   10eaa:	0ff7f793          	zext.b	a5,a5
   10eae:	fee49ae3          	bne	s1,a4,10ea2 <main+0x202>
   10eb2:	67e6                	ld	a5,88(sp)
   10eb4:	182c                	addi	a1,sp,56
   10eb6:	8526                	mv	a0,s1
   10eb8:	0017e793          	ori	a5,a5,1
   10ebc:	ecbe                	sd	a5,88(sp)
   10ebe:	6bb070ef          	jal	18d78 <fp_to_mont>
   10ec2:	85ca                	mv	a1,s2
   10ec4:	854e                	mv	a0,s3
   10ec6:	6b3070ef          	jal	18d78 <fp_to_mont>
   10eca:	864e                	mv	a2,s3
   10ecc:	85a6                	mv	a1,s1
   10ece:	8552                	mv	a0,s4
   10ed0:	2b0070ef          	jal	18180 <fp_mont_mul>
   10ed4:	77e6                	ld	a5,120(sp)
   10ed6:	8662                	mv	a2,s8
   10ed8:	85da                	mv	a1,s6
   10eda:	0a28                	addi	a0,sp,280
   10edc:	edbe                	sd	a5,216(sp)
   10ede:	678a                	ld	a5,128(sp)
   10ee0:	f1be                	sd	a5,224(sp)
   10ee2:	67aa                	ld	a5,136(sp)
   10ee4:	f5be                	sd	a5,232(sp)
   10ee6:	67ca                	ld	a5,144(sp)
   10ee8:	f9be                	sd	a5,240(sp)
   10eea:	67ea                	ld	a5,152(sp)
   10eec:	fdbe                	sd	a5,248(sp)
   10eee:	778a                	ld	a5,160(sp)
   10ef0:	e23e                	sd	a5,256(sp)
   10ef2:	77aa                	ld	a5,168(sp)
   10ef4:	e63e                	sd	a5,264(sp)
   10ef6:	77ca                	ld	a5,176(sp)
   10ef8:	ea3e                	sd	a5,272(sp)
   10efa:	d27ff0ef          	jal	10c20 <sm2_z256_modp_mont_mul@plt>
   10efe:	7692                	ld	a3,288(sp)
   10f00:	67f2                	ld	a5,280(sp)
   10f02:	000a3703          	ld	a4,0(s4)
   10f06:	e2b6                	sd	a3,320(sp)
   10f08:	76b2                	ld	a3,296(sp)
   10f0a:	fe3e                	sd	a5,312(sp)
   10f0c:	e6b6                	sd	a3,328(sp)
   10f0e:	76d2                	ld	a3,304(sp)
   10f10:	eab6                	sd	a3,336(sp)
   10f12:	56f70263          	beq	a4,a5,11476 <main+0x7d6>
   10f16:	67e9                	lui	a5,0x1a
   10f18:	86de                	mv	a3,s7
   10f1a:	c5078593          	addi	a1,a5,-944 # 19c50 <_IO_stdin_used+0x4f0>
   10f1e:	0ffd7613          	zext.b	a2,s10
   10f22:	4509                	li	a0,2
   10f24:	c5dff0ef          	jal	10b80 <__printf_chk@plt>
   10f28:	67e5                	lui	a5,0x19
   10f2a:	7b0d8593          	addi	a1,s11,1968
   10f2e:	7e878613          	addi	a2,a5,2024 # 197e8 <_IO_stdin_used+0x88>
   10f32:	4509                	li	a0,2
   10f34:	c4dff0ef          	jal	10b80 <__printf_chk@plt>
   10f38:	87d2                	mv	a5,s4
   10f3a:	0007c603          	lbu	a2,0(a5)
   10f3e:	7b8a8593          	addi	a1,s5,1976
   10f42:	e03e                	sd	a5,0(sp)
   10f44:	4509                	li	a0,2
   10f46:	c3bff0ef          	jal	10b80 <__printf_chk@plt>
   10f4a:	6782                	ld	a5,0(sp)
   10f4c:	0785                	addi	a5,a5,1
   10f4e:	fefb16e3          	bne	s6,a5,10f3a <main+0x29a>
   10f52:	4529                	li	a0,10
   10f54:	c5dff0ef          	jal	10bb0 <putchar@plt>
   10f58:	67e9                	lui	a5,0x1a
   10f5a:	7b0d8593          	addi	a1,s11,1968
   10f5e:	80078613          	addi	a2,a5,-2048 # 19800 <_IO_stdin_used+0xa0>
   10f62:	4509                	li	a0,2
   10f64:	c1dff0ef          	jal	10b80 <__printf_chk@plt>
   10f68:	87e6                	mv	a5,s9
   10f6a:	0007c603          	lbu	a2,0(a5)
   10f6e:	7b8a8593          	addi	a1,s5,1976
   10f72:	e03e                	sd	a5,0(sp)
   10f74:	4509                	li	a0,2
   10f76:	c0bff0ef          	jal	10b80 <__printf_chk@plt>
   10f7a:	6782                	ld	a5,0(sp)
   10f7c:	0785                	addi	a5,a5,1
   10f7e:	fe8796e3          	bne	a5,s0,10f6a <main+0x2ca>
   10f82:	4529                	li	a0,10
   10f84:	c2dff0ef          	jal	10bb0 <putchar@plt>
   10f88:	f002                	sd	zero,32(sp)
   10f8a:	67a2                	ld	a5,8(sp)
   10f8c:	0004b023          	sd	zero,0(s1)
   10f90:	8726                	mv	a4,s1
   10f92:	0004b423          	sd	zero,8(s1)
   10f96:	0004b823          	sd	zero,16(s1)
   10f9a:	0004bc23          	sd	zero,24(s1)
   10f9e:	00f70023          	sb	a5,0(a4)
   10fa2:	27b5                	addiw	a5,a5,13
   10fa4:	0705                	addi	a4,a4,1
   10fa6:	0ff7f793          	zext.b	a5,a5
   10faa:	fee99ae3          	bne	s3,a4,10f9e <main+0x2fe>
   10fae:	77e6                	ld	a5,120(sp)
   10fb0:	85a6                	mv	a1,s1
   10fb2:	854e                	mv	a0,s3
   10fb4:	0017e793          	ori	a5,a5,1
   10fb8:	fcbe                	sd	a5,120(sp)
   10fba:	5bf070ef          	jal	18d78 <fp_to_mont>
   10fbe:	85ce                	mv	a1,s3
   10fc0:	8552                	mv	a0,s4
   10fc2:	70a070ef          	jal	186cc <fp_mont_sqr>
   10fc6:	864e                	mv	a2,s3
   10fc8:	85ce                	mv	a1,s3
   10fca:	855a                	mv	a0,s6
   10fcc:	1b4070ef          	jal	18180 <fp_mont_mul>
   10fd0:	000a3703          	ld	a4,0(s4)
   10fd4:	000b3783          	ld	a5,0(s6)
   10fd8:	4ef70963          	beq	a4,a5,114ca <main+0x82a>
   10fdc:	67e9                	lui	a5,0x1a
   10fde:	0ffd7613          	zext.b	a2,s10
   10fe2:	c7878593          	addi	a1,a5,-904 # 19c78 <_IO_stdin_used+0x518>
   10fe6:	4509                	li	a0,2
   10fe8:	b99ff0ef          	jal	10b80 <__printf_chk@plt>
   10fec:	67e9                	lui	a5,0x1a
   10fee:	7b0d8593          	addi	a1,s11,1968
   10ff2:	cb878613          	addi	a2,a5,-840 # 19cb8 <_IO_stdin_used+0x558>
   10ff6:	4509                	li	a0,2
   10ff8:	b89ff0ef          	jal	10b80 <__printf_chk@plt>
   10ffc:	87d2                	mv	a5,s4
   10ffe:	0007c603          	lbu	a2,0(a5)
   11002:	7b8a8593          	addi	a1,s5,1976
   11006:	e03e                	sd	a5,0(sp)
   11008:	4509                	li	a0,2
   1100a:	b77ff0ef          	jal	10b80 <__printf_chk@plt>
   1100e:	6782                	ld	a5,0(sp)
   11010:	0785                	addi	a5,a5,1
   11012:	fefb16e3          	bne	s6,a5,10ffe <main+0x35e>
   11016:	4529                	li	a0,10
   11018:	b99ff0ef          	jal	10bb0 <putchar@plt>
   1101c:	7b0d8593          	addi	a1,s11,1968
   11020:	6669                	lui	a2,0x1a
   11022:	cc860613          	addi	a2,a2,-824 # 19cc8 <_IO_stdin_used+0x568>
   11026:	4509                	li	a0,2
   11028:	b59ff0ef          	jal	10b80 <__printf_chk@plt>
   1102c:	87da                	mv	a5,s6
   1102e:	0007c603          	lbu	a2,0(a5)
   11032:	7b8a8593          	addi	a1,s5,1976
   11036:	e03e                	sd	a5,0(sp)
   11038:	4509                	li	a0,2
   1103a:	b47ff0ef          	jal	10b80 <__printf_chk@plt>
   1103e:	6782                	ld	a5,0(sp)
   11040:	0785                	addi	a5,a5,1
   11042:	fefc16e3          	bne	s8,a5,1102e <main+0x38e>
   11046:	4529                	li	a0,10
   11048:	b69ff0ef          	jal	10bb0 <putchar@plt>
   1104c:	f402                	sd	zero,40(sp)
   1104e:	67a2                	ld	a5,8(sp)
   11050:	00093023          	sd	zero,0(s2)
   11054:	00093423          	sd	zero,8(s2)
   11058:	874a                	mv	a4,s2
   1105a:	00093823          	sd	zero,16(s2)
   1105e:	0017e793          	ori	a5,a5,1
   11062:	00093c23          	sd	zero,24(s2)
   11066:	e03e                	sd	a5,0(sp)
   11068:	00f70023          	sb	a5,0(a4)
   1106c:	27b5                	addiw	a5,a5,13
   1106e:	0705                	addi	a4,a4,1
   11070:	0ff7f793          	zext.b	a5,a5
   11074:	fee49ae3          	bne	s1,a4,11068 <main+0x3c8>
   11078:	67e6                	ld	a5,88(sp)
   1107a:	85ca                	mv	a1,s2
   1107c:	8526                	mv	a0,s1
   1107e:	0017e793          	ori	a5,a5,1
   11082:	ecbe                	sd	a5,88(sp)
   11084:	4f5070ef          	jal	18d78 <fp_to_mont>
   11088:	85a6                	mv	a1,s1
   1108a:	854e                	mv	a0,s3
   1108c:	163020ef          	jal	139ee <fp_mont_inv>
   11090:	864e                	mv	a2,s3
   11092:	85a6                	mv	a1,s1
   11094:	8552                	mv	a0,s4
   11096:	0ea070ef          	jal	18180 <fp_mont_mul>
   1109a:	77e6                	ld	a5,120(sp)
   1109c:	85da                	mv	a1,s6
   1109e:	8562                	mv	a0,s8
   110a0:	edbe                	sd	a5,216(sp)
   110a2:	678a                	ld	a5,128(sp)
   110a4:	f1be                	sd	a5,224(sp)
   110a6:	67aa                	ld	a5,136(sp)
   110a8:	f5be                	sd	a5,232(sp)
   110aa:	67ca                	ld	a5,144(sp)
   110ac:	f9be                	sd	a5,240(sp)
   110ae:	b43ff0ef          	jal	10bf0 <sm2_z256_modp_mont_inv@plt>
   110b2:	6692                	ld	a3,256(sp)
   110b4:	77ee                	ld	a5,248(sp)
   110b6:	0009b703          	ld	a4,0(s3)
   110ba:	e2b6                	sd	a3,320(sp)
   110bc:	66b2                	ld	a3,264(sp)
   110be:	fe3e                	sd	a5,312(sp)
   110c0:	e6b6                	sd	a3,328(sp)
   110c2:	66d2                	ld	a3,272(sp)
   110c4:	eab6                	sd	a3,336(sp)
   110c6:	30f70363          	beq	a4,a5,113cc <main+0x72c>
   110ca:	6602                	ld	a2,0(sp)
   110cc:	65e9                	lui	a1,0x1a
   110ce:	d0058593          	addi	a1,a1,-768 # 19d00 <_IO_stdin_used+0x5a0>
   110d2:	4509                	li	a0,2
   110d4:	aadff0ef          	jal	10b80 <__printf_chk@plt>
   110d8:	7b0d8593          	addi	a1,s11,1968
   110dc:	6669                	lui	a2,0x1a
   110de:	d2860613          	addi	a2,a2,-728 # 19d28 <_IO_stdin_used+0x5c8>
   110e2:	4509                	li	a0,2
   110e4:	a9dff0ef          	jal	10b80 <__printf_chk@plt>
   110e8:	87ce                	mv	a5,s3
   110ea:	0007c603          	lbu	a2,0(a5)
   110ee:	7b8a8593          	addi	a1,s5,1976
   110f2:	e03e                	sd	a5,0(sp)
   110f4:	4509                	li	a0,2
   110f6:	a8bff0ef          	jal	10b80 <__printf_chk@plt>
   110fa:	6782                	ld	a5,0(sp)
   110fc:	0785                	addi	a5,a5,1
   110fe:	fefa16e3          	bne	s4,a5,110ea <main+0x44a>
   11102:	4529                	li	a0,10
   11104:	aadff0ef          	jal	10bb0 <putchar@plt>
   11108:	7b0d8593          	addi	a1,s11,1968
   1110c:	6669                	lui	a2,0x1a
   1110e:	d3860613          	addi	a2,a2,-712 # 19d38 <_IO_stdin_used+0x5d8>
   11112:	4509                	li	a0,2
   11114:	a6dff0ef          	jal	10b80 <__printf_chk@plt>
   11118:	87e6                	mv	a5,s9
   1111a:	0007c603          	lbu	a2,0(a5)
   1111e:	7b8a8593          	addi	a1,s5,1976
   11122:	e03e                	sd	a5,0(sp)
   11124:	4509                	li	a0,2
   11126:	a5bff0ef          	jal	10b80 <__printf_chk@plt>
   1112a:	6782                	ld	a5,0(sp)
   1112c:	0785                	addi	a5,a5,1
   1112e:	fef416e3          	bne	s0,a5,1111a <main+0x47a>
   11132:	4529                	li	a0,10
   11134:	a7dff0ef          	jal	10bb0 <putchar@plt>
   11138:	4781                	li	a5,0
   1113a:	6742                	ld	a4,16(sp)
   1113c:	cb05                	beqz	a4,1116c <main+0x4cc>
   1113e:	6762                	ld	a4,24(sp)
   11140:	48070f63          	beqz	a4,115de <main+0x93e>
   11144:	7702                	ld	a4,32(sp)
   11146:	48070f63          	beqz	a4,115e4 <main+0x944>
   1114a:	7722                	ld	a4,40(sp)
   1114c:	48070f63          	beqz	a4,115ea <main+0x94a>
   11150:	4a078163          	beqz	a5,115f2 <main+0x952>
   11154:	2b85                	addiw	s7,s7,1
   11156:	2d05                	addiw	s10,s10,1
   11158:	0ffbfb93          	zext.b	s7,s7
   1115c:	3e900713          	li	a4,1001
   11160:	bced1de3          	bne	s10,a4,10d3a <main+0x9a>
   11164:	f43e                	sd	a5,40(sp)
   11166:	f03e                	sd	a5,32(sp)
   11168:	ec3e                	sd	a5,24(sp)
   1116a:	e83e                	sd	a5,16(sp)
   1116c:	65c2                	ld	a1,16(sp)
   1116e:	6569                	lui	a0,0x1a
   11170:	db050513          	addi	a0,a0,-592 # 19db0 <_IO_stdin_used+0x650>
   11174:	e03e                	sd	a5,0(sp)
   11176:	1aa4                	addi	s1,sp,376
   11178:	19810913          	addi	s2,sp,408
   1117c:	542000ef          	jal	116be <mark_result>
   11180:	05500b93          	li	s7,85
   11184:	65e2                	ld	a1,24(sp)
   11186:	6569                	lui	a0,0x1a
   11188:	dc050513          	addi	a0,a0,-576 # 19dc0 <_IO_stdin_used+0x660>
   1118c:	4a8d                	li	s5,3
   1118e:	4d81                	li	s11,0
   11190:	52e000ef          	jal	116be <mark_result>
   11194:	7582                	ld	a1,32(sp)
   11196:	6569                	lui	a0,0x1a
   11198:	dd050513          	addi	a0,a0,-560 # 19dd0 <_IO_stdin_used+0x670>
   1119c:	522000ef          	jal	116be <mark_result>
   111a0:	75a2                	ld	a1,40(sp)
   111a2:	6569                	lui	a0,0x1a
   111a4:	de050513          	addi	a0,a0,-544 # 19de0 <_IO_stdin_used+0x680>
   111a8:	516000ef          	jal	116be <mark_result>
   111ac:	6782                	ld	a5,0(sp)
   111ae:	6569                	lui	a0,0x1a
   111b0:	df050513          	addi	a0,a0,-528 # 19df0 <_IO_stdin_used+0x690>
   111b4:	85be                	mv	a1,a5
   111b6:	508000ef          	jal	116be <mark_result>
   111ba:	85de                	mv	a1,s7
   111bc:	8556                	mv	a0,s5
   111be:	43f000ef          	jal	11dfc <test_fn_mont_mul_once>
   111c2:	8d2a                	mv	s10,a0
   111c4:	8726                	mv	a4,s1
   111c6:	87d6                	mv	a5,s5
   111c8:	00f70023          	sb	a5,0(a4)
   111cc:	27b5                	addiw	a5,a5,13
   111ce:	0705                	addi	a4,a4,1
   111d0:	0ff7f793          	zext.b	a5,a5
   111d4:	fee91ae3          	bne	s2,a4,111c8 <main+0x528>
   111d8:	19714783          	lbu	a5,407(sp)
   111dc:	85a6                	mv	a1,s1
   111de:	854e                	mv	a0,s3
   111e0:	0017e793          	ori	a5,a5,1
   111e4:	18f10ba3          	sb	a5,407(sp)
   111e8:	29d020ef          	jal	13c84 <fn_from_be>
   111ec:	8726                	mv	a4,s1
   111ee:	87de                	mv	a5,s7
   111f0:	00f70023          	sb	a5,0(a4)
   111f4:	27b5                	addiw	a5,a5,13
   111f6:	0705                	addi	a4,a4,1
   111f8:	0ff7f793          	zext.b	a5,a5
   111fc:	fee91ae3          	bne	s2,a4,111f0 <main+0x550>
   11200:	19714783          	lbu	a5,407(sp)
   11204:	85a6                	mv	a1,s1
   11206:	8552                	mv	a0,s4
   11208:	0017e793          	ori	a5,a5,1
   1120c:	18f10ba3          	sb	a5,407(sp)
   11210:	275020ef          	jal	13c84 <fn_from_be>
   11214:	8652                	mv	a2,s4
   11216:	85ce                	mv	a1,s3
   11218:	855a                	mv	a0,s6
   1121a:	610030ef          	jal	1482a <fn_mul>
   1121e:	85da                	mv	a1,s6
   11220:	8522                	mv	a0,s0
   11222:	487020ef          	jal	13ea8 <fn_to_be>
   11226:	67ea                	ld	a5,152(sp)
   11228:	0a30                	addi	a2,sp,280
   1122a:	85e2                	mv	a1,s8
   1122c:	8566                	mv	a0,s9
   1122e:	fdbe                	sd	a5,248(sp)
   11230:	778a                	ld	a5,160(sp)
   11232:	e23e                	sd	a5,256(sp)
   11234:	77aa                	ld	a5,168(sp)
   11236:	e63e                	sd	a5,264(sp)
   11238:	77ca                	ld	a5,176(sp)
   1123a:	ea3e                	sd	a5,272(sp)
   1123c:	77ea                	ld	a5,184(sp)
   1123e:	ee3e                	sd	a5,280(sp)
   11240:	678e                	ld	a5,192(sp)
   11242:	f23e                	sd	a5,288(sp)
   11244:	67ae                	ld	a5,200(sp)
   11246:	f63e                	sd	a5,296(sp)
   11248:	67ce                	ld	a5,208(sp)
   1124a:	fa3e                	sd	a5,304(sp)
   1124c:	9b5ff0ef          	jal	10c00 <sm2_z256_modn_mul@plt>
   11250:	85a6                	mv	a1,s1
   11252:	8566                	mv	a0,s9
   11254:	91dff0ef          	jal	10b70 <sm2_z256_to_bytes@plt>
   11258:	6018                	ld	a4,0(s0)
   1125a:	609c                	ld	a5,0(s1)
   1125c:	2ef70663          	beq	a4,a5,11548 <main+0x8a8>
   11260:	86de                	mv	a3,s7
   11262:	8656                	mv	a2,s5
   11264:	65e9                	lui	a1,0x1a
   11266:	e0058593          	addi	a1,a1,-512 # 19e00 <_IO_stdin_used+0x6a0>
   1126a:	4509                	li	a0,2
   1126c:	915ff0ef          	jal	10b80 <__printf_chk@plt>
   11270:	6a65                	lui	s4,0x19
   11272:	6669                	lui	a2,0x1a
   11274:	7b0a0593          	addi	a1,s4,1968 # 197b0 <_IO_stdin_used+0x50>
   11278:	83060613          	addi	a2,a2,-2000 # 19830 <_IO_stdin_used+0xd0>
   1127c:	4509                	li	a0,2
   1127e:	69e5                	lui	s3,0x19
   11280:	901ff0ef          	jal	10b80 <__printf_chk@plt>
   11284:	00044603          	lbu	a2,0(s0)
   11288:	7b898593          	addi	a1,s3,1976 # 197b8 <_IO_stdin_used+0x58>
   1128c:	0405                	addi	s0,s0,1
   1128e:	4509                	li	a0,2
   11290:	8f1ff0ef          	jal	10b80 <__printf_chk@plt>
   11294:	fe8498e3          	bne	s1,s0,11284 <main+0x5e4>
   11298:	4529                	li	a0,10
   1129a:	917ff0ef          	jal	10bb0 <putchar@plt>
   1129e:	6669                	lui	a2,0x1a
   112a0:	7b0a0593          	addi	a1,s4,1968
   112a4:	83860613          	addi	a2,a2,-1992 # 19838 <_IO_stdin_used+0xd8>
   112a8:	4509                	li	a0,2
   112aa:	8d7ff0ef          	jal	10b80 <__printf_chk@plt>
   112ae:	0004c603          	lbu	a2,0(s1)
   112b2:	7b898593          	addi	a1,s3,1976
   112b6:	0485                	addi	s1,s1,1
   112b8:	4509                	li	a0,2
   112ba:	8c7ff0ef          	jal	10b80 <__printf_chk@plt>
   112be:	fe9918e3          	bne	s2,s1,112ae <main+0x60e>
   112c2:	01a03d33          	snez	s10,s10
   112c6:	4529                	li	a0,10
   112c8:	4401                	li	s0,0
   112ca:	8e7ff0ef          	jal	10bb0 <putchar@plt>
   112ce:	85ea                	mv	a1,s10
   112d0:	6569                	lui	a0,0x1a
   112d2:	e2850513          	addi	a0,a0,-472 # 19e28 <_IO_stdin_used+0x6c8>
   112d6:	3e800493          	li	s1,1000
   112da:	3e4000ef          	jal	116be <mark_result>
   112de:	85a2                	mv	a1,s0
   112e0:	6569                	lui	a0,0x1a
   112e2:	e3850513          	addi	a0,a0,-456 # 19e38 <_IO_stdin_used+0x6d8>
   112e6:	4401                	li	s0,0
   112e8:	3d6000ef          	jal	116be <mark_result>
   112ec:	a021                	j	112f4 <main+0x654>
   112ee:	2405                	addiw	s0,s0,1
   112f0:	30940963          	beq	s0,s1,11602 <main+0x962>
   112f4:	0074051b          	addiw	a0,s0,7
   112f8:	0ff57513          	zext.b	a0,a0
   112fc:	491000ef          	jal	11f8c <test_point_mul_generator_once>
   11300:	f57d                	bnez	a0,112ee <main+0x64e>
   11302:	85aa                	mv	a1,a0
   11304:	6569                	lui	a0,0x1a
   11306:	e4050513          	addi	a0,a0,-448 # 19e40 <_IO_stdin_used+0x6e0>
   1130a:	4401                	li	s0,0
   1130c:	3b2000ef          	jal	116be <mark_result>
   11310:	3e800493          	li	s1,1000
   11314:	a021                	j	1131c <main+0x67c>
   11316:	2405                	addiw	s0,s0,1
   11318:	2e940763          	beq	s0,s1,11606 <main+0x966>
   1131c:	0ff47513          	zext.b	a0,s0
   11320:	0355059b          	addiw	a1,a0,53
   11324:	2545                	addiw	a0,a0,17
   11326:	0ff5f593          	zext.b	a1,a1
   1132a:	0ff57513          	zext.b	a0,a0
   1132e:	6d3000ef          	jal	12200 <test_point_mul_once>
   11332:	f175                	bnez	a0,11316 <main+0x676>
   11334:	85aa                	mv	a1,a0
   11336:	6569                	lui	a0,0x1a
   11338:	e5850513          	addi	a0,a0,-424 # 19e58 <_IO_stdin_used+0x6f8>
   1133c:	6475                	lui	s0,0x1d
   1133e:	380000ef          	jal	116be <mark_result>
   11342:	28d010ef          	jal	12dce <test_scalar_stress_generator>
   11346:	63e010ef          	jal	12984 <test_scalar_stress_point_mul>
   1134a:	6569                	lui	a0,0x1a
   1134c:	e6850513          	addi	a0,a0,-408 # 19e68 <_IO_stdin_used+0x708>
   11350:	8e1ff0ef          	jal	10c30 <puts@plt>
   11354:	8101a603          	lw	a2,-2032(gp) # 1d0c0 <g_total>
   11358:	65e9                	lui	a1,0x1a
   1135a:	e9058593          	addi	a1,a1,-368 # 19e90 <_IO_stdin_used+0x730>
   1135e:	4509                	li	a0,2
   11360:	821ff0ef          	jal	10b80 <__printf_chk@plt>
   11364:	80c1a603          	lw	a2,-2036(gp) # 1d0bc <g_pass>
   11368:	65e9                	lui	a1,0x1a
   1136a:	ea058593          	addi	a1,a1,-352 # 19ea0 <_IO_stdin_used+0x740>
   1136e:	4509                	li	a0,2
   11370:	811ff0ef          	jal	10b80 <__printf_chk@plt>
   11374:	0b842603          	lw	a2,184(s0) # 1d0b8 <g_fail>
   11378:	65e9                	lui	a1,0x1a
   1137a:	eb058593          	addi	a1,a1,-336 # 19eb0 <_IO_stdin_used+0x750>
   1137e:	4509                	li	a0,2
   11380:	801ff0ef          	jal	10b80 <__printf_chk@plt>
   11384:	0b842403          	lw	s0,184(s0)
   11388:	1e041c63          	bnez	s0,11580 <main+0x8e0>
   1138c:	6569                	lui	a0,0x1a
   1138e:	ec050513          	addi	a0,a0,-320 # 19ec0 <_IO_stdin_used+0x760>
   11392:	89fff0ef          	jal	10c30 <puts@plt>
   11396:	67f5                	lui	a5,0x1d
   11398:	677a                	ld	a4,408(sp)
   1139a:	df07b783          	ld	a5,-528(a5) # 1cdf0 <__stack_chk_guard@GLIBC_2.27>
   1139e:	8fb9                	xor	a5,a5,a4
   113a0:	4701                	li	a4,0
   113a2:	26079463          	bnez	a5,1160a <main+0x96a>
   113a6:	20813083          	ld	ra,520(sp)
   113aa:	8522                	mv	a0,s0
   113ac:	20013403          	ld	s0,512(sp)
   113b0:	74fe                	ld	s1,504(sp)
   113b2:	795e                	ld	s2,496(sp)
   113b4:	79be                	ld	s3,488(sp)
   113b6:	7a1e                	ld	s4,480(sp)
   113b8:	6afe                	ld	s5,472(sp)
   113ba:	6b5e                	ld	s6,464(sp)
   113bc:	6bbe                	ld	s7,456(sp)
   113be:	6c1e                	ld	s8,448(sp)
   113c0:	7cfa                	ld	s9,440(sp)
   113c2:	7d5a                	ld	s10,432(sp)
   113c4:	7dba                	ld	s11,424(sp)
   113c6:	21010113          	addi	sp,sp,528
   113ca:	8082                	ret
   113cc:	0089b703          	ld	a4,8(s3)
   113d0:	008cb783          	ld	a5,8(s9)
   113d4:	cef71be3          	bne	a4,a5,110ca <main+0x42a>
   113d8:	0109b703          	ld	a4,16(s3)
   113dc:	010cb783          	ld	a5,16(s9)
   113e0:	cef715e3          	bne	a4,a5,110ca <main+0x42a>
   113e4:	0189b703          	ld	a4,24(s3)
   113e8:	018cb783          	ld	a5,24(s9)
   113ec:	ccf71fe3          	bne	a4,a5,110ca <main+0x42a>
   113f0:	4785                	li	a5,1
   113f2:	85e6                	mv	a1,s9
   113f4:	0a28                	addi	a0,sp,280
   113f6:	fe3e                	sd	a5,312(sp)
   113f8:	e282                	sd	zero,320(sp)
   113fa:	e682                	sd	zero,328(sp)
   113fc:	ea82                	sd	zero,336(sp)
   113fe:	17b070ef          	jal	18d78 <fp_to_mont>
   11402:	000a3703          	ld	a4,0(s4)
   11406:	67f2                	ld	a5,280(sp)
   11408:	18f70363          	beq	a4,a5,1158e <main+0x8ee>
   1140c:	6602                	ld	a2,0(sp)
   1140e:	65e9                	lui	a1,0x1a
   11410:	d4858593          	addi	a1,a1,-696 # 19d48 <_IO_stdin_used+0x5e8>
   11414:	4509                	li	a0,2
   11416:	f6aff0ef          	jal	10b80 <__printf_chk@plt>
   1141a:	7b0d8593          	addi	a1,s11,1968
   1141e:	6669                	lui	a2,0x1a
   11420:	d9060613          	addi	a2,a2,-624 # 19d90 <_IO_stdin_used+0x630>
   11424:	4509                	li	a0,2
   11426:	f5aff0ef          	jal	10b80 <__printf_chk@plt>
   1142a:	87d2                	mv	a5,s4
   1142c:	0007c603          	lbu	a2,0(a5)
   11430:	7b8a8593          	addi	a1,s5,1976
   11434:	e03e                	sd	a5,0(sp)
   11436:	4509                	li	a0,2
   11438:	f48ff0ef          	jal	10b80 <__printf_chk@plt>
   1143c:	6782                	ld	a5,0(sp)
   1143e:	0785                	addi	a5,a5,1
   11440:	fefb16e3          	bne	s6,a5,1142c <main+0x78c>
   11444:	4529                	li	a0,10
   11446:	f6aff0ef          	jal	10bb0 <putchar@plt>
   1144a:	7b0d8593          	addi	a1,s11,1968
   1144e:	6669                	lui	a2,0x1a
   11450:	da060613          	addi	a2,a2,-608 # 19da0 <_IO_stdin_used+0x640>
   11454:	4509                	li	a0,2
   11456:	f2aff0ef          	jal	10b80 <__printf_chk@plt>
   1145a:	0a3c                	addi	a5,sp,280
   1145c:	0007c603          	lbu	a2,0(a5)
   11460:	7b8a8593          	addi	a1,s5,1976
   11464:	e03e                	sd	a5,0(sp)
   11466:	4509                	li	a0,2
   11468:	f18ff0ef          	jal	10b80 <__printf_chk@plt>
   1146c:	6782                	ld	a5,0(sp)
   1146e:	0785                	addi	a5,a5,1
   11470:	fefc96e3          	bne	s9,a5,1145c <main+0x7bc>
   11474:	b97d                	j	11132 <main+0x492>
   11476:	008a3703          	ld	a4,8(s4)
   1147a:	008cb783          	ld	a5,8(s9)
   1147e:	a8f71ce3          	bne	a4,a5,10f16 <main+0x276>
   11482:	010a3703          	ld	a4,16(s4)
   11486:	010cb783          	ld	a5,16(s9)
   1148a:	a8f716e3          	bne	a4,a5,10f16 <main+0x276>
   1148e:	018a3703          	ld	a4,24(s4)
   11492:	018cb783          	ld	a5,24(s9)
   11496:	a8f710e3          	bne	a4,a5,10f16 <main+0x276>
   1149a:	4785                	li	a5,1
   1149c:	f03e                	sd	a5,32(sp)
   1149e:	b4f5                	j	10f8a <main+0x2ea>
   114a0:	008a3703          	ld	a4,8(s4)
   114a4:	008cb783          	ld	a5,8(s9)
   114a8:	94f717e3          	bne	a4,a5,10df6 <main+0x156>
   114ac:	010a3703          	ld	a4,16(s4)
   114b0:	010cb783          	ld	a5,16(s9)
   114b4:	94f711e3          	bne	a4,a5,10df6 <main+0x156>
   114b8:	018a3703          	ld	a4,24(s4)
   114bc:	018cb783          	ld	a5,24(s9)
   114c0:	92f71be3          	bne	a4,a5,10df6 <main+0x156>
   114c4:	4785                	li	a5,1
   114c6:	ec3e                	sd	a5,24(sp)
   114c8:	b24d                	j	10e6a <main+0x1ca>
   114ca:	008a3703          	ld	a4,8(s4)
   114ce:	008b3783          	ld	a5,8(s6)
   114d2:	b0f715e3          	bne	a4,a5,10fdc <main+0x33c>
   114d6:	010a3703          	ld	a4,16(s4)
   114da:	010b3783          	ld	a5,16(s6)
   114de:	aef71fe3          	bne	a4,a5,10fdc <main+0x33c>
   114e2:	018a3703          	ld	a4,24(s4)
   114e6:	018b3783          	ld	a5,24(s6)
   114ea:	aef719e3          	bne	a4,a5,10fdc <main+0x33c>
   114ee:	67ea                	ld	a5,152(sp)
   114f0:	85e2                	mv	a1,s8
   114f2:	0a28                	addi	a0,sp,280
   114f4:	fdbe                	sd	a5,248(sp)
   114f6:	778a                	ld	a5,160(sp)
   114f8:	e23e                	sd	a5,256(sp)
   114fa:	77aa                	ld	a5,168(sp)
   114fc:	e63e                	sd	a5,264(sp)
   114fe:	77ca                	ld	a5,176(sp)
   11500:	ea3e                	sd	a5,272(sp)
   11502:	e8eff0ef          	jal	10b90 <sm2_z256_modp_mont_sqr@plt>
   11506:	7692                	ld	a3,288(sp)
   11508:	67f2                	ld	a5,280(sp)
   1150a:	000a3703          	ld	a4,0(s4)
   1150e:	e2b6                	sd	a3,320(sp)
   11510:	76b2                	ld	a3,296(sp)
   11512:	fe3e                	sd	a5,312(sp)
   11514:	e6b6                	sd	a3,328(sp)
   11516:	76d2                	ld	a3,304(sp)
   11518:	eab6                	sd	a3,336(sp)
   1151a:	08f70b63          	beq	a4,a5,115b0 <main+0x910>
   1151e:	0ffd7613          	zext.b	a2,s10
   11522:	65e9                	lui	a1,0x1a
   11524:	cd858593          	addi	a1,a1,-808 # 19cd8 <_IO_stdin_used+0x578>
   11528:	4509                	li	a0,2
   1152a:	e56ff0ef          	jal	10b80 <__printf_chk@plt>
   1152e:	85d2                	mv	a1,s4
   11530:	67e5                	lui	a5,0x19
   11532:	7e878513          	addi	a0,a5,2024 # 197e8 <_IO_stdin_used+0x88>
   11536:	246000ef          	jal	1177c <print_hex_bytes.constprop.0>
   1153a:	67e9                	lui	a5,0x1a
   1153c:	85e6                	mv	a1,s9
   1153e:	80078513          	addi	a0,a5,-2048 # 19800 <_IO_stdin_used+0xa0>
   11542:	23a000ef          	jal	1177c <print_hex_bytes.constprop.0>
   11546:	b619                	j	1104c <main+0x3ac>
   11548:	6418                	ld	a4,8(s0)
   1154a:	649c                	ld	a5,8(s1)
   1154c:	d0f71ae3          	bne	a4,a5,11260 <main+0x5c0>
   11550:	6818                	ld	a4,16(s0)
   11552:	689c                	ld	a5,16(s1)
   11554:	d0f716e3          	bne	a4,a5,11260 <main+0x5c0>
   11558:	6c18                	ld	a4,24(s0)
   1155a:	6c9c                	ld	a5,24(s1)
   1155c:	d0f712e3          	bne	a4,a5,11260 <main+0x5c0>
   11560:	060d0d63          	beqz	s10,115da <main+0x93a>
   11564:	2a85                	addiw	s5,s5,1
   11566:	2b85                	addiw	s7,s7,1
   11568:	2d85                	addiw	s11,s11,1
   1156a:	0ffafa93          	zext.b	s5,s5
   1156e:	0ffbfb93          	zext.b	s7,s7
   11572:	3e800793          	li	a5,1000
   11576:	c4fd92e3          	bne	s11,a5,111ba <main+0x51a>
   1157a:	4405                	li	s0,1
   1157c:	4d05                	li	s10,1
   1157e:	bb81                	j	112ce <main+0x62e>
   11580:	6569                	lui	a0,0x1a
   11582:	ed050513          	addi	a0,a0,-304 # 19ed0 <_IO_stdin_used+0x770>
   11586:	eaaff0ef          	jal	10c30 <puts@plt>
   1158a:	4405                	li	s0,1
   1158c:	b529                	j	11396 <main+0x6f6>
   1158e:	008a3703          	ld	a4,8(s4)
   11592:	7792                	ld	a5,288(sp)
   11594:	e6f71ce3          	bne	a4,a5,1140c <main+0x76c>
   11598:	010a3703          	ld	a4,16(s4)
   1159c:	77b2                	ld	a5,296(sp)
   1159e:	e6f717e3          	bne	a4,a5,1140c <main+0x76c>
   115a2:	018a3703          	ld	a4,24(s4)
   115a6:	77d2                	ld	a5,304(sp)
   115a8:	e6f712e3          	bne	a4,a5,1140c <main+0x76c>
   115ac:	4785                	li	a5,1
   115ae:	b671                	j	1113a <main+0x49a>
   115b0:	008a3703          	ld	a4,8(s4)
   115b4:	008cb783          	ld	a5,8(s9)
   115b8:	f6f713e3          	bne	a4,a5,1151e <main+0x87e>
   115bc:	010a3703          	ld	a4,16(s4)
   115c0:	010cb783          	ld	a5,16(s9)
   115c4:	f4f71de3          	bne	a4,a5,1151e <main+0x87e>
   115c8:	018a3703          	ld	a4,24(s4)
   115cc:	018cb783          	ld	a5,24(s9)
   115d0:	f4f717e3          	bne	a4,a5,1151e <main+0x87e>
   115d4:	4785                	li	a5,1
   115d6:	f43e                	sd	a5,40(sp)
   115d8:	bc9d                	j	1104e <main+0x3ae>
   115da:	4405                	li	s0,1
   115dc:	b9cd                	j	112ce <main+0x62e>
   115de:	4705                	li	a4,1
   115e0:	e83a                	sd	a4,16(sp)
   115e2:	b669                	j	1116c <main+0x4cc>
   115e4:	6762                	ld	a4,24(sp)
   115e6:	e83a                	sd	a4,16(sp)
   115e8:	b651                	j	1116c <main+0x4cc>
   115ea:	7702                	ld	a4,32(sp)
   115ec:	ec3a                	sd	a4,24(sp)
   115ee:	e83a                	sd	a4,16(sp)
   115f0:	beb5                	j	1116c <main+0x4cc>
   115f2:	7722                	ld	a4,40(sp)
   115f4:	f03a                	sd	a4,32(sp)
   115f6:	ec3a                	sd	a4,24(sp)
   115f8:	e83a                	sd	a4,16(sp)
   115fa:	be8d                	j	1116c <main+0x4cc>
   115fc:	4505                	li	a0,1
   115fe:	f0aff06f          	j	10d08 <main+0x68>
   11602:	4505                	li	a0,1
   11604:	b9fd                	j	11302 <main+0x662>
   11606:	4505                	li	a0,1
   11608:	b335                	j	11334 <main+0x694>
   1160a:	db6ff0ef          	jal	10bc0 <__stack_chk_fail@plt>
	...

0000000000011610 <_start>:
   11610:	026000ef          	jal	11636 <load_gp>
   11614:	87aa                	mv	a5,a0
   11616:	00000517          	auipc	a0,0x0
   1161a:	01c50513          	addi	a0,a0,28 # 11632 <__wrap_main>
   1161e:	6582                	ld	a1,0(sp)
   11620:	0030                	addi	a2,sp,8
   11622:	ff017113          	andi	sp,sp,-16
   11626:	4681                	li	a3,0
   11628:	4701                	li	a4,0
   1162a:	880a                	mv	a6,sp
   1162c:	d14ff0ef          	jal	10b40 <__libc_start_main@plt>
   11630:	9002                	ebreak

0000000000011632 <__wrap_main>:
   11632:	e6eff06f          	j	10ca0 <main>

0000000000011636 <load_gp>:
   11636:	0000c197          	auipc	gp,0xc
   1163a:	27a18193          	addi	gp,gp,634 # 1d8b0 <__global_pointer$>
   1163e:	8082                	ret
	...

0000000000011642 <deregister_tm_clones>:
   11642:	6575                	lui	a0,0x1d
   11644:	0b050793          	addi	a5,a0,176 # 1d0b0 <__TMC_END__>
   11648:	6775                	lui	a4,0x1d
   1164a:	0b070713          	addi	a4,a4,176 # 1d0b0 <__TMC_END__>
   1164e:	00f70863          	beq	a4,a5,1165e <deregister_tm_clones+0x1c>
   11652:	00000793          	li	a5,0
   11656:	c781                	beqz	a5,1165e <deregister_tm_clones+0x1c>
   11658:	0b050513          	addi	a0,a0,176
   1165c:	8782                	jr	a5
   1165e:	8082                	ret

0000000000011660 <register_tm_clones>:
   11660:	6575                	lui	a0,0x1d
   11662:	0b050793          	addi	a5,a0,176 # 1d0b0 <__TMC_END__>
   11666:	6775                	lui	a4,0x1d
   11668:	0b070593          	addi	a1,a4,176 # 1d0b0 <__TMC_END__>
   1166c:	8d9d                	sub	a1,a1,a5
   1166e:	4035d793          	srai	a5,a1,0x3
   11672:	91fd                	srli	a1,a1,0x3f
   11674:	95be                	add	a1,a1,a5
   11676:	8585                	srai	a1,a1,0x1
   11678:	c599                	beqz	a1,11686 <register_tm_clones+0x26>
   1167a:	00000793          	li	a5,0
   1167e:	c781                	beqz	a5,11686 <register_tm_clones+0x26>
   11680:	0b050513          	addi	a0,a0,176
   11684:	8782                	jr	a5
   11686:	8082                	ret

0000000000011688 <__do_global_dtors_aux>:
   11688:	1141                	addi	sp,sp,-16
   1168a:	e022                	sd	s0,0(sp)
   1168c:	8201c783          	lbu	a5,-2016(gp) # 1d0d0 <completed.0>
   11690:	e406                	sd	ra,8(sp)
   11692:	e791                	bnez	a5,1169e <__do_global_dtors_aux+0x16>
   11694:	fafff0ef          	jal	11642 <deregister_tm_clones>
   11698:	4785                	li	a5,1
   1169a:	82f18023          	sb	a5,-2016(gp) # 1d0d0 <completed.0>
   1169e:	60a2                	ld	ra,8(sp)
   116a0:	6402                	ld	s0,0(sp)
   116a2:	0141                	addi	sp,sp,16
   116a4:	8082                	ret

00000000000116a6 <frame_dummy>:
   116a6:	bf6d                	j	11660 <register_tm_clones>

00000000000116a8 <scalar_set_u64>:
   116a8:	00053c23          	sd	zero,24(a0)
   116ac:	00053023          	sd	zero,0(a0)
   116b0:	00053423          	sd	zero,8(a0)
   116b4:	00053823          	sd	zero,16(a0)
   116b8:	00b50fa3          	sb	a1,31(a0)
   116bc:	8082                	ret

00000000000116be <mark_result>:
   116be:	8101a783          	lw	a5,-2032(gp) # 1d0c0 <g_total>
   116c2:	862a                	mv	a2,a0
   116c4:	2785                	addiw	a5,a5,1
   116c6:	80f1a823          	sw	a5,-2032(gp) # 1d0c0 <g_total>
   116ca:	cd81                	beqz	a1,116e2 <mark_result+0x24>
   116cc:	80c1a783          	lw	a5,-2036(gp) # 1d0bc <g_pass>
   116d0:	65e5                	lui	a1,0x19
   116d2:	76858593          	addi	a1,a1,1896 # 19768 <_IO_stdin_used+0x8>
   116d6:	4509                	li	a0,2
   116d8:	2785                	addiw	a5,a5,1
   116da:	80f1a623          	sw	a5,-2036(gp) # 1d0bc <g_pass>
   116de:	ca2ff06f          	j	10b80 <__printf_chk@plt>
   116e2:	6775                	lui	a4,0x1d
   116e4:	0b872783          	lw	a5,184(a4) # 1d0b8 <g_fail>
   116e8:	65e5                	lui	a1,0x19
   116ea:	77858593          	addi	a1,a1,1912 # 19778 <_IO_stdin_used+0x18>
   116ee:	4509                	li	a0,2
   116f0:	2785                	addiw	a5,a5,1
   116f2:	0af72c23          	sw	a5,184(a4)
   116f6:	c8aff06f          	j	10b80 <__printf_chk@plt>

00000000000116fa <scalar_sub_small.constprop.0>:
   116fa:	1101                	addi	sp,sp,-32
   116fc:	02000613          	li	a2,32
   11700:	e822                	sd	s0,16(sp)
   11702:	842e                	mv	s0,a1
   11704:	65e5                	lui	a1,0x19
   11706:	78858593          	addi	a1,a1,1928 # 19788 <_IO_stdin_used+0x28>
   1170a:	e426                	sd	s1,8(sp)
   1170c:	84aa                	mv	s1,a0
   1170e:	ec06                	sd	ra,24(sp)
   11710:	cc0ff0ef          	jal	10bd0 <memcpy@plt>
   11714:	01f48793          	addi	a5,s1,31
   11718:	a011                	j	1171c <scalar_sub_small.constprop.0+0x22>
   1171a:	4405                	li	s0,1
   1171c:	0007c703          	lbu	a4,0(a5)
   11720:	408706bb          	subw	a3,a4,s0
   11724:	2701                	sext.w	a4,a4
   11726:	00d78023          	sb	a3,0(a5)
   1172a:	00f48563          	beq	s1,a5,11734 <scalar_sub_small.constprop.0+0x3a>
   1172e:	17fd                	addi	a5,a5,-1
   11730:	fe8765e3          	bltu	a4,s0,1171a <scalar_sub_small.constprop.0+0x20>
   11734:	60e2                	ld	ra,24(sp)
   11736:	6442                	ld	s0,16(sp)
   11738:	64a2                	ld	s1,8(sp)
   1173a:	6105                	addi	sp,sp,32
   1173c:	8082                	ret

000000000001173e <scalar_add_small.constprop.0>:
   1173e:	1101                	addi	sp,sp,-32
   11740:	02000613          	li	a2,32
   11744:	e822                	sd	s0,16(sp)
   11746:	842e                	mv	s0,a1
   11748:	65e5                	lui	a1,0x19
   1174a:	78858593          	addi	a1,a1,1928 # 19788 <_IO_stdin_used+0x28>
   1174e:	e426                	sd	s1,8(sp)
   11750:	84aa                	mv	s1,a0
   11752:	ec06                	sd	ra,24(sp)
   11754:	c7cff0ef          	jal	10bd0 <memcpy@plt>
   11758:	01f48793          	addi	a5,s1,31
   1175c:	0007c703          	lbu	a4,0(a5)
   11760:	9c39                	addw	s0,s0,a4
   11762:	00878023          	sb	s0,0(a5)
   11766:	0084541b          	srliw	s0,s0,0x8
   1176a:	00f48463          	beq	s1,a5,11772 <scalar_add_small.constprop.0+0x34>
   1176e:	17fd                	addi	a5,a5,-1
   11770:	f475                	bnez	s0,1175c <scalar_add_small.constprop.0+0x1e>
   11772:	60e2                	ld	ra,24(sp)
   11774:	6442                	ld	s0,16(sp)
   11776:	64a2                	ld	s1,8(sp)
   11778:	6105                	addi	sp,sp,32
   1177a:	8082                	ret

000000000001177c <print_hex_bytes.constprop.0>:
   1177c:	1101                	addi	sp,sp,-32
   1177e:	862a                	mv	a2,a0
   11780:	e822                	sd	s0,16(sp)
   11782:	842e                	mv	s0,a1
   11784:	e426                	sd	s1,8(sp)
   11786:	65e5                	lui	a1,0x19
   11788:	02040493          	addi	s1,s0,32
   1178c:	7b058593          	addi	a1,a1,1968 # 197b0 <_IO_stdin_used+0x50>
   11790:	e04a                	sd	s2,0(sp)
   11792:	4509                	li	a0,2
   11794:	ec06                	sd	ra,24(sp)
   11796:	6965                	lui	s2,0x19
   11798:	be8ff0ef          	jal	10b80 <__printf_chk@plt>
   1179c:	00044603          	lbu	a2,0(s0)
   117a0:	7b890593          	addi	a1,s2,1976 # 197b8 <_IO_stdin_used+0x58>
   117a4:	0405                	addi	s0,s0,1
   117a6:	4509                	li	a0,2
   117a8:	bd8ff0ef          	jal	10b80 <__printf_chk@plt>
   117ac:	fe9418e3          	bne	s0,s1,1179c <print_hex_bytes.constprop.0+0x20>
   117b0:	6442                	ld	s0,16(sp)
   117b2:	4529                	li	a0,10
   117b4:	60e2                	ld	ra,24(sp)
   117b6:	64a2                	ld	s1,8(sp)
   117b8:	6902                	ld	s2,0(sp)
   117ba:	6105                	addi	sp,sp,32
   117bc:	bf4ff06f          	j	10bb0 <putchar@plt>

00000000000117c0 <build_stress_scalars.constprop.0>:
   117c0:	7179                	addi	sp,sp,-48
   117c2:	4581                	li	a1,0
   117c4:	f406                	sd	ra,40(sp)
   117c6:	ec26                	sd	s1,24(sp)
   117c8:	84aa                	mv	s1,a0
   117ca:	f022                	sd	s0,32(sp)
   117cc:	e84a                	sd	s2,16(sp)
   117ce:	e44e                	sd	s3,8(sp)
   117d0:	e052                	sd	s4,0(sp)
   117d2:	ed7ff0ef          	jal	116a8 <scalar_set_u64>
   117d6:	02048513          	addi	a0,s1,32
   117da:	4585                	li	a1,1
   117dc:	ecdff0ef          	jal	116a8 <scalar_set_u64>
   117e0:	04048513          	addi	a0,s1,64
   117e4:	4589                	li	a1,2
   117e6:	ec3ff0ef          	jal	116a8 <scalar_set_u64>
   117ea:	06048513          	addi	a0,s1,96
   117ee:	458d                	li	a1,3
   117f0:	eb9ff0ef          	jal	116a8 <scalar_set_u64>
   117f4:	08048513          	addi	a0,s1,128
   117f8:	4591                	li	a1,4
   117fa:	eafff0ef          	jal	116a8 <scalar_set_u64>
   117fe:	0a048513          	addi	a0,s1,160
   11802:	4595                	li	a1,5
   11804:	ea5ff0ef          	jal	116a8 <scalar_set_u64>
   11808:	0c048513          	addi	a0,s1,192
   1180c:	45c1                	li	a1,16
   1180e:	e9bff0ef          	jal	116a8 <scalar_set_u64>
   11812:	0e048513          	addi	a0,s1,224
   11816:	45c5                	li	a1,17
   11818:	e91ff0ef          	jal	116a8 <scalar_set_u64>
   1181c:	10048513          	addi	a0,s1,256
   11820:	45fd                	li	a1,31
   11822:	e87ff0ef          	jal	116a8 <scalar_set_u64>
   11826:	12048513          	addi	a0,s1,288
   1182a:	02000593          	li	a1,32
   1182e:	e7bff0ef          	jal	116a8 <scalar_set_u64>
   11832:	14048513          	addi	a0,s1,320
   11836:	02100593          	li	a1,33
   1183a:	e6fff0ef          	jal	116a8 <scalar_set_u64>
   1183e:	16048513          	addi	a0,s1,352
   11842:	4589                	li	a1,2
   11844:	eb7ff0ef          	jal	116fa <scalar_sub_small.constprop.0>
   11848:	18048513          	addi	a0,s1,384
   1184c:	4585                	li	a1,1
   1184e:	eadff0ef          	jal	116fa <scalar_sub_small.constprop.0>
   11852:	1a048513          	addi	a0,s1,416
   11856:	65e5                	lui	a1,0x19
   11858:	78858593          	addi	a1,a1,1928 # 19788 <_IO_stdin_used+0x28>
   1185c:	02000613          	li	a2,32
   11860:	b70ff0ef          	jal	10bd0 <memcpy@plt>
   11864:	1c048513          	addi	a0,s1,448
   11868:	4585                	li	a1,1
   1186a:	ed5ff0ef          	jal	1173e <scalar_add_small.constprop.0>
   1186e:	1e048513          	addi	a0,s1,480
   11872:	4589                	li	a1,2
   11874:	ecbff0ef          	jal	1173e <scalar_add_small.constprop.0>
   11878:	4681                	li	a3,0
   1187a:	4641                	li	a2,16
   1187c:	48fd                	li	a7,31
   1187e:	4805                	li	a6,1
   11880:	10400513          	li	a0,260
   11884:	00561793          	slli	a5,a2,0x5
   11888:	4036d71b          	sraiw	a4,a3,0x3
   1188c:	97a6                	add	a5,a5,s1
   1188e:	0076f593          	andi	a1,a3,7
   11892:	40e8873b          	subw	a4,a7,a4
   11896:	0007b023          	sd	zero,0(a5)
   1189a:	0007b423          	sd	zero,8(a5)
   1189e:	973e                	add	a4,a4,a5
   118a0:	0007b823          	sd	zero,16(a5)
   118a4:	00b815bb          	sllw	a1,a6,a1
   118a8:	0007bc23          	sd	zero,24(a5)
   118ac:	2695                	addiw	a3,a3,5
   118ae:	00b70023          	sb	a1,0(a4)
   118b2:	87b2                	mv	a5,a2
   118b4:	0605                	addi	a2,a2,1
   118b6:	fca697e3          	bne	a3,a0,11884 <build_stress_scalars.constprop.0+0xc4>
   118ba:	0616                	slli	a2,a2,0x5
   118bc:	00278593          	addi	a1,a5,2
   118c0:	9626                	add	a2,a2,s1
   118c2:	0596                	slli	a1,a1,0x5
   118c4:	00063c23          	sd	zero,24(a2)
   118c8:	95a6                	add	a1,a1,s1
   118ca:	00063823          	sd	zero,16(a2)
   118ce:	4289                	li	t0,2
   118d0:	00063023          	sd	zero,0(a2)
   118d4:	00378713          	addi	a4,a5,3
   118d8:	00063423          	sd	zero,8(a2)
   118dc:	0716                	slli	a4,a4,0x5
   118de:	00560fa3          	sb	t0,31(a2)
   118e2:	4f91                	li	t6,4
   118e4:	0005bc23          	sd	zero,24(a1)
   118e8:	00e48633          	add	a2,s1,a4
   118ec:	0005b023          	sd	zero,0(a1)
   118f0:	00478693          	addi	a3,a5,4
   118f4:	0005b423          	sd	zero,8(a1)
   118f8:	0696                	slli	a3,a3,0x5
   118fa:	0005b823          	sd	zero,16(a1)
   118fe:	96a6                	add	a3,a3,s1
   11900:	01f58ea3          	sb	t6,29(a1)
   11904:	4ea1                	li	t4,8
   11906:	00063c23          	sd	zero,24(a2)
   1190a:	00578713          	addi	a4,a5,5
   1190e:	00063823          	sd	zero,16(a2)
   11912:	0716                	slli	a4,a4,0x5
   11914:	00063023          	sd	zero,0(a2)
   11918:	9726                	add	a4,a4,s1
   1191a:	00063423          	sd	zero,8(a2)
   1191e:	4e41                	li	t3,16
   11920:	01d60da3          	sb	t4,27(a2)
   11924:	00678613          	addi	a2,a5,6
   11928:	0006bc23          	sd	zero,24(a3)
   1192c:	0616                	slli	a2,a2,0x5
   1192e:	0006b023          	sd	zero,0(a3)
   11932:	9626                	add	a2,a2,s1
   11934:	0006b423          	sd	zero,8(a3)
   11938:	02000313          	li	t1,32
   1193c:	0006b823          	sd	zero,16(a3)
   11940:	00778593          	addi	a1,a5,7
   11944:	01c68ca3          	sb	t3,25(a3)
   11948:	0596                	slli	a1,a1,0x5
   1194a:	00073823          	sd	zero,16(a4)
   1194e:	95a6                	add	a1,a1,s1
   11950:	00073023          	sd	zero,0(a4)
   11954:	04000893          	li	a7,64
   11958:	00073423          	sd	zero,8(a4)
   1195c:	00878693          	addi	a3,a5,8
   11960:	00073c23          	sd	zero,24(a4)
   11964:	0696                	slli	a3,a3,0x5
   11966:	00670ba3          	sb	t1,23(a4)
   1196a:	96a6                	add	a3,a3,s1
   1196c:	00063823          	sd	zero,16(a2)
   11970:	f8000f13          	li	t5,-128
   11974:	00063023          	sd	zero,0(a2)
   11978:	00978713          	addi	a4,a5,9
   1197c:	00063423          	sd	zero,8(a2)
   11980:	0716                	slli	a4,a4,0x5
   11982:	00063c23          	sd	zero,24(a2)
   11986:	9726                	add	a4,a4,s1
   11988:	01160aa3          	sb	a7,21(a2)
   1198c:	00a78613          	addi	a2,a5,10
   11990:	0005b023          	sd	zero,0(a1)
   11994:	0616                	slli	a2,a2,0x5
   11996:	0005b423          	sd	zero,8(a1)
   1199a:	9626                	add	a2,a2,s1
   1199c:	0005b823          	sd	zero,16(a1)
   119a0:	00b78813          	addi	a6,a5,11
   119a4:	0005bc23          	sd	zero,24(a1)
   119a8:	0816                	slli	a6,a6,0x5
   119aa:	01e589a3          	sb	t5,19(a1)
   119ae:	4585                	li	a1,1
   119b0:	0006b823          	sd	zero,16(a3)
   119b4:	9826                	add	a6,a6,s1
   119b6:	00b68823          	sb	a1,16(a3)
   119ba:	00c78513          	addi	a0,a5,12
   119be:	0006b023          	sd	zero,0(a3)
   119c2:	0516                	slli	a0,a0,0x5
   119c4:	0006b423          	sd	zero,8(a3)
   119c8:	9526                	add	a0,a0,s1
   119ca:	0006bc23          	sd	zero,24(a3)
   119ce:	00d78593          	addi	a1,a5,13
   119d2:	00073423          	sd	zero,8(a4)
   119d6:	0596                	slli	a1,a1,0x5
   119d8:	00073023          	sd	zero,0(a4)
   119dc:	95a6                	add	a1,a1,s1
   119de:	00073823          	sd	zero,16(a4)
   119e2:	00e78693          	addi	a3,a5,14
   119e6:	00073c23          	sd	zero,24(a4)
   119ea:	0696                	slli	a3,a3,0x5
   119ec:	00570723          	sb	t0,14(a4)
   119f0:	00f78713          	addi	a4,a5,15
   119f4:	00063423          	sd	zero,8(a2)
   119f8:	96a6                	add	a3,a3,s1
   119fa:	00063023          	sd	zero,0(a2)
   119fe:	0716                	slli	a4,a4,0x5
   11a00:	00063823          	sd	zero,16(a2)
   11a04:	9726                	add	a4,a4,s1
   11a06:	00063c23          	sd	zero,24(a2)
   11a0a:	69e9                	lui	s3,0x1a
   11a0c:	01f60623          	sb	t6,12(a2)
   11a10:	01078913          	addi	s2,a5,16
   11a14:	00083423          	sd	zero,8(a6)
   11a18:	ee098993          	addi	s3,s3,-288 # 19ee0 <_IO_stdin_used+0x780>
   11a1c:	00083023          	sd	zero,0(a6)
   11a20:	4601                	li	a2,0
   11a22:	00083823          	sd	zero,16(a6)
   11a26:	08000413          	li	s0,128
   11a2a:	00083c23          	sd	zero,24(a6)
   11a2e:	4a11                	li	s4,4
   11a30:	01d80523          	sb	t4,10(a6)
   11a34:	00053423          	sd	zero,8(a0)
   11a38:	00053023          	sd	zero,0(a0)
   11a3c:	00053823          	sd	zero,16(a0)
   11a40:	00053c23          	sd	zero,24(a0)
   11a44:	01c50423          	sb	t3,8(a0)
   11a48:	0005b023          	sd	zero,0(a1)
   11a4c:	0005b423          	sd	zero,8(a1)
   11a50:	0005b823          	sd	zero,16(a1)
   11a54:	0005bc23          	sd	zero,24(a1)
   11a58:	00658323          	sb	t1,6(a1)
   11a5c:	0006b023          	sd	zero,0(a3)
   11a60:	0006b423          	sd	zero,8(a3)
   11a64:	0006b823          	sd	zero,16(a3)
   11a68:	0006bc23          	sd	zero,24(a3)
   11a6c:	01168223          	sb	a7,4(a3)
   11a70:	00073023          	sd	zero,0(a4)
   11a74:	00073423          	sd	zero,8(a4)
   11a78:	00073823          	sd	zero,16(a4)
   11a7c:	00073c23          	sd	zero,24(a4)
   11a80:	01e70123          	sb	t5,2(a4)
   11a84:	00891d63          	bne	s2,s0,11a9e <build_stress_scalars.constprop.0+0x2de>
   11a88:	08000913          	li	s2,128
   11a8c:	70a2                	ld	ra,40(sp)
   11a8e:	854a                	mv	a0,s2
   11a90:	7402                	ld	s0,32(sp)
   11a92:	64e2                	ld	s1,24(sp)
   11a94:	6942                	ld	s2,16(sp)
   11a96:	69a2                	ld	s3,8(sp)
   11a98:	6a02                	ld	s4,0(sp)
   11a9a:	6145                	addi	sp,sp,48
   11a9c:	8082                	ret
   11a9e:	00591513          	slli	a0,s2,0x5
   11aa2:	9526                	add	a0,a0,s1
   11aa4:	00053023          	sd	zero,0(a0)
   11aa8:	00053423          	sd	zero,8(a0)
   11aac:	00053823          	sd	zero,16(a0)
   11ab0:	00053c23          	sd	zero,24(a0)
   11ab4:	0cca6863          	bltu	s4,a2,11b84 <build_stress_scalars.constprop.0+0x3c4>
   11ab8:	213647b3          	sh2add	a5,a2,s3
   11abc:	439c                	lw	a5,0(a5)
   11abe:	8782                	jr	a5
   11ac0:	02000613          	li	a2,32
   11ac4:	05500593          	li	a1,85
   11ac8:	0905                	addi	s2,s2,1
   11aca:	9b6ff0ef          	jal	10c80 <memset@plt>
   11ace:	08000793          	li	a5,128
   11ad2:	faf90be3          	beq	s2,a5,11a88 <build_stress_scalars.constprop.0+0x2c8>
   11ad6:	00591513          	slli	a0,s2,0x5
   11ada:	9526                	add	a0,a0,s1
   11adc:	00053023          	sd	zero,0(a0)
   11ae0:	00053423          	sd	zero,8(a0)
   11ae4:	00053823          	sd	zero,16(a0)
   11ae8:	00053c23          	sd	zero,24(a0)
   11aec:	02000613          	li	a2,32
   11af0:	0aa00593          	li	a1,170
   11af4:	0905                	addi	s2,s2,1
   11af6:	98aff0ef          	jal	10c80 <memset@plt>
   11afa:	08000793          	li	a5,128
   11afe:	f8f905e3          	beq	s2,a5,11a88 <build_stress_scalars.constprop.0+0x2c8>
   11b02:	00591513          	slli	a0,s2,0x5
   11b06:	9526                	add	a0,a0,s1
   11b08:	00053023          	sd	zero,0(a0)
   11b0c:	00053423          	sd	zero,8(a0)
   11b10:	00053823          	sd	zero,16(a0)
   11b14:	00053c23          	sd	zero,24(a0)
   11b18:	02000613          	li	a2,32
   11b1c:	0ff00593          	li	a1,255
   11b20:	0905                	addi	s2,s2,1
   11b22:	95eff0ef          	jal	10c80 <memset@plt>
   11b26:	08000793          	li	a5,128
   11b2a:	f4f90fe3          	beq	s2,a5,11a88 <build_stress_scalars.constprop.0+0x2c8>
   11b2e:	00591513          	slli	a0,s2,0x5
   11b32:	9526                	add	a0,a0,s1
   11b34:	00053023          	sd	zero,0(a0)
   11b38:	00053423          	sd	zero,8(a0)
   11b3c:	00053823          	sd	zero,16(a0)
   11b40:	00053c23          	sd	zero,24(a0)
   11b44:	47c5                	li	a5,17
   11b46:	03100693          	li	a3,49
   11b4a:	0117871b          	addiw	a4,a5,17
   11b4e:	00f50023          	sb	a5,0(a0)
   11b52:	0ff77793          	zext.b	a5,a4
   11b56:	0505                	addi	a0,a0,1
   11b58:	fed799e3          	bne	a5,a3,11b4a <build_stress_scalars.constprop.0+0x38a>
   11b5c:	460d                	li	a2,3
   11b5e:	0905                	addi	s2,s2,1
   11b60:	2605                	addiw	a2,a2,1
   11b62:	f28903e3          	beq	s2,s0,11a88 <build_stress_scalars.constprop.0+0x2c8>
   11b66:	bf25                	j	11a9e <build_stress_scalars.constprop.0+0x2de>
   11b68:	4781                	li	a5,0
   11b6a:	02000693          	li	a3,32
   11b6e:	ff07c713          	xori	a4,a5,-16
   11b72:	27c5                	addiw	a5,a5,17
   11b74:	00e50023          	sb	a4,0(a0)
   11b78:	0ff7f793          	zext.b	a5,a5
   11b7c:	0505                	addi	a0,a0,1
   11b7e:	fed798e3          	bne	a5,a3,11b6e <build_stress_scalars.constprop.0+0x3ae>
   11b82:	bff1                	j	11b5e <build_stress_scalars.constprop.0+0x39e>
   11b84:	0ff67713          	zext.b	a4,a2
   11b88:	0317079b          	addiw	a5,a4,49
   11b8c:	fd17071b          	addiw	a4,a4,-47
   11b90:	0ff7f793          	zext.b	a5,a5
   11b94:	0ff77693          	zext.b	a3,a4
   11b98:	00d7871b          	addiw	a4,a5,13
   11b9c:	00f50023          	sb	a5,0(a0)
   11ba0:	0ff77793          	zext.b	a5,a4
   11ba4:	0505                	addi	a0,a0,1
   11ba6:	fed799e3          	bne	a5,a3,11b98 <build_stress_scalars.constprop.0+0x3d8>
   11baa:	2605                	addiw	a2,a2,1
   11bac:	0905                	addi	s2,s2,1
   11bae:	47b1                	li	a5,12
   11bb0:	ecf60ee3          	beq	a2,a5,11a8c <build_stress_scalars.constprop.0+0x2cc>
   11bb4:	bdc1                	j	11a84 <build_stress_scalars.constprop.0+0x2c4>

0000000000011bb6 <test_fp_add_once>:
   11bb6:	7165                	addi	sp,sp,-400
   11bb8:	e322                	sd	s0,384(sp)
   11bba:	6475                	lui	s0,0x1d
   11bbc:	df043783          	ld	a5,-528(s0) # 1cdf0 <__stack_chk_guard@GLIBC_2.27>
   11bc0:	e6be                	sd	a5,328(sp)
   11bc2:	4781                	li	a5,0
   11bc4:	fea6                	sd	s1,376(sp)
   11bc6:	f6ce                	sd	s3,360(sp)
   11bc8:	0038                	addi	a4,sp,8
   11bca:	f2d2                	sd	s4,352(sp)
   11bcc:	89aa                	mv	s3,a0
   11bce:	e706                	sd	ra,392(sp)
   11bd0:	8a2e                	mv	s4,a1
   11bd2:	faca                	sd	s2,368(sp)
   11bd4:	1024                	addi	s1,sp,40
   11bd6:	eed6                	sd	s5,344(sp)
   11bd8:	87aa                	mv	a5,a0
   11bda:	e402                	sd	zero,8(sp)
   11bdc:	e802                	sd	zero,16(sp)
   11bde:	ec02                	sd	zero,24(sp)
   11be0:	f002                	sd	zero,32(sp)
   11be2:	00f70023          	sb	a5,0(a4)
   11be6:	27b5                	addiw	a5,a5,13
   11be8:	0705                	addi	a4,a4,1
   11bea:	0ff7f793          	zext.b	a5,a5
   11bee:	fee49ae3          	bne	s1,a4,11be2 <test_fp_add_once+0x2c>
   11bf2:	67a2                	ld	a5,8(sp)
   11bf4:	f402                	sd	zero,40(sp)
   11bf6:	0004b423          	sd	zero,8(s1)
   11bfa:	8726                	mv	a4,s1
   11bfc:	0004b823          	sd	zero,16(s1)
   11c00:	04810913          	addi	s2,sp,72
   11c04:	0017e793          	ori	a5,a5,1
   11c08:	0004bc23          	sd	zero,24(s1)
   11c0c:	e43e                	sd	a5,8(sp)
   11c0e:	87d2                	mv	a5,s4
   11c10:	00f70023          	sb	a5,0(a4)
   11c14:	27b5                	addiw	a5,a5,13
   11c16:	0705                	addi	a4,a4,1
   11c18:	0ff7f793          	zext.b	a5,a5
   11c1c:	fee91ae3          	bne	s2,a4,11c10 <test_fp_add_once+0x5a>
   11c20:	77a2                	ld	a5,40(sp)
   11c22:	854a                	mv	a0,s2
   11c24:	002c                	addi	a1,sp,8
   11c26:	0017e793          	ori	a5,a5,1
   11c2a:	f43e                	sd	a5,40(sp)
   11c2c:	14c070ef          	jal	18d78 <fp_to_mont>
   11c30:	85a6                	mv	a1,s1
   11c32:	10a8                	addi	a0,sp,104
   11c34:	144070ef          	jal	18d78 <fp_to_mont>
   11c38:	1124                	addi	s1,sp,168
   11c3a:	85ca                	mv	a1,s2
   11c3c:	10b0                	addi	a2,sp,104
   11c3e:	0128                	addi	a0,sp,136
   11c40:	12810913          	addi	s2,sp,296
   11c44:	35c060ef          	jal	17fa0 <fp_mont_add>
   11c48:	67a6                	ld	a5,72(sp)
   11c4a:	01b0                	addi	a2,sp,200
   11c4c:	85a6                	mv	a1,s1
   11c4e:	11a8                	addi	a0,sp,232
   11c50:	f53e                	sd	a5,168(sp)
   11c52:	67c6                	ld	a5,80(sp)
   11c54:	f93e                	sd	a5,176(sp)
   11c56:	67e6                	ld	a5,88(sp)
   11c58:	fd3e                	sd	a5,184(sp)
   11c5a:	7786                	ld	a5,96(sp)
   11c5c:	e1be                	sd	a5,192(sp)
   11c5e:	77a6                	ld	a5,104(sp)
   11c60:	e5be                	sd	a5,200(sp)
   11c62:	77c6                	ld	a5,112(sp)
   11c64:	e9be                	sd	a5,208(sp)
   11c66:	77e6                	ld	a5,120(sp)
   11c68:	edbe                	sd	a5,216(sp)
   11c6a:	678a                	ld	a5,128(sp)
   11c6c:	f1be                	sd	a5,224(sp)
   11c6e:	f73fe0ef          	jal	10be0 <sm2_z256_modp_add@plt>
   11c72:	6769                	lui	a4,0x1a
   11c74:	f9870713          	addi	a4,a4,-104 # 19f98 <FP_P>
   11c78:	662a                	ld	a2,136(sp)
   11c7a:	00073e03          	ld	t3,0(a4)
   11c7e:	00873883          	ld	a7,8(a4)
   11c82:	654a                	ld	a0,144(sp)
   11c84:	01c637b3          	sltu	a5,a2,t3
   11c88:	6b14                	ld	a3,16(a4)
   11c8a:	98be                	add	a7,a7,a5
   11c8c:	65ea                	ld	a1,152(sp)
   11c8e:	01153833          	sltu	a6,a0,a7
   11c92:	00f8b7b3          	sltu	a5,a7,a5
   11c96:	0107e7b3          	or	a5,a5,a6
   11c9a:	6f18                	ld	a4,24(a4)
   11c9c:	0ff7f793          	zext.b	a5,a5
   11ca0:	730a                	ld	t1,160(sp)
   11ca2:	96be                	add	a3,a3,a5
   11ca4:	41c60e33          	sub	t3,a2,t3
   11ca8:	00d5beb3          	sltu	t4,a1,a3
   11cac:	00f6b7b3          	sltu	a5,a3,a5
   11cb0:	01d7e7b3          	or	a5,a5,t4
   11cb4:	40d586b3          	sub	a3,a1,a3
   11cb8:	0ff7f793          	zext.b	a5,a5
   11cbc:	411508b3          	sub	a7,a0,a7
   11cc0:	973e                	add	a4,a4,a5
   11cc2:	782e                	ld	a6,232(sp)
   11cc4:	00e33eb3          	sltu	t4,t1,a4
   11cc8:	00f737b3          	sltu	a5,a4,a5
   11ccc:	01d7e7b3          	or	a5,a5,t4
   11cd0:	40e30733          	sub	a4,t1,a4
   11cd4:	0ff7f793          	zext.b	a5,a5
   11cd8:	e642                	sd	a6,264(sp)
   11cda:	40f00eb3          	neg	t4,a5
   11cde:	17fd                	addi	a5,a5,-1
   11ce0:	01d5f5b3          	and	a1,a1,t4
   11ce4:	8efd                	and	a3,a3,a5
   11ce6:	8ecd                	or	a3,a3,a1
   11ce8:	75ce                	ld	a1,240(sp)
   11cea:	01d67633          	and	a2,a2,t4
   11cee:	00f8f8b3          	and	a7,a7,a5
   11cf2:	8f7d                	and	a4,a4,a5
   11cf4:	00fe7e33          	and	t3,t3,a5
   11cf8:	ea2e                	sd	a1,272(sp)
   11cfa:	75ee                	ld	a1,248(sp)
   11cfc:	01d57533          	and	a0,a0,t4
   11d00:	01d37333          	and	t1,t1,t4
   11d04:	01c667b3          	or	a5,a2,t3
   11d08:	00676733          	or	a4,a4,t1
   11d0c:	ee2e                	sd	a1,280(sp)
   11d0e:	6592                	ld	a1,256(sp)
   11d10:	01156633          	or	a2,a0,a7
   11d14:	f63e                	sd	a5,296(sp)
   11d16:	fa32                	sd	a2,304(sp)
   11d18:	f22e                	sd	a1,288(sp)
   11d1a:	fe36                	sd	a3,312(sp)
   11d1c:	e2ba                	sd	a4,320(sp)
   11d1e:	0d078163          	beq	a5,a6,11de0 <test_fp_add_once+0x22a>
   11d22:	86d2                	mv	a3,s4
   11d24:	864e                	mv	a2,s3
   11d26:	65e5                	lui	a1,0x19
   11d28:	7c058593          	addi	a1,a1,1984 # 197c0 <_IO_stdin_used+0x60>
   11d2c:	4509                	li	a0,2
   11d2e:	e53fe0ef          	jal	10b80 <__printf_chk@plt>
   11d32:	6ae5                	lui	s5,0x19
   11d34:	6665                	lui	a2,0x19
   11d36:	7b0a8593          	addi	a1,s5,1968 # 197b0 <_IO_stdin_used+0x50>
   11d3a:	7e860613          	addi	a2,a2,2024 # 197e8 <_IO_stdin_used+0x88>
   11d3e:	08810993          	addi	s3,sp,136
   11d42:	4509                	li	a0,2
   11d44:	6a65                	lui	s4,0x19
   11d46:	e3bfe0ef          	jal	10b80 <__printf_chk@plt>
   11d4a:	0009c603          	lbu	a2,0(s3)
   11d4e:	7b8a0593          	addi	a1,s4,1976 # 197b8 <_IO_stdin_used+0x58>
   11d52:	0985                	addi	s3,s3,1
   11d54:	4509                	li	a0,2
   11d56:	e2bfe0ef          	jal	10b80 <__printf_chk@plt>
   11d5a:	fe9998e3          	bne	s3,s1,11d4a <test_fp_add_once+0x194>
   11d5e:	4529                	li	a0,10
   11d60:	e51fe0ef          	jal	10bb0 <putchar@plt>
   11d64:	7b0a8593          	addi	a1,s5,1968
   11d68:	6665                	lui	a2,0x19
   11d6a:	84ca                	mv	s1,s2
   11d6c:	7f060613          	addi	a2,a2,2032 # 197f0 <_IO_stdin_used+0x90>
   11d70:	14810993          	addi	s3,sp,328
   11d74:	4509                	li	a0,2
   11d76:	e0bfe0ef          	jal	10b80 <__printf_chk@plt>
   11d7a:	0004c603          	lbu	a2,0(s1)
   11d7e:	7b8a0593          	addi	a1,s4,1976
   11d82:	0485                	addi	s1,s1,1
   11d84:	4509                	li	a0,2
   11d86:	dfbfe0ef          	jal	10b80 <__printf_chk@plt>
   11d8a:	fe9998e3          	bne	s3,s1,11d7a <test_fp_add_once+0x1c4>
   11d8e:	4529                	li	a0,10
   11d90:	e21fe0ef          	jal	10bb0 <putchar@plt>
   11d94:	7b0a8593          	addi	a1,s5,1968
   11d98:	6669                	lui	a2,0x1a
   11d9a:	0224                	addi	s1,sp,264
   11d9c:	80060613          	addi	a2,a2,-2048 # 19800 <_IO_stdin_used+0xa0>
   11da0:	4509                	li	a0,2
   11da2:	ddffe0ef          	jal	10b80 <__printf_chk@plt>
   11da6:	0004c603          	lbu	a2,0(s1)
   11daa:	7b8a0593          	addi	a1,s4,1976
   11dae:	0485                	addi	s1,s1,1
   11db0:	4509                	li	a0,2
   11db2:	dcffe0ef          	jal	10b80 <__printf_chk@plt>
   11db6:	fe9918e3          	bne	s2,s1,11da6 <test_fp_add_once+0x1f0>
   11dba:	4529                	li	a0,10
   11dbc:	df5fe0ef          	jal	10bb0 <putchar@plt>
   11dc0:	4501                	li	a0,0
   11dc2:	6736                	ld	a4,328(sp)
   11dc4:	df043783          	ld	a5,-528(s0)
   11dc8:	8fb9                	xor	a5,a5,a4
   11dca:	4701                	li	a4,0
   11dcc:	e795                	bnez	a5,11df8 <test_fp_add_once+0x242>
   11dce:	60ba                	ld	ra,392(sp)
   11dd0:	641a                	ld	s0,384(sp)
   11dd2:	74f6                	ld	s1,376(sp)
   11dd4:	7956                	ld	s2,368(sp)
   11dd6:	79b6                	ld	s3,360(sp)
   11dd8:	7a16                	ld	s4,352(sp)
   11dda:	6af6                	ld	s5,344(sp)
   11ddc:	6159                	addi	sp,sp,400
   11dde:	8082                	ret
   11de0:	67d2                	ld	a5,272(sp)
   11de2:	f4f610e3          	bne	a2,a5,11d22 <test_fp_add_once+0x16c>
   11de6:	67f2                	ld	a5,280(sp)
   11de8:	f2f69de3          	bne	a3,a5,11d22 <test_fp_add_once+0x16c>
   11dec:	01893703          	ld	a4,24(s2)
   11df0:	4505                	li	a0,1
   11df2:	f2b718e3          	bne	a4,a1,11d22 <test_fp_add_once+0x16c>
   11df6:	b7f1                	j	11dc2 <test_fp_add_once+0x20c>
   11df8:	dc9fe0ef          	jal	10bc0 <__stack_chk_fail@plt>

0000000000011dfc <test_fn_mont_mul_once>:
   11dfc:	7165                	addi	sp,sp,-400
   11dfe:	f6ce                	sd	s3,360(sp)
   11e00:	12810993          	addi	s3,sp,296
   11e04:	f2d2                	sd	s4,352(sp)
   11e06:	6a75                	lui	s4,0x1d
   11e08:	df0a3783          	ld	a5,-528(s4) # 1cdf0 <__stack_chk_guard@GLIBC_2.27>
   11e0c:	e6be                	sd	a5,328(sp)
   11e0e:	4781                	li	a5,0
   11e10:	e322                	sd	s0,384(sp)
   11e12:	fea6                	sd	s1,376(sp)
   11e14:	842a                	mv	s0,a0
   11e16:	faca                	sd	s2,368(sp)
   11e18:	874e                	mv	a4,s3
   11e1a:	e706                	sd	ra,392(sp)
   11e1c:	892e                	mv	s2,a1
   11e1e:	eed6                	sd	s5,344(sp)
   11e20:	02a4                	addi	s1,sp,328
   11e22:	87aa                	mv	a5,a0
   11e24:	00f70023          	sb	a5,0(a4)
   11e28:	27b5                	addiw	a5,a5,13
   11e2a:	0705                	addi	a4,a4,1
   11e2c:	0ff7f793          	zext.b	a5,a5
   11e30:	fe971ae3          	bne	a4,s1,11e24 <test_fn_mont_mul_once+0x28>
   11e34:	14714783          	lbu	a5,327(sp)
   11e38:	85ce                	mv	a1,s3
   11e3a:	0028                	addi	a0,sp,8
   11e3c:	0017e793          	ori	a5,a5,1
   11e40:	14f103a3          	sb	a5,327(sp)
   11e44:	641010ef          	jal	13c84 <fn_from_be>
   11e48:	874e                	mv	a4,s3
   11e4a:	87ca                	mv	a5,s2
   11e4c:	00f70023          	sb	a5,0(a4)
   11e50:	27b5                	addiw	a5,a5,13
   11e52:	0705                	addi	a4,a4,1
   11e54:	0ff7f793          	zext.b	a5,a5
   11e58:	fe971ae3          	bne	a4,s1,11e4c <test_fn_mont_mul_once+0x50>
   11e5c:	14714783          	lbu	a5,327(sp)
   11e60:	85ce                	mv	a1,s3
   11e62:	1028                	addi	a0,sp,40
   11e64:	0017e793          	ori	a5,a5,1
   11e68:	14f103a3          	sb	a5,327(sp)
   11e6c:	619010ef          	jal	13c84 <fn_from_be>
   11e70:	002c                	addi	a1,sp,8
   11e72:	00a8                	addi	a0,sp,72
   11e74:	40f020ef          	jal	14a82 <fn_to_mont_pub>
   11e78:	102c                	addi	a1,sp,40
   11e7a:	10a8                	addi	a0,sp,104
   11e7c:	407020ef          	jal	14a82 <fn_to_mont_pub>
   11e80:	10b0                	addi	a2,sp,104
   11e82:	00ac                	addi	a1,sp,72
   11e84:	0128                	addi	a0,sp,136
   11e86:	137020ef          	jal	147bc <fn_mont_mul_ct>
   11e8a:	012c                	addi	a1,sp,136
   11e8c:	11a8                	addi	a0,sp,232
   11e8e:	53b020ef          	jal	14bc8 <fn_from_mont_pub>
   11e92:	11ac                	addi	a1,sp,232
   11e94:	0228                	addi	a0,sp,264
   11e96:	012020ef          	jal	13ea8 <fn_to_be>
   11e9a:	67a6                	ld	a5,72(sp)
   11e9c:	01b0                	addi	a2,sp,200
   11e9e:	112c                	addi	a1,sp,168
   11ea0:	11a8                	addi	a0,sp,232
   11ea2:	f53e                	sd	a5,168(sp)
   11ea4:	67c6                	ld	a5,80(sp)
   11ea6:	f93e                	sd	a5,176(sp)
   11ea8:	67e6                	ld	a5,88(sp)
   11eaa:	fd3e                	sd	a5,184(sp)
   11eac:	7786                	ld	a5,96(sp)
   11eae:	e1be                	sd	a5,192(sp)
   11eb0:	77a6                	ld	a5,104(sp)
   11eb2:	e5be                	sd	a5,200(sp)
   11eb4:	77c6                	ld	a5,112(sp)
   11eb6:	e9be                	sd	a5,208(sp)
   11eb8:	77e6                	ld	a5,120(sp)
   11eba:	edbe                	sd	a5,216(sp)
   11ebc:	678a                	ld	a5,128(sp)
   11ebe:	f1be                	sd	a5,224(sp)
   11ec0:	ca1fe0ef          	jal	10b60 <sm2_z256_modn_mont_mul@plt>
   11ec4:	11ac                	addi	a1,sp,232
   11ec6:	852e                	mv	a0,a1
   11ec8:	d89fe0ef          	jal	10c50 <sm2_z256_modn_from_mont@plt>
   11ecc:	85ce                	mv	a1,s3
   11ece:	11a8                	addi	a0,sp,232
   11ed0:	ca1fe0ef          	jal	10b70 <sm2_z256_to_bytes@plt>
   11ed4:	6732                	ld	a4,264(sp)
   11ed6:	77b2                	ld	a5,296(sp)
   11ed8:	08f70763          	beq	a4,a5,11f66 <test_fn_mont_mul_once+0x16a>
   11edc:	86ca                	mv	a3,s2
   11ede:	8622                	mv	a2,s0
   11ee0:	65e9                	lui	a1,0x1a
   11ee2:	80858593          	addi	a1,a1,-2040 # 19808 <_IO_stdin_used+0xa8>
   11ee6:	4509                	li	a0,2
   11ee8:	c99fe0ef          	jal	10b80 <__printf_chk@plt>
   11eec:	6ae5                	lui	s5,0x19
   11eee:	6669                	lui	a2,0x1a
   11ef0:	7b0a8593          	addi	a1,s5,1968 # 197b0 <_IO_stdin_used+0x50>
   11ef4:	83060613          	addi	a2,a2,-2000 # 19830 <_IO_stdin_used+0xd0>
   11ef8:	0220                	addi	s0,sp,264
   11efa:	4509                	li	a0,2
   11efc:	6965                	lui	s2,0x19
   11efe:	c83fe0ef          	jal	10b80 <__printf_chk@plt>
   11f02:	00044603          	lbu	a2,0(s0)
   11f06:	7b890593          	addi	a1,s2,1976 # 197b8 <_IO_stdin_used+0x58>
   11f0a:	0405                	addi	s0,s0,1
   11f0c:	4509                	li	a0,2
   11f0e:	c73fe0ef          	jal	10b80 <__printf_chk@plt>
   11f12:	ff3418e3          	bne	s0,s3,11f02 <test_fn_mont_mul_once+0x106>
   11f16:	4529                	li	a0,10
   11f18:	c99fe0ef          	jal	10bb0 <putchar@plt>
   11f1c:	6669                	lui	a2,0x1a
   11f1e:	7b0a8593          	addi	a1,s5,1968
   11f22:	83860613          	addi	a2,a2,-1992 # 19838 <_IO_stdin_used+0xd8>
   11f26:	4509                	li	a0,2
   11f28:	c59fe0ef          	jal	10b80 <__printf_chk@plt>
   11f2c:	00044603          	lbu	a2,0(s0)
   11f30:	7b890593          	addi	a1,s2,1976
   11f34:	0405                	addi	s0,s0,1
   11f36:	4509                	li	a0,2
   11f38:	c49fe0ef          	jal	10b80 <__printf_chk@plt>
   11f3c:	fe8498e3          	bne	s1,s0,11f2c <test_fn_mont_mul_once+0x130>
   11f40:	4529                	li	a0,10
   11f42:	c6ffe0ef          	jal	10bb0 <putchar@plt>
   11f46:	4501                	li	a0,0
   11f48:	6736                	ld	a4,328(sp)
   11f4a:	df0a3783          	ld	a5,-528(s4)
   11f4e:	8fb9                	xor	a5,a5,a4
   11f50:	4701                	li	a4,0
   11f52:	eb9d                	bnez	a5,11f88 <test_fn_mont_mul_once+0x18c>
   11f54:	60ba                	ld	ra,392(sp)
   11f56:	641a                	ld	s0,384(sp)
   11f58:	74f6                	ld	s1,376(sp)
   11f5a:	7956                	ld	s2,368(sp)
   11f5c:	79b6                	ld	s3,360(sp)
   11f5e:	7a16                	ld	s4,352(sp)
   11f60:	6af6                	ld	s5,344(sp)
   11f62:	6159                	addi	sp,sp,400
   11f64:	8082                	ret
   11f66:	6752                	ld	a4,272(sp)
   11f68:	0089b783          	ld	a5,8(s3)
   11f6c:	f6f718e3          	bne	a4,a5,11edc <test_fn_mont_mul_once+0xe0>
   11f70:	6772                	ld	a4,280(sp)
   11f72:	0109b783          	ld	a5,16(s3)
   11f76:	f6f713e3          	bne	a4,a5,11edc <test_fn_mont_mul_once+0xe0>
   11f7a:	7712                	ld	a4,288(sp)
   11f7c:	4505                	li	a0,1
   11f7e:	0189b783          	ld	a5,24(s3)
   11f82:	f4f71de3          	bne	a4,a5,11edc <test_fn_mont_mul_once+0xe0>
   11f86:	b7c9                	j	11f48 <test_fn_mont_mul_once+0x14c>
   11f88:	c39fe0ef          	jal	10bc0 <__stack_chk_fail@plt>

0000000000011f8c <test_point_mul_generator_once>:
   11f8c:	d6010113          	addi	sp,sp,-672
   11f90:	29213023          	sd	s2,640(sp)
   11f94:	892a                	mv	s2,a0
   11f96:	27413823          	sd	s4,624(sp)
   11f9a:	1008                	addi	a0,sp,32
   11f9c:	6a75                	lui	s4,0x1d
   11f9e:	df0a3783          	ld	a5,-528(s4) # 1cdf0 <__stack_chk_guard@GLIBC_2.27>
   11fa2:	24f13c23          	sd	a5,600(sp)
   11fa6:	4781                	li	a5,0
   11fa8:	28813823          	sd	s0,656(sp)
   11fac:	0ba0                	addi	s0,sp,472
   11fae:	28113c23          	sd	ra,664(sp)
   11fb2:	27613023          	sd	s6,608(sp)
   11fb6:	28d030ef          	jal	15a42 <sm2_get_base_affine_mont>
   11fba:	1b38                	addi	a4,sp,440
   11fbc:	ff02                	sd	zero,440(sp)
   11fbe:	87ca                	mv	a5,s2
   11fc0:	e382                	sd	zero,448(sp)
   11fc2:	e782                	sd	zero,456(sp)
   11fc4:	eb82                	sd	zero,464(sp)
   11fc6:	00f70023          	sb	a5,0(a4)
   11fca:	27b5                	addiw	a5,a5,13
   11fcc:	0705                	addi	a4,a4,1
   11fce:	0ff7f793          	zext.b	a5,a5
   11fd2:	fe871ae3          	bne	a4,s0,11fc6 <test_point_mul_generator_once+0x3a>
   11fd6:	1d714783          	lbu	a5,471(sp)
   11fda:	1b2c                	addi	a1,sp,440
   11fdc:	850a                	mv	a0,sp
   11fde:	0017e793          	ori	a5,a5,1
   11fe2:	1cf10ba3          	sb	a5,471(sp)
   11fe6:	c8bfe0ef          	jal	10c70 <sm2_z256_from_bytes@plt>
   11fea:	1b30                	addi	a2,sp,440
   11fec:	100c                	addi	a1,sp,32
   11fee:	19a8                	addi	a0,sp,248
   11ff0:	5c5050ef          	jal	17db4 <sm2_scalar_mul_window_ct_schemeB_mont_affine_to_jacobian_mont>
   11ff4:	0aa8                	addi	a0,sp,344
   11ff6:	858a                	mv	a1,sp
   11ff8:	c69fe0ef          	jal	10c60 <sm2_z256_point_mul_generator@plt>
   11ffc:	19a8                	addi	a0,sp,248
   11ffe:	1cb030ef          	jal	159c8 <sm2_jacobian_is_infinity>
   12002:	cd1d                	beqz	a0,12040 <test_point_mul_generator_once+0xb4>
   12004:	65e9                	lui	a1,0x1a
   12006:	864a                	mv	a2,s2
   12008:	84058593          	addi	a1,a1,-1984 # 19840 <_IO_stdin_used+0xe0>
   1200c:	4509                	li	a0,2
   1200e:	b73fe0ef          	jal	10b80 <__printf_chk@plt>
   12012:	4b01                	li	s6,0
   12014:	25813703          	ld	a4,600(sp)
   12018:	df0a3783          	ld	a5,-528(s4)
   1201c:	8fb9                	xor	a5,a5,a4
   1201e:	4701                	li	a4,0
   12020:	1c079863          	bnez	a5,121f0 <test_point_mul_generator_once+0x264>
   12024:	29813083          	ld	ra,664(sp)
   12028:	855a                	mv	a0,s6
   1202a:	29013403          	ld	s0,656(sp)
   1202e:	28013903          	ld	s2,640(sp)
   12032:	27013a03          	ld	s4,624(sp)
   12036:	26013b03          	ld	s6,608(sp)
   1203a:	2a010113          	addi	sp,sp,672
   1203e:	8082                	ret
   12040:	19ac                	addi	a1,sp,248
   12042:	10a8                	addi	a0,sp,104
   12044:	28913423          	sd	s1,648(sp)
   12048:	27313c23          	sd	s3,632(sp)
   1204c:	27513423          	sd	s5,616(sp)
   12050:	457030ef          	jal	15ca6 <sm2_jacobian_mont_to_affine_mont>
   12054:	10ac                	addi	a1,sp,104
   12056:	1908                	addi	a0,sp,176
   12058:	26d030ef          	jal	15ac4 <sm2_affine_from_mont>
   1205c:	57ce                	lw	a5,240(sp)
   1205e:	cb81                	beqz	a5,1206e <test_point_mul_generator_once+0xe2>
   12060:	28813483          	ld	s1,648(sp)
   12064:	27813983          	ld	s3,632(sp)
   12068:	26813a83          	ld	s5,616(sp)
   1206c:	bf61                	j	12004 <test_point_mul_generator_once+0x78>
   1206e:	190c                	addi	a1,sp,176
   12070:	8522                	mv	a0,s0
   12072:	64e010ef          	jal	136c0 <fp_to_bytes>
   12076:	1f810993          	addi	s3,sp,504
   1207a:	098c                	addi	a1,sp,208
   1207c:	854e                	mv	a0,s3
   1207e:	642010ef          	jal	136c0 <fp_to_bytes>
   12082:	1910                	addi	a2,sp,176
   12084:	10ac                	addi	a1,sp,104
   12086:	0aa8                	addi	a0,sp,344
   12088:	c09fe0ef          	jal	10c90 <sm2_z256_point_get_xy@plt>
   1208c:	8b2a                	mv	s6,a0
   1208e:	4785                	li	a5,1
   12090:	02f50063          	beq	a0,a5,120b0 <test_point_mul_generator_once+0x124>
   12094:	864a                	mv	a2,s2
   12096:	65e9                	lui	a1,0x1a
   12098:	87858593          	addi	a1,a1,-1928 # 19878 <_IO_stdin_used+0x118>
   1209c:	4509                	li	a0,2
   1209e:	ae3fe0ef          	jal	10b80 <__printf_chk@plt>
   120a2:	28813483          	ld	s1,648(sp)
   120a6:	27813983          	ld	s3,632(sp)
   120aa:	26813a83          	ld	s5,616(sp)
   120ae:	b795                	j	12012 <test_point_mul_generator_once+0x86>
   120b0:	21810a93          	addi	s5,sp,536
   120b4:	10a8                	addi	a0,sp,104
   120b6:	85d6                	mv	a1,s5
   120b8:	1c24                	addi	s1,sp,568
   120ba:	ab7fe0ef          	jal	10b70 <sm2_z256_to_bytes@plt>
   120be:	85a6                	mv	a1,s1
   120c0:	1908                	addi	a0,sp,176
   120c2:	aaffe0ef          	jal	10b70 <sm2_z256_to_bytes@plt>
   120c6:	677e                	ld	a4,472(sp)
   120c8:	21813783          	ld	a5,536(sp)
   120cc:	0cf70863          	beq	a4,a5,1219c <test_point_mul_generator_once+0x210>
   120d0:	864a                	mv	a2,s2
   120d2:	65e9                	lui	a1,0x1a
   120d4:	8b058593          	addi	a1,a1,-1872 # 198b0 <_IO_stdin_used+0x150>
   120d8:	4509                	li	a0,2
   120da:	aa7fe0ef          	jal	10b80 <__printf_chk@plt>
   120de:	6b65                	lui	s6,0x19
   120e0:	6669                	lui	a2,0x1a
   120e2:	7b0b0593          	addi	a1,s6,1968 # 197b0 <_IO_stdin_used+0x50>
   120e6:	8e060613          	addi	a2,a2,-1824 # 198e0 <_IO_stdin_used+0x180>
   120ea:	4509                	li	a0,2
   120ec:	6965                	lui	s2,0x19
   120ee:	a93fe0ef          	jal	10b80 <__printf_chk@plt>
   120f2:	00044603          	lbu	a2,0(s0)
   120f6:	7b890593          	addi	a1,s2,1976 # 197b8 <_IO_stdin_used+0x58>
   120fa:	0405                	addi	s0,s0,1
   120fc:	4509                	li	a0,2
   120fe:	a83fe0ef          	jal	10b80 <__printf_chk@plt>
   12102:	ff3418e3          	bne	s0,s3,120f2 <test_point_mul_generator_once+0x166>
   12106:	4529                	li	a0,10
   12108:	aa9fe0ef          	jal	10bb0 <putchar@plt>
   1210c:	6669                	lui	a2,0x1a
   1210e:	7b0b0593          	addi	a1,s6,1968
   12112:	8e860613          	addi	a2,a2,-1816 # 198e8 <_IO_stdin_used+0x188>
   12116:	4509                	li	a0,2
   12118:	a69fe0ef          	jal	10b80 <__printf_chk@plt>
   1211c:	00044603          	lbu	a2,0(s0)
   12120:	7b890593          	addi	a1,s2,1976
   12124:	0405                	addi	s0,s0,1
   12126:	4509                	li	a0,2
   12128:	a59fe0ef          	jal	10b80 <__printf_chk@plt>
   1212c:	ff5418e3          	bne	s0,s5,1211c <test_point_mul_generator_once+0x190>
   12130:	4529                	li	a0,10
   12132:	a7ffe0ef          	jal	10bb0 <putchar@plt>
   12136:	6669                	lui	a2,0x1a
   12138:	7b0b0593          	addi	a1,s6,1968
   1213c:	8f060613          	addi	a2,a2,-1808 # 198f0 <_IO_stdin_used+0x190>
   12140:	4509                	li	a0,2
   12142:	a3ffe0ef          	jal	10b80 <__printf_chk@plt>
   12146:	00044603          	lbu	a2,0(s0)
   1214a:	7b890593          	addi	a1,s2,1976
   1214e:	0405                	addi	s0,s0,1
   12150:	4509                	li	a0,2
   12152:	a2ffe0ef          	jal	10b80 <__printf_chk@plt>
   12156:	fe8498e3          	bne	s1,s0,12146 <test_point_mul_generator_once+0x1ba>
   1215a:	4529                	li	a0,10
   1215c:	a55fe0ef          	jal	10bb0 <putchar@plt>
   12160:	7b0b0593          	addi	a1,s6,1968
   12164:	8426                	mv	s0,s1
   12166:	6669                	lui	a2,0x1a
   12168:	0ca4                	addi	s1,sp,600
   1216a:	8f860613          	addi	a2,a2,-1800 # 198f8 <_IO_stdin_used+0x198>
   1216e:	4509                	li	a0,2
   12170:	a11fe0ef          	jal	10b80 <__printf_chk@plt>
   12174:	00044603          	lbu	a2,0(s0)
   12178:	7b890593          	addi	a1,s2,1976
   1217c:	0405                	addi	s0,s0,1
   1217e:	4509                	li	a0,2
   12180:	a01fe0ef          	jal	10b80 <__printf_chk@plt>
   12184:	fe8498e3          	bne	s1,s0,12174 <test_point_mul_generator_once+0x1e8>
   12188:	4529                	li	a0,10
   1218a:	a27fe0ef          	jal	10bb0 <putchar@plt>
   1218e:	28813483          	ld	s1,648(sp)
   12192:	27813983          	ld	s3,632(sp)
   12196:	26813a83          	ld	s5,616(sp)
   1219a:	bda5                	j	12012 <test_point_mul_generator_once+0x86>
   1219c:	6418                	ld	a4,8(s0)
   1219e:	008ab783          	ld	a5,8(s5)
   121a2:	f2f717e3          	bne	a4,a5,120d0 <test_point_mul_generator_once+0x144>
   121a6:	6818                	ld	a4,16(s0)
   121a8:	010ab783          	ld	a5,16(s5)
   121ac:	f2f712e3          	bne	a4,a5,120d0 <test_point_mul_generator_once+0x144>
   121b0:	6c18                	ld	a4,24(s0)
   121b2:	018ab783          	ld	a5,24(s5)
   121b6:	f0f71de3          	bne	a4,a5,120d0 <test_point_mul_generator_once+0x144>
   121ba:	777e                	ld	a4,504(sp)
   121bc:	23813783          	ld	a5,568(sp)
   121c0:	f0f718e3          	bne	a4,a5,120d0 <test_point_mul_generator_once+0x144>
   121c4:	0089b703          	ld	a4,8(s3)
   121c8:	649c                	ld	a5,8(s1)
   121ca:	f0f713e3          	bne	a4,a5,120d0 <test_point_mul_generator_once+0x144>
   121ce:	0109b703          	ld	a4,16(s3)
   121d2:	689c                	ld	a5,16(s1)
   121d4:	eef71ee3          	bne	a4,a5,120d0 <test_point_mul_generator_once+0x144>
   121d8:	0189b703          	ld	a4,24(s3)
   121dc:	6c9c                	ld	a5,24(s1)
   121de:	eef719e3          	bne	a4,a5,120d0 <test_point_mul_generator_once+0x144>
   121e2:	28813483          	ld	s1,648(sp)
   121e6:	27813983          	ld	s3,632(sp)
   121ea:	26813a83          	ld	s5,616(sp)
   121ee:	b51d                	j	12014 <test_point_mul_generator_once+0x88>
   121f0:	28913423          	sd	s1,648(sp)
   121f4:	27313c23          	sd	s3,632(sp)
   121f8:	27513423          	sd	s5,616(sp)
   121fc:	9c5fe0ef          	jal	10bc0 <__stack_chk_fail@plt>

0000000000012200 <test_point_mul_once>:
   12200:	c6010113          	addi	sp,sp,-928
   12204:	39213023          	sd	s2,896(sp)
   12208:	6975                	lui	s2,0x1d
   1220a:	37313c23          	sd	s3,888(sp)
   1220e:	df093783          	ld	a5,-528(s2) # 1cdf0 <__stack_chk_guard@GLIBC_2.27>
   12212:	34f13423          	sd	a5,840(sp)
   12216:	4781                	li	a5,0
   12218:	89aa                	mv	s3,a0
   1221a:	00a8                	addi	a0,sp,72
   1221c:	38913423          	sd	s1,904(sp)
   12220:	1524                	addi	s1,sp,680
   12222:	37413823          	sd	s4,880(sp)
   12226:	8a2e                	mv	s4,a1
   12228:	38113c23          	sd	ra,920(sp)
   1222c:	38813823          	sd	s0,912(sp)
   12230:	35713c23          	sd	s7,856(sp)
   12234:	7d2030ef          	jal	15a06 <sm2_get_base_affine>
   12238:	2a013423          	sd	zero,680(sp)
   1223c:	0538                	addi	a4,sp,648
   1223e:	28013423          	sd	zero,648(sp)
   12242:	87ce                	mv	a5,s3
   12244:	28013823          	sd	zero,656(sp)
   12248:	28013c23          	sd	zero,664(sp)
   1224c:	2a013023          	sd	zero,672(sp)
   12250:	0004b423          	sd	zero,8(s1)
   12254:	0004b823          	sd	zero,16(s1)
   12258:	0004bc23          	sd	zero,24(s1)
   1225c:	00f70023          	sb	a5,0(a4)
   12260:	27b5                	addiw	a5,a5,13
   12262:	0705                	addi	a4,a4,1
   12264:	0ff7f793          	zext.b	a5,a5
   12268:	fee49ae3          	bne	s1,a4,1225c <test_point_mul_once+0x5c>
   1226c:	8726                	mv	a4,s1
   1226e:	05a0                	addi	s0,sp,712
   12270:	87d2                	mv	a5,s4
   12272:	00f70023          	sb	a5,0(a4)
   12276:	27b5                	addiw	a5,a5,13
   12278:	0705                	addi	a4,a4,1
   1227a:	0ff7f793          	zext.b	a5,a5
   1227e:	fe871ae3          	bne	a4,s0,12272 <test_point_mul_once+0x72>
   12282:	2a714703          	lbu	a4,679(sp)
   12286:	0530                	addi	a2,sp,648
   12288:	2c714783          	lbu	a5,711(sp)
   1228c:	00ac                	addi	a1,sp,72
   1228e:	0908                	addi	a0,sp,144
   12290:	00176713          	ori	a4,a4,1
   12294:	0017e793          	ori	a5,a5,1
   12298:	2ae103a3          	sb	a4,679(sp)
   1229c:	2cf103a3          	sb	a5,711(sp)
   122a0:	13f050ef          	jal	17bde <sm2_scalar_mul_window_ct_schemeB_mont_to_affine>
   122a4:	8626                	mv	a2,s1
   122a6:	090c                	addi	a1,sp,144
   122a8:	12a8                	addi	a0,sp,360
   122aa:	74e050ef          	jal	179f8 <sm2_scalar_mul_window_ct_schemeB_mont>
   122ae:	052c                	addi	a1,sp,648
   122b0:	0028                	addi	a0,sp,8
   122b2:	9bffe0ef          	jal	10c70 <sm2_z256_from_bytes@plt>
   122b6:	85a6                	mv	a1,s1
   122b8:	1028                	addi	a0,sp,40
   122ba:	9b7fe0ef          	jal	10c70 <sm2_z256_from_bytes@plt>
   122be:	002c                	addi	a1,sp,8
   122c0:	03a8                	addi	a0,sp,456
   122c2:	99ffe0ef          	jal	10c60 <sm2_z256_point_mul_generator@plt>
   122c6:	1428                	addi	a0,sp,552
   122c8:	03b0                	addi	a2,sp,456
   122ca:	102c                	addi	a1,sp,40
   122cc:	885fe0ef          	jal	10b50 <sm2_z256_point_mul@plt>
   122d0:	12a8                	addi	a0,sp,360
   122d2:	6f6030ef          	jal	159c8 <sm2_jacobian_is_infinity>
   122d6:	c521                	beqz	a0,1231e <test_point_mul_once+0x11e>
   122d8:	65e9                	lui	a1,0x1a
   122da:	86d2                	mv	a3,s4
   122dc:	864e                	mv	a2,s3
   122de:	90058593          	addi	a1,a1,-1792 # 19900 <_IO_stdin_used+0x1a0>
   122e2:	4509                	li	a0,2
   122e4:	89dfe0ef          	jal	10b80 <__printf_chk@plt>
   122e8:	4b81                	li	s7,0
   122ea:	34813703          	ld	a4,840(sp)
   122ee:	df093783          	ld	a5,-528(s2)
   122f2:	8fb9                	xor	a5,a5,a4
   122f4:	4701                	li	a4,0
   122f6:	1c079763          	bnez	a5,124c4 <test_point_mul_once+0x2c4>
   122fa:	39813083          	ld	ra,920(sp)
   122fe:	855e                	mv	a0,s7
   12300:	39013403          	ld	s0,912(sp)
   12304:	38813483          	ld	s1,904(sp)
   12308:	38013903          	ld	s2,896(sp)
   1230c:	37813983          	ld	s3,888(sp)
   12310:	37013a03          	ld	s4,880(sp)
   12314:	35813b83          	ld	s7,856(sp)
   12318:	3a010113          	addi	sp,sp,928
   1231c:	8082                	ret
   1231e:	12ac                	addi	a1,sp,360
   12320:	09a8                	addi	a0,sp,216
   12322:	37513423          	sd	s5,872(sp)
   12326:	37613023          	sd	s6,864(sp)
   1232a:	17d030ef          	jal	15ca6 <sm2_jacobian_mont_to_affine_mont>
   1232e:	09ac                	addi	a1,sp,216
   12330:	1208                	addi	a0,sp,288
   12332:	792030ef          	jal	15ac4 <sm2_affine_from_mont>
   12336:	16012783          	lw	a5,352(sp)
   1233a:	c791                	beqz	a5,12346 <test_point_mul_once+0x146>
   1233c:	36813a83          	ld	s5,872(sp)
   12340:	36013b03          	ld	s6,864(sp)
   12344:	bf51                	j	122d8 <test_point_mul_once+0xd8>
   12346:	120c                	addi	a1,sp,288
   12348:	8522                	mv	a0,s0
   1234a:	376010ef          	jal	136c0 <fp_to_bytes>
   1234e:	2e810a93          	addi	s5,sp,744
   12352:	028c                	addi	a1,sp,320
   12354:	8556                	mv	a0,s5
   12356:	36a010ef          	jal	136c0 <fp_to_bytes>
   1235a:	1210                	addi	a2,sp,288
   1235c:	09ac                	addi	a1,sp,216
   1235e:	1428                	addi	a0,sp,552
   12360:	931fe0ef          	jal	10c90 <sm2_z256_point_get_xy@plt>
   12364:	8baa                	mv	s7,a0
   12366:	4785                	li	a5,1
   12368:	00f50f63          	beq	a0,a5,12386 <test_point_mul_once+0x186>
   1236c:	86d2                	mv	a3,s4
   1236e:	864e                	mv	a2,s3
   12370:	65e9                	lui	a1,0x1a
   12372:	93058593          	addi	a1,a1,-1744 # 19930 <_IO_stdin_used+0x1d0>
   12376:	4509                	li	a0,2
   12378:	809fe0ef          	jal	10b80 <__printf_chk@plt>
   1237c:	36813a83          	ld	s5,872(sp)
   12380:	36013b03          	ld	s6,864(sp)
   12384:	b795                	j	122e8 <test_point_mul_once+0xe8>
   12386:	30810b13          	addi	s6,sp,776
   1238a:	09a8                	addi	a0,sp,216
   1238c:	85da                	mv	a1,s6
   1238e:	1624                	addi	s1,sp,808
   12390:	fe0fe0ef          	jal	10b70 <sm2_z256_to_bytes@plt>
   12394:	85a6                	mv	a1,s1
   12396:	1208                	addi	a0,sp,288
   12398:	fd8fe0ef          	jal	10b70 <sm2_z256_to_bytes@plt>
   1239c:	2c813703          	ld	a4,712(sp)
   123a0:	30813783          	ld	a5,776(sp)
   123a4:	0cf70763          	beq	a4,a5,12472 <test_point_mul_once+0x272>
   123a8:	86d2                	mv	a3,s4
   123aa:	864e                	mv	a2,s3
   123ac:	65e9                	lui	a1,0x1a
   123ae:	96058593          	addi	a1,a1,-1696 # 19960 <_IO_stdin_used+0x200>
   123b2:	4509                	li	a0,2
   123b4:	fccfe0ef          	jal	10b80 <__printf_chk@plt>
   123b8:	6a65                	lui	s4,0x19
   123ba:	6669                	lui	a2,0x1a
   123bc:	7b0a0593          	addi	a1,s4,1968 # 197b0 <_IO_stdin_used+0x50>
   123c0:	8e060613          	addi	a2,a2,-1824 # 198e0 <_IO_stdin_used+0x180>
   123c4:	4509                	li	a0,2
   123c6:	69e5                	lui	s3,0x19
   123c8:	fb8fe0ef          	jal	10b80 <__printf_chk@plt>
   123cc:	00044603          	lbu	a2,0(s0)
   123d0:	7b898593          	addi	a1,s3,1976 # 197b8 <_IO_stdin_used+0x58>
   123d4:	0405                	addi	s0,s0,1
   123d6:	4509                	li	a0,2
   123d8:	fa8fe0ef          	jal	10b80 <__printf_chk@plt>
   123dc:	ff5418e3          	bne	s0,s5,123cc <test_point_mul_once+0x1cc>
   123e0:	4529                	li	a0,10
   123e2:	fcefe0ef          	jal	10bb0 <putchar@plt>
   123e6:	6669                	lui	a2,0x1a
   123e8:	7b0a0593          	addi	a1,s4,1968
   123ec:	8e860613          	addi	a2,a2,-1816 # 198e8 <_IO_stdin_used+0x188>
   123f0:	4509                	li	a0,2
   123f2:	f8efe0ef          	jal	10b80 <__printf_chk@plt>
   123f6:	00044603          	lbu	a2,0(s0)
   123fa:	7b898593          	addi	a1,s3,1976
   123fe:	0405                	addi	s0,s0,1
   12400:	4509                	li	a0,2
   12402:	f7efe0ef          	jal	10b80 <__printf_chk@plt>
   12406:	ff6418e3          	bne	s0,s6,123f6 <test_point_mul_once+0x1f6>
   1240a:	4529                	li	a0,10
   1240c:	fa4fe0ef          	jal	10bb0 <putchar@plt>
   12410:	6669                	lui	a2,0x1a
   12412:	7b0a0593          	addi	a1,s4,1968
   12416:	8f060613          	addi	a2,a2,-1808 # 198f0 <_IO_stdin_used+0x190>
   1241a:	4509                	li	a0,2
   1241c:	f64fe0ef          	jal	10b80 <__printf_chk@plt>
   12420:	00044603          	lbu	a2,0(s0)
   12424:	7b898593          	addi	a1,s3,1976
   12428:	0405                	addi	s0,s0,1
   1242a:	4509                	li	a0,2
   1242c:	f54fe0ef          	jal	10b80 <__printf_chk@plt>
   12430:	fe8498e3          	bne	s1,s0,12420 <test_point_mul_once+0x220>
   12434:	4529                	li	a0,10
   12436:	f7afe0ef          	jal	10bb0 <putchar@plt>
   1243a:	7b0a0593          	addi	a1,s4,1968
   1243e:	8426                	mv	s0,s1
   12440:	6669                	lui	a2,0x1a
   12442:	06a4                	addi	s1,sp,840
   12444:	8f860613          	addi	a2,a2,-1800 # 198f8 <_IO_stdin_used+0x198>
   12448:	4509                	li	a0,2
   1244a:	f36fe0ef          	jal	10b80 <__printf_chk@plt>
   1244e:	00044603          	lbu	a2,0(s0)
   12452:	7b898593          	addi	a1,s3,1976
   12456:	0405                	addi	s0,s0,1
   12458:	4509                	li	a0,2
   1245a:	f26fe0ef          	jal	10b80 <__printf_chk@plt>
   1245e:	fe8498e3          	bne	s1,s0,1244e <test_point_mul_once+0x24e>
   12462:	4529                	li	a0,10
   12464:	f4cfe0ef          	jal	10bb0 <putchar@plt>
   12468:	36813a83          	ld	s5,872(sp)
   1246c:	36013b03          	ld	s6,864(sp)
   12470:	bda5                	j	122e8 <test_point_mul_once+0xe8>
   12472:	6418                	ld	a4,8(s0)
   12474:	008b3783          	ld	a5,8(s6)
   12478:	f2f718e3          	bne	a4,a5,123a8 <test_point_mul_once+0x1a8>
   1247c:	6818                	ld	a4,16(s0)
   1247e:	010b3783          	ld	a5,16(s6)
   12482:	f2f713e3          	bne	a4,a5,123a8 <test_point_mul_once+0x1a8>
   12486:	6c18                	ld	a4,24(s0)
   12488:	018b3783          	ld	a5,24(s6)
   1248c:	f0f71ee3          	bne	a4,a5,123a8 <test_point_mul_once+0x1a8>
   12490:	2e813703          	ld	a4,744(sp)
   12494:	32813783          	ld	a5,808(sp)
   12498:	f0f718e3          	bne	a4,a5,123a8 <test_point_mul_once+0x1a8>
   1249c:	008ab703          	ld	a4,8(s5)
   124a0:	649c                	ld	a5,8(s1)
   124a2:	f0f713e3          	bne	a4,a5,123a8 <test_point_mul_once+0x1a8>
   124a6:	010ab703          	ld	a4,16(s5)
   124aa:	689c                	ld	a5,16(s1)
   124ac:	eef71ee3          	bne	a4,a5,123a8 <test_point_mul_once+0x1a8>
   124b0:	018ab703          	ld	a4,24(s5)
   124b4:	6c9c                	ld	a5,24(s1)
   124b6:	eef719e3          	bne	a4,a5,123a8 <test_point_mul_once+0x1a8>
   124ba:	36813a83          	ld	s5,872(sp)
   124be:	36013b03          	ld	s6,864(sp)
   124c2:	b525                	j	122ea <test_point_mul_once+0xea>
   124c4:	37513423          	sd	s5,872(sp)
   124c8:	37613023          	sd	s6,864(sp)
   124cc:	ef4fe0ef          	jal	10bc0 <__stack_chk_fail@plt>

00000000000124d0 <test_fp_to_from_mont_once>:
   124d0:	7165                	addi	sp,sp,-400
   124d2:	f2d2                	sd	s4,352(sp)
   124d4:	6a75                	lui	s4,0x1d
   124d6:	df0a3783          	ld	a5,-528(s4) # 1cdf0 <__stack_chk_guard@GLIBC_2.27>
   124da:	e6be                	sd	a5,328(sp)
   124dc:	4781                	li	a5,0
   124de:	e322                	sd	s0,384(sp)
   124e0:	fea6                	sd	s1,376(sp)
   124e2:	0038                	addi	a4,sp,8
   124e4:	e706                	sd	ra,392(sp)
   124e6:	84aa                	mv	s1,a0
   124e8:	faca                	sd	s2,368(sp)
   124ea:	1020                	addi	s0,sp,40
   124ec:	f6ce                	sd	s3,360(sp)
   124ee:	87aa                	mv	a5,a0
   124f0:	eed6                	sd	s5,344(sp)
   124f2:	e402                	sd	zero,8(sp)
   124f4:	e802                	sd	zero,16(sp)
   124f6:	ec02                	sd	zero,24(sp)
   124f8:	f002                	sd	zero,32(sp)
   124fa:	00f70023          	sb	a5,0(a4)
   124fe:	27b5                	addiw	a5,a5,13
   12500:	0705                	addi	a4,a4,1
   12502:	0ff7f793          	zext.b	a5,a5
   12506:	fee41ae3          	bne	s0,a4,124fa <test_fp_to_from_mont_once+0x2a>
   1250a:	67a2                	ld	a5,8(sp)
   1250c:	8522                	mv	a0,s0
   1250e:	002c                	addi	a1,sp,8
   12510:	10810913          	addi	s2,sp,264
   12514:	0017e793          	ori	a5,a5,1
   12518:	e43e                	sd	a5,8(sp)
   1251a:	05f060ef          	jal	18d78 <fp_to_mont>
   1251e:	85a2                	mv	a1,s0
   12520:	00a8                	addi	a0,sp,72
   12522:	669060ef          	jal	1938a <fp_from_mont>
   12526:	1220                	addi	s0,sp,296
   12528:	67a2                	ld	a5,8(sp)
   1252a:	012c                	addi	a1,sp,136
   1252c:	10a8                	addi	a0,sp,104
   1252e:	f4be                	sd	a5,104(sp)
   12530:	67c2                	ld	a5,16(sp)
   12532:	f8be                	sd	a5,112(sp)
   12534:	67e2                	ld	a5,24(sp)
   12536:	fcbe                	sd	a5,120(sp)
   12538:	7782                	ld	a5,32(sp)
   1253a:	e13e                	sd	a5,128(sp)
   1253c:	e64fe0ef          	jal	10ba0 <sm2_z256_modp_to_mont@plt>
   12540:	012c                	addi	a1,sp,136
   12542:	1128                	addi	a0,sp,168
   12544:	eccfe0ef          	jal	10c10 <sm2_z256_modp_from_mont@plt>
   12548:	002c                	addi	a1,sp,8
   1254a:	11a8                	addi	a0,sp,232
   1254c:	174010ef          	jal	136c0 <fp_to_bytes>
   12550:	00ac                	addi	a1,sp,72
   12552:	854a                	mv	a0,s2
   12554:	16c010ef          	jal	136c0 <fp_to_bytes>
   12558:	77aa                	ld	a5,168(sp)
   1255a:	01ac                	addi	a1,sp,200
   1255c:	8522                	mv	a0,s0
   1255e:	e5be                	sd	a5,200(sp)
   12560:	77ca                	ld	a5,176(sp)
   12562:	e9be                	sd	a5,208(sp)
   12564:	77ea                	ld	a5,184(sp)
   12566:	edbe                	sd	a5,216(sp)
   12568:	678e                	ld	a5,192(sp)
   1256a:	f1be                	sd	a5,224(sp)
   1256c:	154010ef          	jal	136c0 <fp_to_bytes>
   12570:	77ae                	ld	a5,232(sp)
   12572:	6732                	ld	a4,264(sp)
   12574:	08e78663          	beq	a5,a4,12600 <test_fp_to_from_mont_once+0x130>
   12578:	8626                	mv	a2,s1
   1257a:	65e9                	lui	a1,0x1a
   1257c:	98858593          	addi	a1,a1,-1656 # 19988 <_IO_stdin_used+0x228>
   12580:	4509                	li	a0,2
   12582:	dfefe0ef          	jal	10b80 <__printf_chk@plt>
   12586:	6ae5                	lui	s5,0x19
   12588:	6669                	lui	a2,0x1a
   1258a:	7b0a8593          	addi	a1,s5,1968 # 197b0 <_IO_stdin_used+0x50>
   1258e:	9a860613          	addi	a2,a2,-1624 # 199a8 <_IO_stdin_used+0x248>
   12592:	11a4                	addi	s1,sp,232
   12594:	4509                	li	a0,2
   12596:	69e5                	lui	s3,0x19
   12598:	de8fe0ef          	jal	10b80 <__printf_chk@plt>
   1259c:	0004c603          	lbu	a2,0(s1)
   125a0:	7b898593          	addi	a1,s3,1976 # 197b8 <_IO_stdin_used+0x58>
   125a4:	0485                	addi	s1,s1,1
   125a6:	4509                	li	a0,2
   125a8:	dd8fe0ef          	jal	10b80 <__printf_chk@plt>
   125ac:	fe9918e3          	bne	s2,s1,1259c <test_fp_to_from_mont_once+0xcc>
   125b0:	4529                	li	a0,10
   125b2:	dfefe0ef          	jal	10bb0 <putchar@plt>
   125b6:	6669                	lui	a2,0x1a
   125b8:	7b0a8593          	addi	a1,s5,1968
   125bc:	9b060613          	addi	a2,a2,-1616 # 199b0 <_IO_stdin_used+0x250>
   125c0:	4509                	li	a0,2
   125c2:	dbefe0ef          	jal	10b80 <__printf_chk@plt>
   125c6:	00094603          	lbu	a2,0(s2)
   125ca:	7b898593          	addi	a1,s3,1976
   125ce:	0905                	addi	s2,s2,1
   125d0:	4509                	li	a0,2
   125d2:	daefe0ef          	jal	10b80 <__printf_chk@plt>
   125d6:	ff2418e3          	bne	s0,s2,125c6 <test_fp_to_from_mont_once+0xf6>
   125da:	4529                	li	a0,10
   125dc:	dd4fe0ef          	jal	10bb0 <putchar@plt>
   125e0:	4501                	li	a0,0
   125e2:	6736                	ld	a4,328(sp)
   125e4:	df0a3783          	ld	a5,-528(s4)
   125e8:	8fb9                	xor	a5,a5,a4
   125ea:	4701                	li	a4,0
   125ec:	ebd5                	bnez	a5,126a0 <test_fp_to_from_mont_once+0x1d0>
   125ee:	60ba                	ld	ra,392(sp)
   125f0:	641a                	ld	s0,384(sp)
   125f2:	74f6                	ld	s1,376(sp)
   125f4:	7956                	ld	s2,368(sp)
   125f6:	79b6                	ld	s3,360(sp)
   125f8:	7a16                	ld	s4,352(sp)
   125fa:	6af6                	ld	s5,344(sp)
   125fc:	6159                	addi	sp,sp,400
   125fe:	8082                	ret
   12600:	76ce                	ld	a3,240(sp)
   12602:	00893703          	ld	a4,8(s2)
   12606:	f6e699e3          	bne	a3,a4,12578 <test_fp_to_from_mont_once+0xa8>
   1260a:	766e                	ld	a2,248(sp)
   1260c:	01093703          	ld	a4,16(s2)
   12610:	f6e614e3          	bne	a2,a4,12578 <test_fp_to_from_mont_once+0xa8>
   12614:	6592                	ld	a1,256(sp)
   12616:	01893703          	ld	a4,24(s2)
   1261a:	f4e59fe3          	bne	a1,a4,12578 <test_fp_to_from_mont_once+0xa8>
   1261e:	7732                	ld	a4,296(sp)
   12620:	06e78563          	beq	a5,a4,1268a <test_fp_to_from_mont_once+0x1ba>
   12624:	8626                	mv	a2,s1
   12626:	65e9                	lui	a1,0x1a
   12628:	9c058593          	addi	a1,a1,-1600 # 199c0 <_IO_stdin_used+0x260>
   1262c:	4509                	li	a0,2
   1262e:	d52fe0ef          	jal	10b80 <__printf_chk@plt>
   12632:	6ae5                	lui	s5,0x19
   12634:	6669                	lui	a2,0x1a
   12636:	7b0a8593          	addi	a1,s5,1968 # 197b0 <_IO_stdin_used+0x50>
   1263a:	9a860613          	addi	a2,a2,-1624 # 199a8 <_IO_stdin_used+0x248>
   1263e:	11a4                	addi	s1,sp,232
   12640:	4509                	li	a0,2
   12642:	69e5                	lui	s3,0x19
   12644:	d3cfe0ef          	jal	10b80 <__printf_chk@plt>
   12648:	0004c603          	lbu	a2,0(s1)
   1264c:	7b898593          	addi	a1,s3,1976 # 197b8 <_IO_stdin_used+0x58>
   12650:	0485                	addi	s1,s1,1
   12652:	4509                	li	a0,2
   12654:	d2cfe0ef          	jal	10b80 <__printf_chk@plt>
   12658:	ff2498e3          	bne	s1,s2,12648 <test_fp_to_from_mont_once+0x178>
   1265c:	4529                	li	a0,10
   1265e:	d52fe0ef          	jal	10bb0 <putchar@plt>
   12662:	7b0a8593          	addi	a1,s5,1968
   12666:	6669                	lui	a2,0x1a
   12668:	02a4                	addi	s1,sp,328
   1266a:	9e860613          	addi	a2,a2,-1560 # 199e8 <_IO_stdin_used+0x288>
   1266e:	4509                	li	a0,2
   12670:	d10fe0ef          	jal	10b80 <__printf_chk@plt>
   12674:	00044603          	lbu	a2,0(s0)
   12678:	7b898593          	addi	a1,s3,1976
   1267c:	0405                	addi	s0,s0,1
   1267e:	4509                	li	a0,2
   12680:	d00fe0ef          	jal	10b80 <__printf_chk@plt>
   12684:	fe9418e3          	bne	s0,s1,12674 <test_fp_to_from_mont_once+0x1a4>
   12688:	bf89                	j	125da <test_fp_to_from_mont_once+0x10a>
   1268a:	641c                	ld	a5,8(s0)
   1268c:	f8f69ce3          	bne	a3,a5,12624 <test_fp_to_from_mont_once+0x154>
   12690:	681c                	ld	a5,16(s0)
   12692:	f8f619e3          	bne	a2,a5,12624 <test_fp_to_from_mont_once+0x154>
   12696:	6c1c                	ld	a5,24(s0)
   12698:	4505                	li	a0,1
   1269a:	f8f595e3          	bne	a1,a5,12624 <test_fp_to_from_mont_once+0x154>
   1269e:	b791                	j	125e2 <test_fp_to_from_mont_once+0x112>
   126a0:	d20fe0ef          	jal	10bc0 <__stack_chk_fail@plt>

00000000000126a4 <compare_self_gmssl_points>:
   126a4:	7109                	addi	sp,sp,-384
   126a6:	ead2                	sd	s4,336(sp)
   126a8:	6a75                	lui	s4,0x1d
   126aa:	f666                	sd	s9,296(sp)
   126ac:	df0a3783          	ld	a5,-528(s4) # 1cdf0 <__stack_chk_guard@GLIBC_2.27>
   126b0:	ee3e                	sd	a5,280(sp)
   126b2:	4781                	li	a5,0
   126b4:	8caa                	mv	s9,a0
   126b6:	852e                	mv	a0,a1
   126b8:	faa2                	sd	s0,368(sp)
   126ba:	843a                	mv	s0,a4
   126bc:	f6a6                	sd	s1,360(sp)
   126be:	84ae                	mv	s1,a1
   126c0:	f2ca                	sd	s2,352(sp)
   126c2:	8936                	mv	s2,a3
   126c4:	eece                	sd	s3,344(sp)
   126c6:	89b2                	mv	s3,a2
   126c8:	fe86                	sd	ra,376(sp)
   126ca:	e6d6                	sd	s5,328(sp)
   126cc:	2fc030ef          	jal	159c8 <sm2_jacobian_is_infinity>
   126d0:	cd15                	beqz	a0,1270c <compare_self_gmssl_points+0x68>
   126d2:	0884                	addi	s1,sp,80
   126d4:	00810a93          	addi	s5,sp,8
   126d8:	8626                	mv	a2,s1
   126da:	85d6                	mv	a1,s5
   126dc:	854e                	mv	a0,s3
   126de:	db2fe0ef          	jal	10c90 <sm2_z256_point_get_xy@plt>
   126e2:	4785                	li	a5,1
   126e4:	14f50663          	beq	a0,a5,12830 <compare_self_gmssl_points+0x18c>
   126e8:	4505                	li	a0,1
   126ea:	6772                	ld	a4,280(sp)
   126ec:	df0a3783          	ld	a5,-528(s4)
   126f0:	8fb9                	xor	a5,a5,a4
   126f2:	4701                	li	a4,0
   126f4:	28079263          	bnez	a5,12978 <compare_self_gmssl_points+0x2d4>
   126f8:	70f6                	ld	ra,376(sp)
   126fa:	7456                	ld	s0,368(sp)
   126fc:	74b6                	ld	s1,360(sp)
   126fe:	7916                	ld	s2,352(sp)
   12700:	69f6                	ld	s3,344(sp)
   12702:	6a56                	ld	s4,336(sp)
   12704:	6ab6                	ld	s5,328(sp)
   12706:	7cb2                	ld	s9,296(sp)
   12708:	6119                	addi	sp,sp,384
   1270a:	8082                	ret
   1270c:	00810a93          	addi	s5,sp,8
   12710:	85a6                	mv	a1,s1
   12712:	8556                	mv	a0,s5
   12714:	f26a                	sd	s10,288(sp)
   12716:	0884                	addi	s1,sp,80
   12718:	58e030ef          	jal	15ca6 <sm2_jacobian_mont_to_affine_mont>
   1271c:	85d6                	mv	a1,s5
   1271e:	8526                	mv	a0,s1
   12720:	3a4030ef          	jal	15ac4 <sm2_affine_from_mont>
   12724:	4d4a                	lw	s10,144(sp)
   12726:	000d0d63          	beqz	s10,12740 <compare_self_gmssl_points+0x9c>
   1272a:	8626                	mv	a2,s1
   1272c:	85d6                	mv	a1,s5
   1272e:	854e                	mv	a0,s3
   12730:	d60fe0ef          	jal	10c90 <sm2_z256_point_get_xy@plt>
   12734:	4785                	li	a5,1
   12736:	1ef50663          	beq	a0,a5,12922 <compare_self_gmssl_points+0x27e>
   1273a:	7d12                	ld	s10,288(sp)
   1273c:	4505                	li	a0,1
   1273e:	b775                	j	126ea <compare_self_gmssl_points+0x46>
   12740:	85a6                	mv	a1,s1
   12742:	0928                	addi	a0,sp,152
   12744:	e2da                	sd	s6,320(sp)
   12746:	fe5e                	sd	s7,312(sp)
   12748:	0b810b93          	addi	s7,sp,184
   1274c:	fa62                	sd	s8,304(sp)
   1274e:	773000ef          	jal	136c0 <fp_to_bytes>
   12752:	188c                	addi	a1,sp,112
   12754:	855e                	mv	a0,s7
   12756:	76b000ef          	jal	136c0 <fp_to_bytes>
   1275a:	4c05                	li	s8,1
   1275c:	8626                	mv	a2,s1
   1275e:	85d6                	mv	a1,s5
   12760:	854e                	mv	a0,s3
   12762:	d2efe0ef          	jal	10c90 <sm2_z256_point_get_xy@plt>
   12766:	8b2a                	mv	s6,a0
   12768:	4785                	li	a5,1
   1276a:	00f50463          	beq	a0,a5,12772 <compare_self_gmssl_points+0xce>
   1276e:	7bf2                	ld	s7,312(sp)
   12770:	a8e9                	j	1284a <compare_self_gmssl_points+0x1a6>
   12772:	8556                	mv	a0,s5
   12774:	09ac                	addi	a1,sp,216
   12776:	bfafe0ef          	jal	10b70 <sm2_z256_to_bytes@plt>
   1277a:	0f810993          	addi	s3,sp,248
   1277e:	85ce                	mv	a1,s3
   12780:	8526                	mv	a0,s1
   12782:	beefe0ef          	jal	10b70 <sm2_z256_to_bytes@plt>
   12786:	676a                	ld	a4,152(sp)
   12788:	67ee                	ld	a5,216(sp)
   1278a:	18f70f63          	beq	a4,a5,12928 <compare_self_gmssl_points+0x284>
   1278e:	8666                	mv	a2,s9
   12790:	65e9                	lui	a1,0x1a
   12792:	9f058593          	addi	a1,a1,-1552 # 199f0 <_IO_stdin_used+0x290>
   12796:	4509                	li	a0,2
   12798:	be8fe0ef          	jal	10b80 <__printf_chk@plt>
   1279c:	7bf2                	ld	s7,312(sp)
   1279e:	8c5a                	mv	s8,s6
   127a0:	6ae5                	lui	s5,0x19
   127a2:	6669                	lui	a2,0x1a
   127a4:	7b0a8593          	addi	a1,s5,1968 # 197b0 <_IO_stdin_used+0x50>
   127a8:	a0060613          	addi	a2,a2,-1536 # 19a00 <_IO_stdin_used+0x2a0>
   127ac:	02090993          	addi	s3,s2,32
   127b0:	4509                	li	a0,2
   127b2:	64e5                	lui	s1,0x19
   127b4:	bccfe0ef          	jal	10b80 <__printf_chk@plt>
   127b8:	00094603          	lbu	a2,0(s2)
   127bc:	7b848593          	addi	a1,s1,1976 # 197b8 <_IO_stdin_used+0x58>
   127c0:	0905                	addi	s2,s2,1
   127c2:	4509                	li	a0,2
   127c4:	bbcfe0ef          	jal	10b80 <__printf_chk@plt>
   127c8:	ff3918e3          	bne	s2,s3,127b8 <compare_self_gmssl_points+0x114>
   127cc:	4529                	li	a0,10
   127ce:	be2fe0ef          	jal	10bb0 <putchar@plt>
   127d2:	c805                	beqz	s0,12802 <compare_self_gmssl_points+0x15e>
   127d4:	7b0a8593          	addi	a1,s5,1968
   127d8:	6669                	lui	a2,0x1a
   127da:	02040913          	addi	s2,s0,32
   127de:	a1060613          	addi	a2,a2,-1520 # 19a10 <_IO_stdin_used+0x2b0>
   127e2:	4509                	li	a0,2
   127e4:	b9cfe0ef          	jal	10b80 <__printf_chk@plt>
   127e8:	00044603          	lbu	a2,0(s0)
   127ec:	7b848593          	addi	a1,s1,1976
   127f0:	0405                	addi	s0,s0,1
   127f2:	4509                	li	a0,2
   127f4:	b8cfe0ef          	jal	10b80 <__printf_chk@plt>
   127f8:	ff2418e3          	bne	s0,s2,127e8 <compare_self_gmssl_points+0x144>
   127fc:	4529                	li	a0,10
   127fe:	bb2fe0ef          	jal	10bb0 <putchar@plt>
   12802:	8662                	mv	a2,s8
   12804:	65e9                	lui	a1,0x1a
   12806:	a2058593          	addi	a1,a1,-1504 # 19a20 <_IO_stdin_used+0x2c0>
   1280a:	4509                	li	a0,2
   1280c:	b74fe0ef          	jal	10b80 <__printf_chk@plt>
   12810:	65e9                	lui	a1,0x1a
   12812:	865a                	mv	a2,s6
   12814:	a3858593          	addi	a1,a1,-1480 # 19a38 <_IO_stdin_used+0x2d8>
   12818:	4509                	li	a0,2
   1281a:	b66fe0ef          	jal	10b80 <__printf_chk@plt>
   1281e:	020c1f63          	bnez	s8,1285c <compare_self_gmssl_points+0x1b8>
   12822:	0a0b1063          	bnez	s6,128c2 <compare_self_gmssl_points+0x21e>
   12826:	6b16                	ld	s6,320(sp)
   12828:	4501                	li	a0,0
   1282a:	7c52                	ld	s8,304(sp)
   1282c:	7d12                	ld	s10,288(sp)
   1282e:	bd75                	j	126ea <compare_self_gmssl_points+0x46>
   12830:	e2da                	sd	s6,320(sp)
   12832:	fa62                	sd	s8,304(sp)
   12834:	f26a                	sd	s10,288(sp)
   12836:	09ac                	addi	a1,sp,216
   12838:	8556                	mv	a0,s5
   1283a:	b36fe0ef          	jal	10b70 <sm2_z256_to_bytes@plt>
   1283e:	4c01                	li	s8,0
   12840:	19ac                	addi	a1,sp,248
   12842:	8526                	mv	a0,s1
   12844:	b2cfe0ef          	jal	10b70 <sm2_z256_to_bytes@plt>
   12848:	4d05                	li	s10,1
   1284a:	8666                	mv	a2,s9
   1284c:	65e9                	lui	a1,0x1a
   1284e:	9f058593          	addi	a1,a1,-1552 # 199f0 <_IO_stdin_used+0x290>
   12852:	4509                	li	a0,2
   12854:	8b6a                	mv	s6,s10
   12856:	b2afe0ef          	jal	10b80 <__printf_chk@plt>
   1285a:	b799                	j	127a0 <compare_self_gmssl_points+0xfc>
   1285c:	fe5e                	sd	s7,312(sp)
   1285e:	7b0a8593          	addi	a1,s5,1968
   12862:	6669                	lui	a2,0x1a
   12864:	0920                	addi	s0,sp,152
   12866:	8e060613          	addi	a2,a2,-1824 # 198e0 <_IO_stdin_used+0x180>
   1286a:	0b810b93          	addi	s7,sp,184
   1286e:	4509                	li	a0,2
   12870:	b10fe0ef          	jal	10b80 <__printf_chk@plt>
   12874:	00044603          	lbu	a2,0(s0)
   12878:	7b848593          	addi	a1,s1,1976
   1287c:	0405                	addi	s0,s0,1
   1287e:	4509                	li	a0,2
   12880:	b00fe0ef          	jal	10b80 <__printf_chk@plt>
   12884:	ff7418e3          	bne	s0,s7,12874 <compare_self_gmssl_points+0x1d0>
   12888:	4529                	li	a0,10
   1288a:	b26fe0ef          	jal	10bb0 <putchar@plt>
   1288e:	7b0a8593          	addi	a1,s5,1968
   12892:	6669                	lui	a2,0x1a
   12894:	0d810913          	addi	s2,sp,216
   12898:	8e860613          	addi	a2,a2,-1816 # 198e8 <_IO_stdin_used+0x188>
   1289c:	4509                	li	a0,2
   1289e:	ae2fe0ef          	jal	10b80 <__printf_chk@plt>
   128a2:	00044603          	lbu	a2,0(s0)
   128a6:	7b848593          	addi	a1,s1,1976
   128aa:	0405                	addi	s0,s0,1
   128ac:	4509                	li	a0,2
   128ae:	ad2fe0ef          	jal	10b80 <__printf_chk@plt>
   128b2:	fe8918e3          	bne	s2,s0,128a2 <compare_self_gmssl_points+0x1fe>
   128b6:	4529                	li	a0,10
   128b8:	af8fe0ef          	jal	10bb0 <putchar@plt>
   128bc:	7bf2                	ld	s7,312(sp)
   128be:	f60b04e3          	beqz	s6,12826 <compare_self_gmssl_points+0x182>
   128c2:	7b0a8593          	addi	a1,s5,1968
   128c6:	6669                	lui	a2,0x1a
   128c8:	09a0                	addi	s0,sp,216
   128ca:	8f060613          	addi	a2,a2,-1808 # 198f0 <_IO_stdin_used+0x190>
   128ce:	0f810993          	addi	s3,sp,248
   128d2:	4509                	li	a0,2
   128d4:	aacfe0ef          	jal	10b80 <__printf_chk@plt>
   128d8:	00044603          	lbu	a2,0(s0)
   128dc:	7b848593          	addi	a1,s1,1976
   128e0:	0405                	addi	s0,s0,1
   128e2:	4509                	li	a0,2
   128e4:	a9cfe0ef          	jal	10b80 <__printf_chk@plt>
   128e8:	fe8998e3          	bne	s3,s0,128d8 <compare_self_gmssl_points+0x234>
   128ec:	4529                	li	a0,10
   128ee:	ac2fe0ef          	jal	10bb0 <putchar@plt>
   128f2:	7b0a8593          	addi	a1,s5,1968
   128f6:	6669                	lui	a2,0x1a
   128f8:	11810913          	addi	s2,sp,280
   128fc:	8f860613          	addi	a2,a2,-1800 # 198f8 <_IO_stdin_used+0x198>
   12900:	4509                	li	a0,2
   12902:	a7efe0ef          	jal	10b80 <__printf_chk@plt>
   12906:	0009c603          	lbu	a2,0(s3)
   1290a:	7b848593          	addi	a1,s1,1976
   1290e:	0985                	addi	s3,s3,1
   12910:	4509                	li	a0,2
   12912:	a6efe0ef          	jal	10b80 <__printf_chk@plt>
   12916:	ff3918e3          	bne	s2,s3,12906 <compare_self_gmssl_points+0x262>
   1291a:	4529                	li	a0,10
   1291c:	a94fe0ef          	jal	10bb0 <putchar@plt>
   12920:	b719                	j	12826 <compare_self_gmssl_points+0x182>
   12922:	e2da                	sd	s6,320(sp)
   12924:	fa62                	sd	s8,304(sp)
   12926:	bf01                	j	12836 <compare_self_gmssl_points+0x192>
   12928:	770a                	ld	a4,160(sp)
   1292a:	778e                	ld	a5,224(sp)
   1292c:	e6f711e3          	bne	a4,a5,1278e <compare_self_gmssl_points+0xea>
   12930:	772a                	ld	a4,168(sp)
   12932:	77ae                	ld	a5,232(sp)
   12934:	e4f71de3          	bne	a4,a5,1278e <compare_self_gmssl_points+0xea>
   12938:	774a                	ld	a4,176(sp)
   1293a:	77ce                	ld	a5,240(sp)
   1293c:	e4f719e3          	bne	a4,a5,1278e <compare_self_gmssl_points+0xea>
   12940:	776a                	ld	a4,184(sp)
   12942:	77ee                	ld	a5,248(sp)
   12944:	e4f715e3          	bne	a4,a5,1278e <compare_self_gmssl_points+0xea>
   12948:	008bb703          	ld	a4,8(s7)
   1294c:	0089b783          	ld	a5,8(s3)
   12950:	e2f71fe3          	bne	a4,a5,1278e <compare_self_gmssl_points+0xea>
   12954:	010bb703          	ld	a4,16(s7)
   12958:	0109b783          	ld	a5,16(s3)
   1295c:	e2f719e3          	bne	a4,a5,1278e <compare_self_gmssl_points+0xea>
   12960:	018bb703          	ld	a4,24(s7)
   12964:	0189b783          	ld	a5,24(s3)
   12968:	e2f713e3          	bne	a4,a5,1278e <compare_self_gmssl_points+0xea>
   1296c:	6b16                	ld	s6,320(sp)
   1296e:	4505                	li	a0,1
   12970:	7bf2                	ld	s7,312(sp)
   12972:	7c52                	ld	s8,304(sp)
   12974:	7d12                	ld	s10,288(sp)
   12976:	bb95                	j	126ea <compare_self_gmssl_points+0x46>
   12978:	e2da                	sd	s6,320(sp)
   1297a:	fe5e                	sd	s7,312(sp)
   1297c:	fa62                	sd	s8,304(sp)
   1297e:	f26a                	sd	s10,288(sp)
   12980:	a40fe0ef          	jal	10bc0 <__stack_chk_fail@plt>

0000000000012984 <test_scalar_stress_point_mul>:
   12984:	d2010113          	addi	sp,sp,-736
   12988:	72fd                	lui	t0,0xfffff
   1298a:	2c813823          	sd	s0,720(sp)
   1298e:	77fd                	lui	a5,0xfffff
   12990:	29713c23          	sd	s7,664(sp)
   12994:	fb878793          	addi	a5,a5,-72 # ffffffffffffefb8 <__BSS_END__+0xfffffffffffc58a0>
   12998:	2c113c23          	sd	ra,728(sp)
   1299c:	6b85                	lui	s7,0x1
   1299e:	2c913423          	sd	s1,712(sp)
   129a2:	240b8713          	addi	a4,s7,576 # 1240 <__abi_tag-0xf078>
   129a6:	2d213023          	sd	s2,704(sp)
   129aa:	973e                	add	a4,a4,a5
   129ac:	2b313c23          	sd	s3,696(sp)
   129b0:	6475                	lui	s0,0x1d
   129b2:	2b413823          	sd	s4,688(sp)
   129b6:	2b513423          	sd	s5,680(sp)
   129ba:	2b613023          	sd	s6,672(sp)
   129be:	29813823          	sd	s8,656(sp)
   129c2:	29913423          	sd	s9,648(sp)
   129c6:	29a13023          	sd	s10,640(sp)
   129ca:	9116                	add	sp,sp,t0
   129cc:	009c                	addi	a5,sp,64
   129ce:	97ba                	add	a5,a5,a4
   129d0:	238b8713          	addi	a4,s7,568
   129d4:	f03e                	sd	a5,32(sp)
   129d6:	853e                	mv	a0,a5
   129d8:	009c                	addi	a5,sp,64
   129da:	973e                	add	a4,a4,a5
   129dc:	df043783          	ld	a5,-528(s0) # 1cdf0 <__stack_chk_guard@GLIBC_2.27>
   129e0:	e31c                	sd	a5,0(a4)
   129e2:	4781                	li	a5,0
   129e4:	dddfe0ef          	jal	117c0 <build_stress_scalars.constprop.0>
   129e8:	1e050e63          	beqz	a0,12be4 <test_scalar_stress_point_mul+0x260>
   129ec:	240b8793          	addi	a5,s7,576
   129f0:	7afd                	lui	s5,0xfffff
   129f2:	e08a8a93          	addi	s5,s5,-504 # ffffffffffffee08 <__BSS_END__+0xfffffffffffc56f0>
   129f6:	0098                	addi	a4,sp,64
   129f8:	97d6                	add	a5,a5,s5
   129fa:	7a7d                	lui	s4,0xfffff
   129fc:	00e78ab3          	add	s5,a5,a4
   12a00:	e50a0a13          	addi	s4,s4,-432 # ffffffffffffee50 <__BSS_END__+0xfffffffffffc5738>
   12a04:	240b8793          	addi	a5,s7,576
   12a08:	79fd                	lui	s3,0xfffff
   12a0a:	97d2                	add	a5,a5,s4
   12a0c:	e9898993          	addi	s3,s3,-360 # ffffffffffffee98 <__BSS_END__+0xfffffffffffc5780>
   12a10:	00e78a33          	add	s4,a5,a4
   12a14:	240b8793          	addi	a5,s7,576
   12a18:	97ce                	add	a5,a5,s3
   12a1a:	797d                	lui	s2,0xfffff
   12a1c:	00e789b3          	add	s3,a5,a4
   12a20:	dc890913          	addi	s2,s2,-568 # ffffffffffffedc8 <__BSS_END__+0xfffffffffffc56b0>
   12a24:	240b8793          	addi	a5,s7,576
   12a28:	7482                	ld	s1,32(sp)
   12a2a:	97ca                	add	a5,a5,s2
   12a2c:	8b2a                	mv	s6,a0
   12a2e:	00e78933          	add	s2,a5,a4
   12a32:	4b85                	li	s7,1
   12a34:	6490                	ld	a2,8(s1)
   12a36:	6094                	ld	a3,0(s1)
   12a38:	688c                	ld	a1,16(s1)
   12a3a:	6c88                	ld	a0,24(s1)
   12a3c:	00d66733          	or	a4,a2,a3
   12a40:	8f4d                	or	a4,a4,a1
   12a42:	8f49                	or	a4,a4,a0
   12a44:	00875793          	srli	a5,a4,0x8
   12a48:	01075813          	srli	a6,a4,0x10
   12a4c:	8fd9                	or	a5,a5,a4
   12a4e:	01875893          	srli	a7,a4,0x18
   12a52:	0107e7b3          	or	a5,a5,a6
   12a56:	02075813          	srli	a6,a4,0x20
   12a5a:	0117e7b3          	or	a5,a5,a7
   12a5e:	02875893          	srli	a7,a4,0x28
   12a62:	0107e7b3          	or	a5,a5,a6
   12a66:	03075813          	srli	a6,a4,0x30
   12a6a:	0117e7b3          	or	a5,a5,a7
   12a6e:	9361                	srli	a4,a4,0x38
   12a70:	0107e7b3          	or	a5,a5,a6
   12a74:	8fd9                	or	a5,a5,a4
   12a76:	0ff7f793          	zext.b	a5,a5
   12a7a:	14078d63          	beqz	a5,12bd4 <test_scalar_stress_point_mul+0x250>
   12a7e:	ff0007b7          	lui	a5,0xff000
   12a82:	17fd                	addi	a5,a5,-1 # fffffffffeffffff <__BSS_END__+0xfffffffffefc68e7>
   12a84:	10f68763          	beq	a3,a5,12b92 <test_scalar_stress_point_mul+0x20e>
   12a88:	6605                	lui	a2,0x1
   12a8a:	76fd                	lui	a3,0xfffff
   12a8c:	24060593          	addi	a1,a2,576 # 1240 <__abi_tag-0xf078>
   12a90:	de868693          	addi	a3,a3,-536 # ffffffffffffede8 <__BSS_END__+0xfffffffffffc56d0>
   12a94:	95b6                	add	a1,a1,a3
   12a96:	0094                	addi	a3,sp,64
   12a98:	96ae                	add	a3,a3,a1
   12a9a:	777d                	lui	a4,0xfffff
   12a9c:	e436                	sd	a3,8(sp)
   12a9e:	ef870713          	addi	a4,a4,-264 # ffffffffffffeef8 <__BSS_END__+0xfffffffffffc57e0>
   12aa2:	86b2                	mv	a3,a2
   12aa4:	24060613          	addi	a2,a2,576
   12aa8:	963a                	add	a2,a2,a4
   12aaa:	0098                	addi	a4,sp,64
   12aac:	9732                	add	a4,a4,a2
   12aae:	77fd                	lui	a5,0xfffff
   12ab0:	e83a                	sd	a4,16(sp)
   12ab2:	f5878793          	addi	a5,a5,-168 # ffffffffffffef58 <__BSS_END__+0xfffffffffffc5840>
   12ab6:	24068713          	addi	a4,a3,576
   12aba:	7c02                	ld	s8,32(sp)
   12abc:	973e                	add	a4,a4,a5
   12abe:	009c                	addi	a5,sp,64
   12ac0:	97ba                	add	a5,a5,a4
   12ac2:	4c81                	li	s9,0
   12ac4:	ec3e                	sd	a5,24(sp)
   12ac6:	6d69                	lui	s10,0x1a
   12ac8:	a031                	j	12ad4 <test_scalar_stress_point_mul+0x150>
   12aca:	0c9d                	addi	s9,s9,7
   12acc:	0e0c0c13          	addi	s8,s8,224
   12ad0:	116cf263          	bgeu	s9,s6,12bd4 <test_scalar_stress_point_mul+0x250>
   12ad4:	8556                	mv	a0,s5
   12ad6:	731020ef          	jal	15a06 <sm2_get_base_affine>
   12ada:	8626                	mv	a2,s1
   12adc:	85d6                	mv	a1,s5
   12ade:	8552                	mv	a0,s4
   12ae0:	0fe050ef          	jal	17bde <sm2_scalar_mul_window_ct_schemeB_mont_to_affine>
   12ae4:	8662                	mv	a2,s8
   12ae6:	85d2                	mv	a1,s4
   12ae8:	854e                	mv	a0,s3
   12aea:	70f040ef          	jal	179f8 <sm2_scalar_mul_window_ct_schemeB_mont>
   12aee:	85a6                	mv	a1,s1
   12af0:	854a                	mv	a0,s2
   12af2:	97efe0ef          	jal	10c70 <sm2_z256_from_bytes@plt>
   12af6:	6522                	ld	a0,8(sp)
   12af8:	85e2                	mv	a1,s8
   12afa:	976fe0ef          	jal	10c70 <sm2_z256_from_bytes@plt>
   12afe:	6542                	ld	a0,16(sp)
   12b00:	85ca                	mv	a1,s2
   12b02:	95efe0ef          	jal	10c60 <sm2_z256_point_mul_generator@plt>
   12b06:	6642                	ld	a2,16(sp)
   12b08:	65a2                	ld	a1,8(sp)
   12b0a:	6562                	ld	a0,24(sp)
   12b0c:	844fe0ef          	jal	10b50 <sm2_z256_point_mul@plt>
   12b10:	6662                	ld	a2,24(sp)
   12b12:	8762                	mv	a4,s8
   12b14:	86a6                	mv	a3,s1
   12b16:	85ce                	mv	a1,s3
   12b18:	a50d0513          	addi	a0,s10,-1456 # 19a50 <_IO_stdin_used+0x2f0>
   12b1c:	b89ff0ef          	jal	126a4 <compare_self_gmssl_points>
   12b20:	f54d                	bnez	a0,12aca <test_scalar_stress_point_mul+0x146>
   12b22:	65e9                	lui	a1,0x1a
   12b24:	86e6                	mv	a3,s9
   12b26:	fffb8613          	addi	a2,s7,-1
   12b2a:	a6858593          	addi	a1,a1,-1432 # 19a68 <_IO_stdin_used+0x308>
   12b2e:	4509                	li	a0,2
   12b30:	850fe0ef          	jal	10b80 <__printf_chk@plt>
   12b34:	4581                	li	a1,0
   12b36:	6569                	lui	a0,0x1a
   12b38:	ad850513          	addi	a0,a0,-1320 # 19ad8 <_IO_stdin_used+0x378>
   12b3c:	b83fe0ef          	jal	116be <mark_result>
   12b40:	0098                	addi	a4,sp,64
   12b42:	6785                	lui	a5,0x1
   12b44:	23878793          	addi	a5,a5,568 # 1238 <__abi_tag-0xf080>
   12b48:	97ba                	add	a5,a5,a4
   12b4a:	6398                	ld	a4,0(a5)
   12b4c:	df043783          	ld	a5,-528(s0)
   12b50:	8fb9                	xor	a5,a5,a4
   12b52:	4701                	li	a4,0
   12b54:	26079b63          	bnez	a5,12dca <test_scalar_stress_point_mul+0x446>
   12b58:	6285                	lui	t0,0x1
   12b5a:	9116                	add	sp,sp,t0
   12b5c:	2d813083          	ld	ra,728(sp)
   12b60:	2d013403          	ld	s0,720(sp)
   12b64:	2c813483          	ld	s1,712(sp)
   12b68:	2c013903          	ld	s2,704(sp)
   12b6c:	2b813983          	ld	s3,696(sp)
   12b70:	2b013a03          	ld	s4,688(sp)
   12b74:	2a813a83          	ld	s5,680(sp)
   12b78:	2a013b03          	ld	s6,672(sp)
   12b7c:	29813b83          	ld	s7,664(sp)
   12b80:	29013c03          	ld	s8,656(sp)
   12b84:	28813c83          	ld	s9,648(sp)
   12b88:	28013d03          	ld	s10,640(sp)
   12b8c:	2e010113          	addi	sp,sp,736
   12b90:	8082                	ret
   12b92:	57fd                	li	a5,-1
   12b94:	eef61ae3          	bne	a2,a5,12a88 <test_scalar_stress_point_mul+0x104>
   12b98:	001587b7          	lui	a5,0x158
   12b9c:	2e378793          	addi	a5,a5,739 # 1582e3 <__BSS_END__+0x11ebcb>
   12ba0:	07b6                	slli	a5,a5,0xd
   12ba2:	21778793          	addi	a5,a5,535
   12ba6:	07b2                	slli	a5,a5,0xc
   12ba8:	bdf78793          	addi	a5,a5,-1057
   12bac:	07c2                	slli	a5,a5,0x10
   12bae:	37278793          	addi	a5,a5,882
   12bb2:	ecf59be3          	bne	a1,a5,12a88 <test_scalar_stress_point_mul+0x104>
   12bb6:	002347b7          	lui	a5,0x234
   12bba:	1d578793          	addi	a5,a5,469 # 2341d5 <__BSS_END__+0x1faabd>
   12bbe:	07b6                	slli	a5,a5,0xd
   12bc0:	72178793          	addi	a5,a5,1825
   12bc4:	07b6                	slli	a5,a5,0xd
   12bc6:	7d378793          	addi	a5,a5,2003
   12bca:	07ba                	slli	a5,a5,0xe
   12bcc:	b5378793          	addi	a5,a5,-1197
   12bd0:	eaf51ce3          	bne	a0,a5,12a88 <test_scalar_stress_point_mul+0x104>
   12bd4:	02048493          	addi	s1,s1,32
   12bd8:	001b8793          	addi	a5,s7,1
   12bdc:	016bf463          	bgeu	s7,s6,12be4 <test_scalar_stress_point_mul+0x260>
   12be0:	8bbe                	mv	s7,a5
   12be2:	bd89                	j	12a34 <test_scalar_stress_point_mul+0xb0>
   12be4:	6485                	lui	s1,0x1
   12be6:	25848893          	addi	a7,s1,600 # 1258 <__abi_tag-0xf060>
   12bea:	002889b3          	add	s3,a7,sp
   12bee:	27848893          	addi	a7,s1,632
   12bf2:	00288a33          	add	s4,a7,sp
   12bf6:	787d                	lui	a6,0xfffff
   12bf8:	24048893          	addi	a7,s1,576
   12bfc:	e0880813          	addi	a6,a6,-504 # ffffffffffffee08 <__BSS_END__+0xfffffffffffc56f0>
   12c00:	98c2                	add	a7,a7,a6
   12c02:	04010813          	addi	a6,sp,64
   12c06:	9846                	add	a6,a6,a7
   12c08:	757d                	lui	a0,0xfffff
   12c0a:	e442                	sd	a6,8(sp)
   12c0c:	e5050513          	addi	a0,a0,-432 # ffffffffffffee50 <__BSS_END__+0xfffffffffffc5738>
   12c10:	24048813          	addi	a6,s1,576
   12c14:	75fd                	lui	a1,0xfffff
   12c16:	982a                	add	a6,a6,a0
   12c18:	0088                	addi	a0,sp,64
   12c1a:	9542                	add	a0,a0,a6
   12c1c:	e9858593          	addi	a1,a1,-360 # ffffffffffffee98 <__BSS_END__+0xfffffffffffc5780>
   12c20:	e82a                	sd	a0,16(sp)
   12c22:	8526                	mv	a0,s1
   12c24:	24048493          	addi	s1,s1,576
   12c28:	767d                	lui	a2,0xfffff
   12c2a:	94ae                	add	s1,s1,a1
   12c2c:	008c                	addi	a1,sp,64
   12c2e:	95a6                	add	a1,a1,s1
   12c30:	dc860613          	addi	a2,a2,-568 # ffffffffffffedc8 <__BSS_END__+0xfffffffffffc56b0>
   12c34:	ec2e                	sd	a1,24(sp)
   12c36:	85aa                	mv	a1,a0
   12c38:	24050513          	addi	a0,a0,576
   12c3c:	76fd                	lui	a3,0xfffff
   12c3e:	9532                	add	a0,a0,a2
   12c40:	0090                	addi	a2,sp,64
   12c42:	962a                	add	a2,a2,a0
   12c44:	de868693          	addi	a3,a3,-536 # ffffffffffffede8 <__BSS_END__+0xfffffffffffc56d0>
   12c48:	f032                	sd	a2,32(sp)
   12c4a:	862e                	mv	a2,a1
   12c4c:	24058593          	addi	a1,a1,576
   12c50:	777d                	lui	a4,0xfffff
   12c52:	95b6                	add	a1,a1,a3
   12c54:	0094                	addi	a3,sp,64
   12c56:	96ae                	add	a3,a3,a1
   12c58:	ef870713          	addi	a4,a4,-264 # ffffffffffffeef8 <__BSS_END__+0xfffffffffffc57e0>
   12c5c:	f436                	sd	a3,40(sp)
   12c5e:	86b2                	mv	a3,a2
   12c60:	24060613          	addi	a2,a2,576
   12c64:	77fd                	lui	a5,0xfffff
   12c66:	963a                	add	a2,a2,a4
   12c68:	0098                	addi	a4,sp,64
   12c6a:	9732                	add	a4,a4,a2
   12c6c:	f5878793          	addi	a5,a5,-168 # ffffffffffffef58 <__BSS_END__+0xfffffffffffc5840>
   12c70:	f83a                	sd	a4,48(sp)
   12c72:	24068713          	addi	a4,a3,576
   12c76:	973e                	add	a4,a4,a5
   12c78:	009c                	addi	a5,sp,64
   12c7a:	97ba                	add	a5,a5,a4
   12c7c:	4a81                	li	s5,0
   12c7e:	fc3e                	sd	a5,56(sp)
   12c80:	6969                	lui	s2,0x1a
   12c82:	fc300493          	li	s1,-61
   12c86:	6705                	lui	a4,0x1
   12c88:	0ffaf793          	zext.b	a5,s5
   12c8c:	1f870613          	addi	a2,a4,504 # 11f8 <__abi_tag-0xf0c0>
   12c90:	0217869b          	addiw	a3,a5,33
   12c94:	0098                	addi	a4,sp,64
   12c96:	0ff6f693          	zext.b	a3,a3
   12c9a:	963a                	add	a2,a2,a4
   12c9c:	00d60023          	sb	a3,0(a2)
   12ca0:	26b5                	addiw	a3,a3,13
   12ca2:	0605                	addi	a2,a2,1
   12ca4:	0ff6f693          	zext.b	a3,a3
   12ca8:	fec99ae3          	bne	s3,a2,12c9c <test_scalar_stress_point_mul+0x318>
   12cac:	40f487bb          	subw	a5,s1,a5
   12cb0:	86ce                	mv	a3,s3
   12cb2:	0ff7f793          	zext.b	a5,a5
   12cb6:	00f68023          	sb	a5,0(a3)
   12cba:	27b5                	addiw	a5,a5,13
   12cbc:	0685                	addi	a3,a3,1
   12cbe:	0ff7f793          	zext.b	a5,a5
   12cc2:	feda1ae3          	bne	s4,a3,12cb6 <test_scalar_stress_point_mul+0x332>
   12cc6:	001af793          	andi	a5,s5,1
   12cca:	ef91                	bnez	a5,12ce6 <test_scalar_stress_point_mul+0x362>
   12ccc:	0094                	addi	a3,sp,64
   12cce:	6705                	lui	a4,0x1
   12cd0:	21770793          	addi	a5,a4,535 # 1217 <__abi_tag-0xf0a1>
   12cd4:	21770713          	addi	a4,a4,535
   12cd8:	97b6                	add	a5,a5,a3
   12cda:	9736                	add	a4,a4,a3
   12cdc:	0007c783          	lbu	a5,0(a5)
   12ce0:	9b81                	andi	a5,a5,-32
   12ce2:	00f70023          	sb	a5,0(a4)
   12ce6:	002af793          	andi	a5,s5,2
   12cea:	ef91                	bnez	a5,12d06 <test_scalar_stress_point_mul+0x382>
   12cec:	0094                	addi	a3,sp,64
   12cee:	6705                	lui	a4,0x1
   12cf0:	23770793          	addi	a5,a4,567 # 1237 <__abi_tag-0xf081>
   12cf4:	23770713          	addi	a4,a4,567
   12cf8:	97b6                	add	a5,a5,a3
   12cfa:	9736                	add	a4,a4,a3
   12cfc:	0007c783          	lbu	a5,0(a5)
   12d00:	9b81                	andi	a5,a5,-32
   12d02:	00f70023          	sb	a5,0(a4)
   12d06:	004af793          	andi	a5,s5,4
   12d0a:	ef99                	bnez	a5,12d28 <test_scalar_stress_point_mul+0x3a4>
   12d0c:	0094                	addi	a3,sp,64
   12d0e:	6705                	lui	a4,0x1
   12d10:	1f870793          	addi	a5,a4,504 # 11f8 <__abi_tag-0xf0c0>
   12d14:	1f870713          	addi	a4,a4,504
   12d18:	97b6                	add	a5,a5,a3
   12d1a:	9736                	add	a4,a4,a3
   12d1c:	0007c783          	lbu	a5,0(a5)
   12d20:	f807e793          	ori	a5,a5,-128
   12d24:	00f70023          	sb	a5,0(a4)
   12d28:	008af793          	andi	a5,s5,8
   12d2c:	ef99                	bnez	a5,12d4a <test_scalar_stress_point_mul+0x3c6>
   12d2e:	0094                	addi	a3,sp,64
   12d30:	6705                	lui	a4,0x1
   12d32:	21870793          	addi	a5,a4,536 # 1218 <__abi_tag-0xf0a0>
   12d36:	21870713          	addi	a4,a4,536
   12d3a:	97b6                	add	a5,a5,a3
   12d3c:	9736                	add	a4,a4,a3
   12d3e:	0007c783          	lbu	a5,0(a5)
   12d42:	f807e793          	ori	a5,a5,-128
   12d46:	00f70023          	sb	a5,0(a4)
   12d4a:	6522                	ld	a0,8(sp)
   12d4c:	6b05                	lui	s6,0x1
   12d4e:	4b9020ef          	jal	15a06 <sm2_get_base_affine>
   12d52:	65a2                	ld	a1,8(sp)
   12d54:	009c                	addi	a5,sp,64
   12d56:	6542                	ld	a0,16(sp)
   12d58:	1f8b0613          	addi	a2,s6,504 # 11f8 <__abi_tag-0xf0c0>
   12d5c:	963e                	add	a2,a2,a5
   12d5e:	681040ef          	jal	17bde <sm2_scalar_mul_window_ct_schemeB_mont_to_affine>
   12d62:	65c2                	ld	a1,16(sp)
   12d64:	864e                	mv	a2,s3
   12d66:	6562                	ld	a0,24(sp)
   12d68:	491040ef          	jal	179f8 <sm2_scalar_mul_window_ct_schemeB_mont>
   12d6c:	7502                	ld	a0,32(sp)
   12d6e:	009c                	addi	a5,sp,64
   12d70:	1f8b0593          	addi	a1,s6,504
   12d74:	95be                	add	a1,a1,a5
   12d76:	efbfd0ef          	jal	10c70 <sm2_z256_from_bytes@plt>
   12d7a:	7522                	ld	a0,40(sp)
   12d7c:	85ce                	mv	a1,s3
   12d7e:	ef3fd0ef          	jal	10c70 <sm2_z256_from_bytes@plt>
   12d82:	7582                	ld	a1,32(sp)
   12d84:	7542                	ld	a0,48(sp)
   12d86:	edbfd0ef          	jal	10c60 <sm2_z256_point_mul_generator@plt>
   12d8a:	7642                	ld	a2,48(sp)
   12d8c:	75a2                	ld	a1,40(sp)
   12d8e:	7562                	ld	a0,56(sp)
   12d90:	dc1fd0ef          	jal	10b50 <sm2_z256_point_mul@plt>
   12d94:	7662                	ld	a2,56(sp)
   12d96:	1f8b0693          	addi	a3,s6,504
   12d9a:	65e2                	ld	a1,24(sp)
   12d9c:	009c                	addi	a5,sp,64
   12d9e:	874e                	mv	a4,s3
   12da0:	96be                	add	a3,a3,a5
   12da2:	a9090513          	addi	a0,s2,-1392 # 19a90 <_IO_stdin_used+0x330>
   12da6:	8ffff0ef          	jal	126a4 <compare_self_gmssl_points>
   12daa:	c901                	beqz	a0,12dba <test_scalar_stress_point_mul+0x436>
   12dac:	2a85                	addiw	s5,s5,1
   12dae:	10000793          	li	a5,256
   12db2:	ecfa9ae3          	bne	s5,a5,12c86 <test_scalar_stress_point_mul+0x302>
   12db6:	4585                	li	a1,1
   12db8:	bbbd                	j	12b36 <test_scalar_stress_point_mul+0x1b2>
   12dba:	8656                	mv	a2,s5
   12dbc:	65e9                	lui	a1,0x1a
   12dbe:	ab058593          	addi	a1,a1,-1360 # 19ab0 <_IO_stdin_used+0x350>
   12dc2:	4509                	li	a0,2
   12dc4:	dbdfd0ef          	jal	10b80 <__printf_chk@plt>
   12dc8:	b3b5                	j	12b34 <test_scalar_stress_point_mul+0x1b0>
   12dca:	df7fd0ef          	jal	10bc0 <__stack_chk_fail@plt>

0000000000012dce <test_scalar_stress_generator>:
   12dce:	7161                	addi	sp,sp,-432
   12dd0:	72fd                	lui	t0,0xfffff
   12dd2:	ef26                	sd	s1,408(sp)
   12dd4:	77fd                	lui	a5,0xfffff
   12dd6:	e352                	sd	s4,384(sp)
   12dd8:	fd878793          	addi	a5,a5,-40 # ffffffffffffefd8 <__BSS_END__+0xfffffffffffc58c0>
   12ddc:	f706                	sd	ra,424(sp)
   12dde:	6485                	lui	s1,0x1
   12de0:	f322                	sd	s0,416(sp)
   12de2:	15048713          	addi	a4,s1,336 # 1150 <__abi_tag-0xf168>
   12de6:	eb4a                	sd	s2,400(sp)
   12de8:	973e                	add	a4,a4,a5
   12dea:	e74e                	sd	s3,392(sp)
   12dec:	6a75                	lui	s4,0x1d
   12dee:	fed6                	sd	s5,376(sp)
   12df0:	9116                	add	sp,sp,t0
   12df2:	101c                	addi	a5,sp,32
   12df4:	97ba                	add	a5,a5,a4
   12df6:	14848713          	addi	a4,s1,328
   12dfa:	e03e                	sd	a5,0(sp)
   12dfc:	853e                	mv	a0,a5
   12dfe:	101c                	addi	a5,sp,32
   12e00:	973e                	add	a4,a4,a5
   12e02:	df0a3783          	ld	a5,-528(s4) # 1cdf0 <__stack_chk_guard@GLIBC_2.27>
   12e06:	e31c                	sd	a5,0(a4)
   12e08:	4781                	li	a5,0
   12e0a:	9b7fe0ef          	jal	117c0 <build_stress_scalars.constprop.0>
   12e0e:	c941                	beqz	a0,12e9e <test_scalar_stress_generator+0xd0>
   12e10:	15048593          	addi	a1,s1,336
   12e14:	767d                	lui	a2,0xfffff
   12e16:	ed060613          	addi	a2,a2,-304 # ffffffffffffeed0 <__BSS_END__+0xfffffffffffc57b8>
   12e1a:	6402                	ld	s0,0(sp)
   12e1c:	95b2                	add	a1,a1,a2
   12e1e:	1010                	addi	a2,sp,32
   12e20:	962e                	add	a2,a2,a1
   12e22:	76fd                	lui	a3,0xfffff
   12e24:	e032                	sd	a2,0(sp)
   12e26:	eb068693          	addi	a3,a3,-336 # ffffffffffffeeb0 <__BSS_END__+0xfffffffffffc5798>
   12e2a:	15048613          	addi	a2,s1,336
   12e2e:	777d                	lui	a4,0xfffff
   12e30:	9636                	add	a2,a2,a3
   12e32:	1014                	addi	a3,sp,32
   12e34:	96b2                	add	a3,a3,a2
   12e36:	f1870713          	addi	a4,a4,-232 # ffffffffffffef18 <__BSS_END__+0xfffffffffffc5800>
   12e3a:	e436                	sd	a3,8(sp)
   12e3c:	15048693          	addi	a3,s1,336
   12e40:	96ba                	add	a3,a3,a4
   12e42:	1018                	addi	a4,sp,32
   12e44:	9736                	add	a4,a4,a3
   12e46:	77fd                	lui	a5,0xfffff
   12e48:	e83a                	sd	a4,16(sp)
   12e4a:	f7878793          	addi	a5,a5,-136 # ffffffffffffef78 <__BSS_END__+0xfffffffffffc5860>
   12e4e:	15048713          	addi	a4,s1,336
   12e52:	892a                	mv	s2,a0
   12e54:	973e                	add	a4,a4,a5
   12e56:	101c                	addi	a5,sp,32
   12e58:	97ba                	add	a5,a5,a4
   12e5a:	4481                	li	s1,0
   12e5c:	ec3e                	sd	a5,24(sp)
   12e5e:	69e9                	lui	s3,0x1a
   12e60:	6502                	ld	a0,0(sp)
   12e62:	3e1020ef          	jal	15a42 <sm2_get_base_affine_mont>
   12e66:	6522                	ld	a0,8(sp)
   12e68:	85a2                	mv	a1,s0
   12e6a:	e07fd0ef          	jal	10c70 <sm2_z256_from_bytes@plt>
   12e6e:	6582                	ld	a1,0(sp)
   12e70:	8622                	mv	a2,s0
   12e72:	6542                	ld	a0,16(sp)
   12e74:	741040ef          	jal	17db4 <sm2_scalar_mul_window_ct_schemeB_mont_affine_to_jacobian_mont>
   12e78:	65a2                	ld	a1,8(sp)
   12e7a:	6562                	ld	a0,24(sp)
   12e7c:	de5fd0ef          	jal	10c60 <sm2_z256_point_mul_generator@plt>
   12e80:	6662                	ld	a2,24(sp)
   12e82:	86a2                	mv	a3,s0
   12e84:	65c2                	ld	a1,16(sp)
   12e86:	af898513          	addi	a0,s3,-1288 # 19af8 <_IO_stdin_used+0x398>
   12e8a:	4701                	li	a4,0
   12e8c:	819ff0ef          	jal	126a4 <compare_self_gmssl_points>
   12e90:	12050063          	beqz	a0,12fb0 <test_scalar_stress_generator+0x1e2>
   12e94:	0485                	addi	s1,s1,1
   12e96:	02040413          	addi	s0,s0,32
   12e9a:	fc9913e3          	bne	s2,s1,12e60 <test_scalar_stress_generator+0x92>
   12e9e:	6585                	lui	a1,0x1
   12ea0:	16858513          	addi	a0,a1,360 # 1168 <__abi_tag-0xf150>
   12ea4:	00250433          	add	s0,a0,sp
   12ea8:	767d                	lui	a2,0xfffff
   12eaa:	15058513          	addi	a0,a1,336
   12eae:	ed060613          	addi	a2,a2,-304 # ffffffffffffeed0 <__BSS_END__+0xfffffffffffc57b8>
   12eb2:	9532                	add	a0,a0,a2
   12eb4:	1010                	addi	a2,sp,32
   12eb6:	962a                	add	a2,a2,a0
   12eb8:	76fd                	lui	a3,0xfffff
   12eba:	e032                	sd	a2,0(sp)
   12ebc:	eb068693          	addi	a3,a3,-336 # ffffffffffffeeb0 <__BSS_END__+0xfffffffffffc5798>
   12ec0:	862e                	mv	a2,a1
   12ec2:	15058593          	addi	a1,a1,336
   12ec6:	95b6                	add	a1,a1,a3
   12ec8:	1014                	addi	a3,sp,32
   12eca:	96ae                	add	a3,a3,a1
   12ecc:	777d                	lui	a4,0xfffff
   12ece:	e436                	sd	a3,8(sp)
   12ed0:	f1870713          	addi	a4,a4,-232 # ffffffffffffef18 <__BSS_END__+0xfffffffffffc5800>
   12ed4:	86b2                	mv	a3,a2
   12ed6:	15060613          	addi	a2,a2,336
   12eda:	963a                	add	a2,a2,a4
   12edc:	1018                	addi	a4,sp,32
   12ede:	9732                	add	a4,a4,a2
   12ee0:	77fd                	lui	a5,0xfffff
   12ee2:	e83a                	sd	a4,16(sp)
   12ee4:	f7878793          	addi	a5,a5,-136 # ffffffffffffef78 <__BSS_END__+0xfffffffffffc5860>
   12ee8:	15068713          	addi	a4,a3,336
   12eec:	4481                	li	s1,0
   12eee:	973e                	add	a4,a4,a5
   12ef0:	101c                	addi	a5,sp,32
   12ef2:	97ba                	add	a5,a5,a4
   12ef4:	6969                	lui	s2,0x1a
   12ef6:	ec3e                	sd	a5,24(sp)
   12ef8:	10000993          	li	s3,256
   12efc:	f904879b          	addiw	a5,s1,-112
   12f00:	1014                	addi	a3,sp,32
   12f02:	6705                	lui	a4,0x1
   12f04:	12870713          	addi	a4,a4,296 # 1128 <__abi_tag-0xf190>
   12f08:	9736                	add	a4,a4,a3
   12f0a:	0ff7f793          	zext.b	a5,a5
   12f0e:	00f70023          	sb	a5,0(a4)
   12f12:	27b5                	addiw	a5,a5,13
   12f14:	0705                	addi	a4,a4,1
   12f16:	0ff7f793          	zext.b	a5,a5
   12f1a:	fe871ae3          	bne	a4,s0,12f0e <test_scalar_stress_generator+0x140>
   12f1e:	0034f793          	andi	a5,s1,3
   12f22:	ef91                	bnez	a5,12f3e <test_scalar_stress_generator+0x170>
   12f24:	1014                	addi	a3,sp,32
   12f26:	6705                	lui	a4,0x1
   12f28:	14770793          	addi	a5,a4,327 # 1147 <__abi_tag-0xf171>
   12f2c:	14770713          	addi	a4,a4,327
   12f30:	97b6                	add	a5,a5,a3
   12f32:	9736                	add	a4,a4,a3
   12f34:	0007c783          	lbu	a5,0(a5)
   12f38:	9b81                	andi	a5,a5,-32
   12f3a:	00f70023          	sb	a5,0(a4)
   12f3e:	0074f793          	andi	a5,s1,7
   12f42:	ef99                	bnez	a5,12f60 <test_scalar_stress_generator+0x192>
   12f44:	1014                	addi	a3,sp,32
   12f46:	6705                	lui	a4,0x1
   12f48:	12870793          	addi	a5,a4,296 # 1128 <__abi_tag-0xf190>
   12f4c:	12870713          	addi	a4,a4,296
   12f50:	97b6                	add	a5,a5,a3
   12f52:	9736                	add	a4,a4,a3
   12f54:	0007c783          	lbu	a5,0(a5)
   12f58:	f807e793          	ori	a5,a5,-128
   12f5c:	00f70023          	sb	a5,0(a4)
   12f60:	6502                	ld	a0,0(sp)
   12f62:	6a85                	lui	s5,0x1
   12f64:	2df020ef          	jal	15a42 <sm2_get_base_affine_mont>
   12f68:	6522                	ld	a0,8(sp)
   12f6a:	101c                	addi	a5,sp,32
   12f6c:	128a8593          	addi	a1,s5,296 # 1128 <__abi_tag-0xf190>
   12f70:	95be                	add	a1,a1,a5
   12f72:	cfffd0ef          	jal	10c70 <sm2_z256_from_bytes@plt>
   12f76:	6582                	ld	a1,0(sp)
   12f78:	101c                	addi	a5,sp,32
   12f7a:	6542                	ld	a0,16(sp)
   12f7c:	128a8613          	addi	a2,s5,296
   12f80:	963e                	add	a2,a2,a5
   12f82:	633040ef          	jal	17db4 <sm2_scalar_mul_window_ct_schemeB_mont_affine_to_jacobian_mont>
   12f86:	65a2                	ld	a1,8(sp)
   12f88:	6562                	ld	a0,24(sp)
   12f8a:	cd7fd0ef          	jal	10c60 <sm2_z256_point_mul_generator@plt>
   12f8e:	6662                	ld	a2,24(sp)
   12f90:	128a8693          	addi	a3,s5,296
   12f94:	65c2                	ld	a1,16(sp)
   12f96:	101c                	addi	a5,sp,32
   12f98:	96be                	add	a3,a3,a5
   12f9a:	b3890513          	addi	a0,s2,-1224 # 19b38 <_IO_stdin_used+0x3d8>
   12f9e:	4701                	li	a4,0
   12fa0:	f04ff0ef          	jal	126a4 <compare_self_gmssl_points>
   12fa4:	c929                	beqz	a0,12ff6 <test_scalar_stress_generator+0x228>
   12fa6:	2485                	addiw	s1,s1,1
   12fa8:	f5349ae3          	bne	s1,s3,12efc <test_scalar_stress_generator+0x12e>
   12fac:	4585                	li	a1,1
   12fae:	a809                	j	12fc0 <test_scalar_stress_generator+0x1f2>
   12fb0:	65e9                	lui	a1,0x1a
   12fb2:	8626                	mv	a2,s1
   12fb4:	b1858593          	addi	a1,a1,-1256 # 19b18 <_IO_stdin_used+0x3b8>
   12fb8:	4509                	li	a0,2
   12fba:	bc7fd0ef          	jal	10b80 <__printf_chk@plt>
   12fbe:	4581                	li	a1,0
   12fc0:	6569                	lui	a0,0x1a
   12fc2:	b8850513          	addi	a0,a0,-1144 # 19b88 <_IO_stdin_used+0x428>
   12fc6:	ef8fe0ef          	jal	116be <mark_result>
   12fca:	1018                	addi	a4,sp,32
   12fcc:	6785                	lui	a5,0x1
   12fce:	14878793          	addi	a5,a5,328 # 1148 <__abi_tag-0xf170>
   12fd2:	97ba                	add	a5,a5,a4
   12fd4:	6398                	ld	a4,0(a5)
   12fd6:	df0a3783          	ld	a5,-528(s4)
   12fda:	8fb9                	xor	a5,a5,a4
   12fdc:	4701                	li	a4,0
   12fde:	e785                	bnez	a5,13006 <test_scalar_stress_generator+0x238>
   12fe0:	6285                	lui	t0,0x1
   12fe2:	9116                	add	sp,sp,t0
   12fe4:	70ba                	ld	ra,424(sp)
   12fe6:	741a                	ld	s0,416(sp)
   12fe8:	64fa                	ld	s1,408(sp)
   12fea:	695a                	ld	s2,400(sp)
   12fec:	69ba                	ld	s3,392(sp)
   12fee:	6a1a                	ld	s4,384(sp)
   12ff0:	7af6                	ld	s5,376(sp)
   12ff2:	615d                	addi	sp,sp,432
   12ff4:	8082                	ret
   12ff6:	8626                	mv	a2,s1
   12ff8:	65e9                	lui	a1,0x1a
   12ffa:	b6058593          	addi	a1,a1,-1184 # 19b60 <_IO_stdin_used+0x400>
   12ffe:	4509                	li	a0,2
   13000:	b81fd0ef          	jal	10b80 <__printf_chk@plt>
   13004:	bf6d                	j	12fbe <test_scalar_stress_generator+0x1f0>
   13006:	bbbfd0ef          	jal	10bc0 <__stack_chk_fail@plt>

000000000001300a <fp_mont_reduce>:
   1300a:	6198                	ld	a4,0(a1)
   1300c:	587d                	li	a6,-1
   1300e:	02081e13          	slli	t3,a6,0x20
   13012:	659c                	ld	a5,8(a1)
   13014:	6990                	ld	a2,16(a1)
   13016:	2a001893          	bseti	a7,zero,0x20
   1301a:	03c70333          	mul	t1,a4,t3
   1301e:	fff8c893          	not	a7,a7
   13022:	03c73f33          	mulhu	t5,a4,t3
   13026:	40e00e33          	neg	t3,a4
   1302a:	8e19                	sub	a2,a2,a4
   1302c:	03073eb3          	mulhu	t4,a4,a6
   13030:	03170833          	mul	a6,a4,a7
   13034:	6d94                	ld	a3,24(a1)
   13036:	979a                	add	a5,a5,t1
   13038:	031738b3          	mulhu	a7,a4,a7
   1303c:	0067b333          	sltu	t1,a5,t1
   13040:	973e                	add	a4,a4,a5
   13042:	937a                	add	t1,t1,t5
   13044:	00f737b3          	sltu	a5,a4,a5
   13048:	979a                	add	a5,a5,t1
   1304a:	01c63e33          	sltu	t3,a2,t3
   1304e:	97b2                	add	a5,a5,a2
   13050:	01de0333          	add	t1,t3,t4
   13054:	00c7b633          	sltu	a2,a5,a2
   13058:	96c2                	add	a3,a3,a6
   1305a:	961a                	add	a2,a2,t1
   1305c:	1101                	addi	sp,sp,-32
   1305e:	0106b833          	sltu	a6,a3,a6
   13062:	9636                	add	a2,a2,a3
   13064:	ec22                	sd	s0,24(sp)
   13066:	9846                	add	a6,a6,a7
   13068:	e826                	sd	s1,16(sp)
   1306a:	00d636b3          	sltu	a3,a2,a3
   1306e:	e44a                	sd	s2,8(sp)
   13070:	96c2                	add	a3,a3,a6
   13072:	0005b023          	sd	zero,0(a1)
   13076:	e598                	sd	a4,8(a1)
   13078:	e99c                	sd	a5,16(a1)
   1307a:	ed90                	sd	a2,24(a1)
   1307c:	c2a1                	beqz	a3,130bc <fp_mont_reduce+0xb2>
   1307e:	0205b803          	ld	a6,32(a1)
   13082:	9836                	add	a6,a6,a3
   13084:	0305b023          	sd	a6,32(a1)
   13088:	02d87a63          	bgeu	a6,a3,130bc <fp_mont_reduce+0xb2>
   1308c:	7594                	ld	a3,40(a1)
   1308e:	00168813          	addi	a6,a3,1
   13092:	0305b423          	sd	a6,40(a1)
   13096:	02d87363          	bgeu	a6,a3,130bc <fp_mont_reduce+0xb2>
   1309a:	7994                	ld	a3,48(a1)
   1309c:	00168813          	addi	a6,a3,1
   130a0:	0305b823          	sd	a6,48(a1)
   130a4:	00d87c63          	bgeu	a6,a3,130bc <fp_mont_reduce+0xb2>
   130a8:	7d94                	ld	a3,56(a1)
   130aa:	00168813          	addi	a6,a3,1
   130ae:	0305bc23          	sd	a6,56(a1)
   130b2:	00d87563          	bgeu	a6,a3,130bc <fp_mont_reduce+0xb2>
   130b6:	61b4                	ld	a3,64(a1)
   130b8:	0685                	addi	a3,a3,1
   130ba:	e1b4                	sd	a3,64(a1)
   130bc:	587d                	li	a6,-1
   130be:	02081893          	slli	a7,a6,0x20
   130c2:	03170333          	mul	t1,a4,a7
   130c6:	00f706b3          	add	a3,a4,a5
   130ca:	03173f33          	mulhu	t5,a4,a7
   130ce:	00e6bfb3          	sltu	t6,a3,a4
   130d2:	02e838b3          	mulhu	a7,a6,a4
   130d6:	2a001e93          	bseti	t4,zero,0x20
   130da:	fffece93          	not	t4,t4
   130de:	40e607b3          	sub	a5,a2,a4
   130e2:	9336                	add	t1,t1,a3
   130e4:	03d70e33          	mul	t3,a4,t4
   130e8:	00d336b3          	sltu	a3,t1,a3
   130ec:	9f7e                	add	t5,t5,t6
   130ee:	0205b803          	ld	a6,32(a1)
   130f2:	96fa                	add	a3,a3,t5
   130f4:	96be                	add	a3,a3,a5
   130f6:	00c7b633          	sltu	a2,a5,a2
   130fa:	03d73733          	mulhu	a4,a4,t4
   130fe:	00f6b7b3          	sltu	a5,a3,a5
   13102:	98b2                	add	a7,a7,a2
   13104:	9872                	add	a6,a6,t3
   13106:	97c6                	add	a5,a5,a7
   13108:	01c83e33          	sltu	t3,a6,t3
   1310c:	97c2                	add	a5,a5,a6
   1310e:	0005b423          	sd	zero,8(a1)
   13112:	9e3a                	add	t3,t3,a4
   13114:	0107b833          	sltu	a6,a5,a6
   13118:	0065b823          	sd	t1,16(a1)
   1311c:	9872                	add	a6,a6,t3
   1311e:	ed94                	sd	a3,24(a1)
   13120:	f19c                	sd	a5,32(a1)
   13122:	02080663          	beqz	a6,1314e <fp_mont_reduce+0x144>
   13126:	7598                	ld	a4,40(a1)
   13128:	9742                	add	a4,a4,a6
   1312a:	f598                	sd	a4,40(a1)
   1312c:	03077163          	bgeu	a4,a6,1314e <fp_mont_reduce+0x144>
   13130:	7998                	ld	a4,48(a1)
   13132:	00170613          	addi	a2,a4,1
   13136:	f990                	sd	a2,48(a1)
   13138:	00e67b63          	bgeu	a2,a4,1314e <fp_mont_reduce+0x144>
   1313c:	7d98                	ld	a4,56(a1)
   1313e:	00170613          	addi	a2,a4,1
   13142:	fd90                	sd	a2,56(a1)
   13144:	00e67563          	bgeu	a2,a4,1314e <fp_mont_reduce+0x144>
   13148:	61b8                	ld	a4,64(a1)
   1314a:	0705                	addi	a4,a4,1
   1314c:	e1b8                	sd	a4,64(a1)
   1314e:	577d                	li	a4,-1
   13150:	02071813          	slli	a6,a4,0x20
   13154:	03030633          	mul	a2,t1,a6
   13158:	2a001f13          	bseti	t5,zero,0x20
   1315c:	03033fb3          	mulhu	t6,t1,a6
   13160:	ffff4f13          	not	t5,t5
   13164:	02673eb3          	mulhu	t4,a4,t1
   13168:	406787b3          	sub	a5,a5,t1
   1316c:	03e308b3          	mul	a7,t1,t5
   13170:	0285b803          	ld	a6,40(a1)
   13174:	00d60733          	add	a4,a2,a3
   13178:	40600e33          	neg	t3,t1
   1317c:	006706b3          	add	a3,a4,t1
   13180:	00c73633          	sltu	a2,a4,a2
   13184:	967e                	add	a2,a2,t6
   13186:	00e6b733          	sltu	a4,a3,a4
   1318a:	9732                	add	a4,a4,a2
   1318c:	03e33633          	mulhu	a2,t1,t5
   13190:	973e                	add	a4,a4,a5
   13192:	01c7b333          	sltu	t1,a5,t3
   13196:	9376                	add	t1,t1,t4
   13198:	00f737b3          	sltu	a5,a4,a5
   1319c:	9846                	add	a6,a6,a7
   1319e:	979a                	add	a5,a5,t1
   131a0:	97c2                	add	a5,a5,a6
   131a2:	011838b3          	sltu	a7,a6,a7
   131a6:	98b2                	add	a7,a7,a2
   131a8:	0107b833          	sltu	a6,a5,a6
   131ac:	0005b823          	sd	zero,16(a1)
   131b0:	9846                	add	a6,a6,a7
   131b2:	ed94                	sd	a3,24(a1)
   131b4:	f198                	sd	a4,32(a1)
   131b6:	f59c                	sd	a5,40(a1)
   131b8:	02080163          	beqz	a6,131da <fp_mont_reduce+0x1d0>
   131bc:	7990                	ld	a2,48(a1)
   131be:	9642                	add	a2,a2,a6
   131c0:	f990                	sd	a2,48(a1)
   131c2:	01067c63          	bgeu	a2,a6,131da <fp_mont_reduce+0x1d0>
   131c6:	7d90                	ld	a2,56(a1)
   131c8:	00160813          	addi	a6,a2,1
   131cc:	0305bc23          	sd	a6,56(a1)
   131d0:	00c87563          	bgeu	a6,a2,131da <fp_mont_reduce+0x1d0>
   131d4:	61b0                	ld	a2,64(a1)
   131d6:	0605                	addi	a2,a2,1
   131d8:	e1b0                	sd	a2,64(a1)
   131da:	567d                	li	a2,-1
   131dc:	02061813          	slli	a6,a2,0x20
   131e0:	03068333          	mul	t1,a3,a6
   131e4:	2a001f13          	bseti	t5,zero,0x20
   131e8:	0306bfb3          	mulhu	t6,a3,a6
   131ec:	ffff4f13          	not	t5,t5
   131f0:	02d63eb3          	mulhu	t4,a2,a3
   131f4:	8f95                	sub	a5,a5,a3
   131f6:	03e68833          	mul	a6,a3,t5
   131fa:	7990                	ld	a2,48(a1)
   131fc:	971a                	add	a4,a4,t1
   131fe:	40d00e33          	neg	t3,a3
   13202:	00d708b3          	add	a7,a4,a3
   13206:	00673333          	sltu	t1,a4,t1
   1320a:	937e                	add	t1,t1,t6
   1320c:	00e8b733          	sltu	a4,a7,a4
   13210:	971a                	add	a4,a4,t1
   13212:	03e6b6b3          	mulhu	a3,a3,t5
   13216:	973e                	add	a4,a4,a5
   13218:	01c7b333          	sltu	t1,a5,t3
   1321c:	9376                	add	t1,t1,t4
   1321e:	00f737b3          	sltu	a5,a4,a5
   13222:	9642                	add	a2,a2,a6
   13224:	979a                	add	a5,a5,t1
   13226:	97b2                	add	a5,a5,a2
   13228:	01063833          	sltu	a6,a2,a6
   1322c:	9836                	add	a6,a6,a3
   1322e:	00c7b633          	sltu	a2,a5,a2
   13232:	0005bc23          	sd	zero,24(a1)
   13236:	9642                	add	a2,a2,a6
   13238:	0315b023          	sd	a7,32(a1)
   1323c:	f598                	sd	a4,40(a1)
   1323e:	f99c                	sd	a5,48(a1)
   13240:	ca09                	beqz	a2,13252 <fp_mont_reduce+0x248>
   13242:	7d9c                	ld	a5,56(a1)
   13244:	97b2                	add	a5,a5,a2
   13246:	fd9c                	sd	a5,56(a1)
   13248:	00c7f563          	bgeu	a5,a2,13252 <fp_mont_reduce+0x248>
   1324c:	61bc                	ld	a5,64(a1)
   1324e:	0785                	addi	a5,a5,1
   13250:	e1bc                	sd	a5,64(a1)
   13252:	01153023          	sd	a7,0(a0)
   13256:	2a001813          	bseti	a6,zero,0x20
   1325a:	7590                	ld	a2,40(a1)
   1325c:	5efd                	li	t4,-1
   1325e:	1e82                	slli	t4,t4,0x20
   13260:	2a001713          	bseti	a4,zero,0x20
   13264:	0705                	addi	a4,a4,1
   13266:	2a001793          	bseti	a5,zero,0x20
   1326a:	e510                	sd	a2,8(a0)
   1326c:	fff7c793          	not	a5,a5
   13270:	0305b283          	ld	t0,48(a1)
   13274:	00553823          	sd	t0,16(a0)
   13278:	0385b383          	ld	t2,56(a1)
   1327c:	00753c23          	sd	t2,24(a0)
   13280:	61b4                	ld	a3,64(a1)
   13282:	8a85                	andi	a3,a3,1
   13284:	00d88fb3          	add	t6,a7,a3
   13288:	40d006b3          	neg	a3,a3
   1328c:	08c6833b          	add.uw	t1,a3,a2
   13290:	011fb8b3          	sltu	a7,t6,a7
   13294:	011305b3          	add	a1,t1,a7
   13298:	001f8f13          	addi	t5,t6,1
   1329c:	00c33633          	sltu	a2,t1,a2
   132a0:	0065b333          	sltu	t1,a1,t1
   132a4:	01e03433          	snez	s0,t5
   132a8:	01058e33          	add	t3,a1,a6
   132ac:	00666633          	or	a2,a2,t1
   132b0:	008e38b3          	sltu	a7,t3,s0
   132b4:	01d5b333          	sltu	t1,a1,t4
   132b8:	0ff67613          	zext.b	a2,a2
   132bc:	9616                	add	a2,a2,t0
   132be:	011368b3          	or	a7,t1,a7
   132c2:	00160493          	addi	s1,a2,1
   132c6:	0ff8f313          	zext.b	t1,a7
   132ca:	0106f6b3          	and	a3,a3,a6
   132ce:	0064b8b3          	sltu	a7,s1,t1
   132d2:	005632b3          	sltu	t0,a2,t0
   132d6:	969e                	add	a3,a3,t2
   132d8:	009033b3          	snez	t2,s1
   132dc:	9696                	add	a3,a3,t0
   132de:	0113e3b3          	or	t2,t2,a7
   132e2:	00e682b3          	add	t0,a3,a4
   132e6:	0ff3f393          	zext.b	t2,t2
   132ea:	00f6b8b3          	sltu	a7,a3,a5
   132ee:	0072b933          	sltu	s2,t0,t2
   132f2:	407282b3          	sub	t0,t0,t2
   132f6:	0128e8b3          	or	a7,a7,s2
   132fa:	408e0e33          	sub	t3,t3,s0
   132fe:	0018c893          	xori	a7,a7,1
   13302:	40648333          	sub	t1,s1,t1
   13306:	0ff8f893          	zext.b	a7,a7
   1330a:	64c2                	ld	s1,16(sp)
   1330c:	411003b3          	neg	t2,a7
   13310:	18fd                	addi	a7,a7,-1
   13312:	011fffb3          	and	t6,t6,a7
   13316:	007f7f33          	and	t5,t5,t2
   1331a:	0115f5b3          	and	a1,a1,a7
   1331e:	01ff6f33          	or	t5,t5,t6
   13322:	007e7e33          	and	t3,t3,t2
   13326:	001f0f93          	addi	t6,t5,1
   1332a:	00be6e33          	or	t3,t3,a1
   1332e:	01f03433          	snez	s0,t6
   13332:	9872                	add	a6,a6,t3
   13334:	01167633          	and	a2,a2,a7
   13338:	01de35b3          	sltu	a1,t3,t4
   1333c:	00737333          	and	t1,t1,t2
   13340:	00883eb3          	sltu	t4,a6,s0
   13344:	00c36333          	or	t1,t1,a2
   13348:	01d5e5b3          	or	a1,a1,t4
   1334c:	00130613          	addi	a2,t1,1
   13350:	0ff5f593          	zext.b	a1,a1
   13354:	0072f2b3          	and	t0,t0,t2
   13358:	0116f6b3          	and	a3,a3,a7
   1335c:	00b633b3          	sltu	t2,a2,a1
   13360:	00c03eb3          	snez	t4,a2
   13364:	00d2e8b3          	or	a7,t0,a3
   13368:	007eeeb3          	or	t4,t4,t2
   1336c:	9746                	add	a4,a4,a7
   1336e:	0ffefe93          	zext.b	t4,t4
   13372:	00f8b7b3          	sltu	a5,a7,a5
   13376:	01d736b3          	sltu	a3,a4,t4
   1337a:	40880833          	sub	a6,a6,s0
   1337e:	8fd5                	or	a5,a5,a3
   13380:	41d70733          	sub	a4,a4,t4
   13384:	0017c793          	xori	a5,a5,1
   13388:	40b606b3          	sub	a3,a2,a1
   1338c:	0ff7f793          	zext.b	a5,a5
   13390:	6462                	ld	s0,24(sp)
   13392:	40f005b3          	neg	a1,a5
   13396:	17fd                	addi	a5,a5,-1
   13398:	01e7ff33          	and	t5,a5,t5
   1339c:	01c7fe33          	and	t3,a5,t3
   133a0:	0067f333          	and	t1,a5,t1
   133a4:	00bfffb3          	and	t6,t6,a1
   133a8:	00b87633          	and	a2,a6,a1
   133ac:	8eed                	and	a3,a3,a1
   133ae:	8f6d                	and	a4,a4,a1
   133b0:	0117f7b3          	and	a5,a5,a7
   133b4:	01efefb3          	or	t6,t6,t5
   133b8:	01c66633          	or	a2,a2,t3
   133bc:	0066e6b3          	or	a3,a3,t1
   133c0:	8fd9                	or	a5,a5,a4
   133c2:	01f53023          	sd	t6,0(a0)
   133c6:	6922                	ld	s2,8(sp)
   133c8:	e510                	sd	a2,8(a0)
   133ca:	e914                	sd	a3,16(a0)
   133cc:	ed1c                	sd	a5,24(a0)
   133ce:	6105                	addi	sp,sp,32
   133d0:	8082                	ret

00000000000133d2 <fp_cmp>:
   133d2:	01853303          	ld	t1,24(a0)
   133d6:	6d9c                	ld	a5,24(a1)
   133d8:	6998                	ld	a4,16(a1)
   133da:	01053803          	ld	a6,16(a0)
   133de:	406786b3          	sub	a3,a5,t1
   133e2:	6510                	ld	a2,8(a0)
   133e4:	0016b693          	seqz	a3,a3
   133e8:	0085be03          	ld	t3,8(a1)
   133ec:	010738b3          	sltu	a7,a4,a6
   133f0:	00e83833          	sltu	a6,a6,a4
   133f4:	0116f8b3          	and	a7,a3,a7
   133f8:	0067b733          	sltu	a4,a5,t1
   133fc:	0106f6b3          	and	a3,a3,a6
   13400:	00f337b3          	sltu	a5,t1,a5
   13404:	01176733          	or	a4,a4,a7
   13408:	8fd5                	or	a5,a5,a3
   1340a:	00e7e6b3          	or	a3,a5,a4
   1340e:	00ce38b3          	sltu	a7,t3,a2
   13412:	01c63833          	sltu	a6,a2,t3
   13416:	0016c693          	xori	a3,a3,1
   1341a:	6110                	ld	a2,0(a0)
   1341c:	0116f533          	and	a0,a3,a7
   13420:	618c                	ld	a1,0(a1)
   13422:	0106f6b3          	and	a3,a3,a6
   13426:	8fd5                	or	a5,a5,a3
   13428:	8d59                	or	a0,a0,a4
   1342a:	00a7e733          	or	a4,a5,a0
   1342e:	00c5b6b3          	sltu	a3,a1,a2
   13432:	00174713          	xori	a4,a4,1
   13436:	00b63633          	sltu	a2,a2,a1
   1343a:	8ef9                	and	a3,a3,a4
   1343c:	8f71                	and	a4,a4,a2
   1343e:	8d55                	or	a0,a0,a3
   13440:	8fd9                	or	a5,a5,a4
   13442:	9d1d                	subw	a0,a0,a5
   13444:	8082                	ret

0000000000013446 <fp_copy>:
   13446:	6190                	ld	a2,0(a1)
   13448:	6594                	ld	a3,8(a1)
   1344a:	6998                	ld	a4,16(a1)
   1344c:	6d9c                	ld	a5,24(a1)
   1344e:	e110                	sd	a2,0(a0)
   13450:	e514                	sd	a3,8(a0)
   13452:	e918                	sd	a4,16(a0)
   13454:	ed1c                	sd	a5,24(a0)
   13456:	8082                	ret

0000000000013458 <fp_set_zero>:
   13458:	00053023          	sd	zero,0(a0)
   1345c:	00053423          	sd	zero,8(a0)
   13460:	00053823          	sd	zero,16(a0)
   13464:	00053c23          	sd	zero,24(a0)
   13468:	8082                	ret

000000000001346a <fp_set_one>:
   1346a:	4785                	li	a5,1
   1346c:	00053423          	sd	zero,8(a0)
   13470:	e11c                	sd	a5,0(a0)
   13472:	00053823          	sd	zero,16(a0)
   13476:	00053c23          	sd	zero,24(a0)
   1347a:	8082                	ret

000000000001347c <fp_is_zero>:
   1347c:	611c                	ld	a5,0(a0)
   1347e:	6510                	ld	a2,8(a0)
   13480:	6914                	ld	a3,16(a0)
   13482:	6d18                	ld	a4,24(a0)
   13484:	00c7e533          	or	a0,a5,a2
   13488:	8d55                	or	a0,a0,a3
   1348a:	8d59                	or	a0,a0,a4
   1348c:	00153513          	seqz	a0,a0
   13490:	8082                	ret

0000000000013492 <fp_is_equal>:
   13492:	6198                	ld	a4,0(a1)
   13494:	611c                	ld	a5,0(a0)
   13496:	6510                	ld	a2,8(a0)
   13498:	0085b883          	ld	a7,8(a1)
   1349c:	6914                	ld	a3,16(a0)
   1349e:	8fb9                	xor	a5,a5,a4
   134a0:	0105b803          	ld	a6,16(a1)
   134a4:	6d18                	ld	a4,24(a0)
   134a6:	01164633          	xor	a2,a2,a7
   134aa:	6d8c                	ld	a1,24(a1)
   134ac:	00c7e533          	or	a0,a5,a2
   134b0:	0106c7b3          	xor	a5,a3,a6
   134b4:	8d5d                	or	a0,a0,a5
   134b6:	00b747b3          	xor	a5,a4,a1
   134ba:	8d5d                	or	a0,a0,a5
   134bc:	00153513          	seqz	a0,a0
   134c0:	8082                	ret

00000000000134c2 <fp_from_bytes>:
   134c2:	711d                	addi	sp,sp,-96
   134c4:	6875                	lui	a6,0x1d
   134c6:	e8a2                	sd	s0,80(sp)
   134c8:	df083783          	ld	a5,-528(a6) # 1cdf0 <__stack_chk_guard@GLIBC_2.27>
   134cc:	f43e                	sd	a5,40(sp)
   134ce:	4781                	li	a5,0
   134d0:	fc4e                	sd	s3,56(sp)
   134d2:	ec86                	sd	ra,88(sp)
   134d4:	e4a6                	sd	s1,72(sp)
   134d6:	e0ca                	sd	s2,64(sp)
   134d8:	f852                	sd	s4,48(sp)
   134da:	0185c783          	lbu	a5,24(a1)
   134de:	0195c883          	lbu	a7,25(a1)
   134e2:	0105c683          	lbu	a3,16(a1)
   134e6:	0115c603          	lbu	a2,17(a1)
   134ea:	07a2                	slli	a5,a5,0x8
   134ec:	01a5cf83          	lbu	t6,26(a1)
   134f0:	0117e7b3          	or	a5,a5,a7
   134f4:	0085c703          	lbu	a4,8(a1)
   134f8:	06a2                	slli	a3,a3,0x8
   134fa:	0125c883          	lbu	a7,18(a1)
   134fe:	8ed1                	or	a3,a3,a2
   13500:	0095c283          	lbu	t0,9(a1)
   13504:	07a2                	slli	a5,a5,0x8
   13506:	0135c303          	lbu	t1,19(a1)
   1350a:	06a2                	slli	a3,a3,0x8
   1350c:	01b5ce83          	lbu	t4,27(a1)
   13510:	00ffefb3          	or	t6,t6,a5
   13514:	00a5c603          	lbu	a2,10(a1)
   13518:	00d8e6b3          	or	a3,a7,a3
   1351c:	0722                	slli	a4,a4,0x8
   1351e:	0005c783          	lbu	a5,0(a1)
   13522:	0145c883          	lbu	a7,20(a1)
   13526:	0fa2                	slli	t6,t6,0x8
   13528:	00576733          	or	a4,a4,t0
   1352c:	06a2                	slli	a3,a3,0x8
   1352e:	0015cf03          	lbu	t5,1(a1)
   13532:	01feeeb3          	or	t4,t4,t6
   13536:	01c5ce03          	lbu	t3,28(a1)
   1353a:	00d366b3          	or	a3,t1,a3
   1353e:	0722                	slli	a4,a4,0x8
   13540:	008e9313          	slli	t1,t4,0x8
   13544:	8e59                	or	a2,a2,a4
   13546:	0155ce83          	lbu	t4,21(a1)
   1354a:	00869713          	slli	a4,a3,0x8
   1354e:	00b5ca03          	lbu	s4,11(a1)
   13552:	01d5c903          	lbu	s2,29(a1)
   13556:	00e8e8b3          	or	a7,a7,a4
   1355a:	0025c483          	lbu	s1,2(a1)
   1355e:	07a2                	slli	a5,a5,0x8
   13560:	006e6e33          	or	t3,t3,t1
   13564:	01e7e7b3          	or	a5,a5,t5
   13568:	08a2                	slli	a7,a7,0x8
   1356a:	0035c283          	lbu	t0,3(a1)
   1356e:	0045c683          	lbu	a3,4(a1)
   13572:	0622                	slli	a2,a2,0x8
   13574:	0065c703          	lbu	a4,6(a1)
   13578:	0e22                	slli	t3,t3,0x8
   1357a:	0055cf03          	lbu	t5,5(a1)
   1357e:	07a2                	slli	a5,a5,0x8
   13580:	0075cf83          	lbu	t6,7(a1)
   13584:	011eeeb3          	or	t4,t4,a7
   13588:	00c5c383          	lbu	t2,12(a1)
   1358c:	00ca6a33          	or	s4,s4,a2
   13590:	01e5c883          	lbu	a7,30(a1)
   13594:	01c96933          	or	s2,s2,t3
   13598:	8cdd                	or	s1,s1,a5
   1359a:	0165c783          	lbu	a5,22(a1)
   1359e:	00d5c303          	lbu	t1,13(a1)
   135a2:	0a22                	slli	s4,s4,0x8
   135a4:	01f5c983          	lbu	s3,31(a1)
   135a8:	0922                	slli	s2,s2,0x8
   135aa:	00e5c603          	lbu	a2,14(a1)
   135ae:	0ea2                	slli	t4,t4,0x8
   135b0:	00f5ce03          	lbu	t3,15(a1)
   135b4:	0128e8b3          	or	a7,a7,s2
   135b8:	0175c403          	lbu	s0,23(a1)
   135bc:	0143e3b3          	or	t2,t2,s4
   135c0:	00849593          	slli	a1,s1,0x8
   135c4:	03a2                	slli	t2,t2,0x8
   135c6:	00b2e5b3          	or	a1,t0,a1
   135ca:	01d7e2b3          	or	t0,a5,t4
   135ce:	00889793          	slli	a5,a7,0x8
   135d2:	02a2                	slli	t0,t0,0x8
   135d4:	00f9eeb3          	or	t4,s3,a5
   135d8:	05a2                	slli	a1,a1,0x8
   135da:	007367b3          	or	a5,t1,t2
   135de:	005468b3          	or	a7,s0,t0
   135e2:	001e8313          	addi	t1,t4,1
   135e6:	8dd5                	or	a1,a1,a3
   135e8:	07a2                	slli	a5,a5,0x8
   135ea:	006032b3          	snez	t0,t1
   135ee:	05a2                	slli	a1,a1,0x8
   135f0:	8fd1                	or	a5,a5,a2
   135f2:	2a001693          	bseti	a3,zero,0x20
   135f6:	567d                	li	a2,-1
   135f8:	96c6                	add	a3,a3,a7
   135fa:	1602                	slli	a2,a2,0x20
   135fc:	00c8b633          	sltu	a2,a7,a2
   13600:	00bf6f33          	or	t5,t5,a1
   13604:	07a2                	slli	a5,a5,0x8
   13606:	0056b5b3          	sltu	a1,a3,t0
   1360a:	00fe6e33          	or	t3,t3,a5
   1360e:	0f22                	slli	t5,t5,0x8
   13610:	00b667b3          	or	a5,a2,a1
   13614:	001e0593          	addi	a1,t3,1
   13618:	0ff7f613          	zext.b	a2,a5
   1361c:	01e767b3          	or	a5,a4,t5
   13620:	07a2                	slli	a5,a5,0x8
   13622:	00c5b733          	sltu	a4,a1,a2
   13626:	00b03f33          	snez	t5,a1
   1362a:	00ffefb3          	or	t6,t6,a5
   1362e:	00ef6f33          	or	t5,t5,a4
   13632:	2a001793          	bseti	a5,zero,0x20
   13636:	0785                	addi	a5,a5,1
   13638:	0fff7f13          	zext.b	t5,t5
   1363c:	00ff8733          	add	a4,t6,a5
   13640:	2a001793          	bseti	a5,zero,0x20
   13644:	fff7c793          	not	a5,a5
   13648:	01e733b3          	sltu	t2,a4,t5
   1364c:	00ffb7b3          	sltu	a5,t6,a5
   13650:	40c58633          	sub	a2,a1,a2
   13654:	0077e7b3          	or	a5,a5,t2
   13658:	405686b3          	sub	a3,a3,t0
   1365c:	0017c793          	xori	a5,a5,1
   13660:	41e70733          	sub	a4,a4,t5
   13664:	0ff7f793          	zext.b	a5,a5
   13668:	40f005b3          	neg	a1,a5
   1366c:	17fd                	addi	a5,a5,-1
   1366e:	00b37333          	and	t1,t1,a1
   13672:	01d7feb3          	and	t4,a5,t4
   13676:	8eed                	and	a3,a3,a1
   13678:	0117f8b3          	and	a7,a5,a7
   1367c:	8e6d                	and	a2,a2,a1
   1367e:	01c7fe33          	and	t3,a5,t3
   13682:	8f6d                	and	a4,a4,a1
   13684:	01f7f7b3          	and	a5,a5,t6
   13688:	8f5d                	or	a4,a4,a5
   1368a:	01d36333          	or	t1,t1,t4
   1368e:	0116e6b3          	or	a3,a3,a7
   13692:	01c66633          	or	a2,a2,t3
   13696:	00653023          	sd	t1,0(a0)
   1369a:	75a2                	ld	a1,40(sp)
   1369c:	df083783          	ld	a5,-528(a6)
   136a0:	8fad                	xor	a5,a5,a1
   136a2:	4581                	li	a1,0
   136a4:	e514                	sd	a3,8(a0)
   136a6:	e910                	sd	a2,16(a0)
   136a8:	ed18                	sd	a4,24(a0)
   136aa:	eb89                	bnez	a5,136bc <fp_from_bytes+0x1fa>
   136ac:	60e6                	ld	ra,88(sp)
   136ae:	6446                	ld	s0,80(sp)
   136b0:	64a6                	ld	s1,72(sp)
   136b2:	6906                	ld	s2,64(sp)
   136b4:	79e2                	ld	s3,56(sp)
   136b6:	7a42                	ld	s4,48(sp)
   136b8:	6125                	addi	sp,sp,96
   136ba:	8082                	ret
   136bc:	d04fd0ef          	jal	10bc0 <__stack_chk_fail@plt>

00000000000136c0 <fp_to_bytes>:
   136c0:	6d9c                	ld	a5,24(a1)
   136c2:	6b87d793          	rev8	a5,a5
   136c6:	e11c                	sd	a5,0(a0)
   136c8:	699c                	ld	a5,16(a1)
   136ca:	6b87d793          	rev8	a5,a5
   136ce:	e51c                	sd	a5,8(a0)
   136d0:	659c                	ld	a5,8(a1)
   136d2:	6b87d793          	rev8	a5,a5
   136d6:	e91c                	sd	a5,16(a0)
   136d8:	619c                	ld	a5,0(a1)
   136da:	6b87d793          	rev8	a5,a5
   136de:	ed1c                	sd	a5,24(a0)
   136e0:	8082                	ret

00000000000136e2 <fp_mont_set_zero>:
   136e2:	00053023          	sd	zero,0(a0)
   136e6:	00053423          	sd	zero,8(a0)
   136ea:	00053823          	sd	zero,16(a0)
   136ee:	00053c23          	sd	zero,24(a0)
   136f2:	8082                	ret

00000000000136f4 <fp_mont_set_one>:
   136f4:	67e9                	lui	a5,0x1a
   136f6:	f1878793          	addi	a5,a5,-232 # 19f18 <FP_MONT_ONE>
   136fa:	6390                	ld	a2,0(a5)
   136fc:	6794                	ld	a3,8(a5)
   136fe:	6b98                	ld	a4,16(a5)
   13700:	6f9c                	ld	a5,24(a5)
   13702:	e110                	sd	a2,0(a0)
   13704:	e514                	sd	a3,8(a0)
   13706:	e918                	sd	a4,16(a0)
   13708:	ed1c                	sd	a5,24(a0)
   1370a:	8082                	ret

000000000001370c <fp_mul_4x4_u512_ct>:
   1370c:	00063883          	ld	a7,0(a2)
   13710:	711d                	addi	sp,sp,-96
   13712:	00863283          	ld	t0,8(a2)
   13716:	e8a6                	sd	s1,80(sp)
   13718:	0005b803          	ld	a6,0(a1)
   1371c:	e4ca                	sd	s2,72(sp)
   1371e:	0085b383          	ld	t2,8(a1)
   13722:	f856                	sd	s5,48(sp)
   13724:	0105bf83          	ld	t6,16(a1)
   13728:	eca2                	sd	s0,88(sp)
   1372a:	031837b3          	mulhu	a5,a6,a7
   1372e:	0185be03          	ld	t3,24(a1)
   13732:	03028733          	mul	a4,t0,a6
   13736:	01863e83          	ld	t4,24(a2)
   1373a:	031386b3          	mul	a3,t2,a7
   1373e:	01063f03          	ld	t5,16(a2)
   13742:	0302b333          	mulhu	t1,t0,a6
   13746:	e0ce                	sd	s3,64(sp)
   13748:	0313b5b3          	mulhu	a1,t2,a7
   1374c:	fc52                	sd	s4,56(sp)
   1374e:	00f70633          	add	a2,a4,a5
   13752:	030f04b3          	mul	s1,t5,a6
   13756:	00e63733          	sltu	a4,a2,a4
   1375a:	9636                	add	a2,a2,a3
   1375c:	971a                	add	a4,a4,t1
   1375e:	00d636b3          	sltu	a3,a2,a3
   13762:	972e                	add	a4,a4,a1
   13764:	030f3933          	mulhu	s2,t5,a6
   13768:	00e68333          	add	t1,a3,a4
   1376c:	02538ab3          	mul	s5,t2,t0
   13770:	00b737b3          	sltu	a5,a4,a1
   13774:	00d336b3          	sltu	a3,t1,a3
   13778:	0253b433          	mulhu	s0,t2,t0
   1377c:	8fd5                	or	a5,a5,a3
   1377e:	031f89b3          	mul	s3,t6,a7
   13782:	9326                	add	t1,t1,s1
   13784:	0ff7f793          	zext.b	a5,a5
   13788:	031fba33          	mulhu	s4,t6,a7
   1378c:	009334b3          	sltu	s1,t1,s1
   13790:	97ca                	add	a5,a5,s2
   13792:	97a6                	add	a5,a5,s1
   13794:	9356                	add	t1,t1,s5
   13796:	00f405b3          	add	a1,s0,a5
   1379a:	01533ab3          	sltu	s5,t1,s5
   1379e:	f45a                	sd	s6,40(sp)
   137a0:	934e                	add	t1,t1,s3
   137a2:	00ba8b33          	add	s6,s5,a1
   137a6:	013339b3          	sltu	s3,t1,s3
   137aa:	016a0733          	add	a4,s4,s6
   137ae:	030e8933          	mul	s2,t4,a6
   137b2:	00e986b3          	add	a3,s3,a4
   137b6:	0085b5b3          	sltu	a1,a1,s0
   137ba:	015b3433          	sltu	s0,s6,s5
   137be:	030ebb33          	mulhu	s6,t4,a6
   137c2:	8c4d                	or	s0,s0,a1
   137c4:	014735b3          	sltu	a1,a4,s4
   137c8:	0136ba33          	sltu	s4,a3,s3
   137cc:	0ff47713          	zext.b	a4,s0
   137d0:	027f09b3          	mul	s3,t5,t2
   137d4:	0097b7b3          	sltu	a5,a5,s1
   137d8:	0145e5b3          	or	a1,a1,s4
   137dc:	f05e                	sd	s7,32(sp)
   137de:	97ba                	add	a5,a5,a4
   137e0:	027f3bb3          	mulhu	s7,t5,t2
   137e4:	0ff5f593          	zext.b	a1,a1
   137e8:	e866                	sd	s9,16(sp)
   137ea:	96ca                	add	a3,a3,s2
   137ec:	025f8cb3          	mul	s9,t6,t0
   137f0:	95be                	add	a1,a1,a5
   137f2:	ec62                	sd	s8,24(sp)
   137f4:	0126b933          	sltu	s2,a3,s2
   137f8:	025fbc33          	mulhu	s8,t6,t0
   137fc:	95da                	add	a1,a1,s6
   137fe:	031e07b3          	mul	a5,t3,a7
   13802:	00b90a33          	add	s4,s2,a1
   13806:	96ce                	add	a3,a3,s3
   13808:	031e3733          	mulhu	a4,t3,a7
   1380c:	014b8ab3          	add	s5,s7,s4
   13810:	0136b9b3          	sltu	s3,a3,s3
   13814:	96e6                	add	a3,a3,s9
   13816:	015984b3          	add	s1,s3,s5
   1381a:	0196bcb3          	sltu	s9,a3,s9
   1381e:	009c0433          	add	s0,s8,s1
   13822:	e46a                	sd	s10,8(sp)
   13824:	96be                	add	a3,a3,a5
   13826:	008c8d33          	add	s10,s9,s0
   1382a:	e06e                	sd	s11,0(sp)
   1382c:	017abab3          	sltu	s5,s5,s7
   13830:	00f6bdb3          	sltu	s11,a3,a5
   13834:	012a3a33          	sltu	s4,s4,s2
   13838:	01a707b3          	add	a5,a4,s10
   1383c:	0134b4b3          	sltu	s1,s1,s3
   13840:	0165b5b3          	sltu	a1,a1,s6
   13844:	027e8933          	mul	s2,t4,t2
   13848:	00fd89b3          	add	s3,s11,a5
   1384c:	019d3d33          	sltu	s10,s10,s9
   13850:	009ae4b3          	or	s1,s5,s1
   13854:	0145e5b3          	or	a1,a1,s4
   13858:	01843433          	sltu	s0,s0,s8
   1385c:	027eb3b3          	mulhu	t2,t4,t2
   13860:	0ff5f593          	zext.b	a1,a1
   13864:	01a46433          	or	s0,s0,s10
   13868:	00e7b733          	sltu	a4,a5,a4
   1386c:	0ff4f493          	zext.b	s1,s1
   13870:	01b9b7b3          	sltu	a5,s3,s11
   13874:	03ef8b33          	mul	s6,t6,t5
   13878:	94ae                	add	s1,s1,a1
   1387a:	8f5d                	or	a4,a4,a5
   1387c:	0ff47413          	zext.b	s0,s0
   13880:	03efba33          	mulhu	s4,t6,t5
   13884:	9426                	add	s0,s0,s1
   13886:	0ff77713          	zext.b	a4,a4
   1388a:	025e04b3          	mul	s1,t3,t0
   1388e:	013905b3          	add	a1,s2,s3
   13892:	9722                	add	a4,a4,s0
   13894:	025e3ab3          	mulhu	s5,t3,t0
   13898:	0125b933          	sltu	s2,a1,s2
   1389c:	971e                	add	a4,a4,t2
   1389e:	00e90bb3          	add	s7,s2,a4
   138a2:	95da                	add	a1,a1,s6
   138a4:	017a02b3          	add	t0,s4,s7
   138a8:	0165bb33          	sltu	s6,a1,s6
   138ac:	005b0c33          	add	s8,s6,t0
   138b0:	95a6                	add	a1,a1,s1
   138b2:	018a87b3          	add	a5,s5,s8
   138b6:	0095b9b3          	sltu	s3,a1,s1
   138ba:	03fe8433          	mul	s0,t4,t6
   138be:	00f984b3          	add	s1,s3,a5
   138c2:	016c3c33          	sltu	s8,s8,s6
   138c6:	012bbbb3          	sltu	s7,s7,s2
   138ca:	0142b2b3          	sltu	t0,t0,s4
   138ce:	00773733          	sltu	a4,a4,t2
   138d2:	03febfb3          	mulhu	t6,t4,t6
   138d6:	0134b9b3          	sltu	s3,s1,s3
   138da:	0182e2b3          	or	t0,t0,s8
   138de:	01776733          	or	a4,a4,s7
   138e2:	0157b7b3          	sltu	a5,a5,s5
   138e6:	03ee03b3          	mul	t2,t3,t5
   138ea:	0ff77713          	zext.b	a4,a4
   138ee:	0137e7b3          	or	a5,a5,s3
   138f2:	0ff2f293          	zext.b	t0,t0
   138f6:	03ee3f33          	mulhu	t5,t3,t5
   138fa:	92ba                	add	t0,t0,a4
   138fc:	0ff7f793          	zext.b	a5,a5
   13900:	94a2                	add	s1,s1,s0
   13902:	9796                	add	a5,a5,t0
   13904:	0084b433          	sltu	s0,s1,s0
   13908:	97fe                	add	a5,a5,t6
   1390a:	00f40933          	add	s2,s0,a5
   1390e:	009382b3          	add	t0,t2,s1
   13912:	012f0733          	add	a4,t5,s2
   13916:	03de04b3          	mul	s1,t3,t4
   1391a:	0072b3b3          	sltu	t2,t0,t2
   1391e:	03de3e33          	mulhu	t3,t3,t4
   13922:	00893933          	sltu	s2,s2,s0
   13926:	00e38eb3          	add	t4,t2,a4
   1392a:	01f7b7b3          	sltu	a5,a5,t6
   1392e:	01e73733          	sltu	a4,a4,t5
   13932:	0127e7b3          	or	a5,a5,s2
   13936:	007eb3b3          	sltu	t2,t4,t2
   1393a:	03180833          	mul	a6,a6,a7
   1393e:	0ff7f793          	zext.b	a5,a5
   13942:	00776733          	or	a4,a4,t2
   13946:	6466                	ld	s0,88(sp)
   13948:	01d488b3          	add	a7,s1,t4
   1394c:	97f2                	add	a5,a5,t3
   1394e:	0ff77713          	zext.b	a4,a4
   13952:	0098b4b3          	sltu	s1,a7,s1
   13956:	97ba                	add	a5,a5,a4
   13958:	6926                	ld	s2,72(sp)
   1395a:	97a6                	add	a5,a5,s1
   1395c:	6986                	ld	s3,64(sp)
   1395e:	64c6                	ld	s1,80(sp)
   13960:	01053023          	sd	a6,0(a0)
   13964:	e510                	sd	a2,8(a0)
   13966:	00653823          	sd	t1,16(a0)
   1396a:	ed14                	sd	a3,24(a0)
   1396c:	f10c                	sd	a1,32(a0)
   1396e:	02553423          	sd	t0,40(a0)
   13972:	03153823          	sd	a7,48(a0)
   13976:	fd1c                	sd	a5,56(a0)
   13978:	7a62                	ld	s4,56(sp)
   1397a:	7ac2                	ld	s5,48(sp)
   1397c:	7b22                	ld	s6,40(sp)
   1397e:	7b82                	ld	s7,32(sp)
   13980:	6c62                	ld	s8,24(sp)
   13982:	6cc2                	ld	s9,16(sp)
   13984:	6d22                	ld	s10,8(sp)
   13986:	6d82                	ld	s11,0(sp)
   13988:	6125                	addi	sp,sp,96
   1398a:	8082                	ret

000000000001398c <fp_mont_reduce_ct>:
   1398c:	e7eff06f          	j	1300a <fp_mont_reduce>

0000000000013990 <fp_mont_mul_ct>:
   13990:	7171                	addi	sp,sp,-176
   13992:	f122                	sd	s0,160(sp)
   13994:	842a                	mv	s0,a0
   13996:	ed26                	sd	s1,152(sp)
   13998:	850a                	mv	a0,sp
   1399a:	64f5                	lui	s1,0x1d
   1399c:	df04b783          	ld	a5,-528(s1) # 1cdf0 <__stack_chk_guard@GLIBC_2.27>
   139a0:	e53e                	sd	a5,136(sp)
   139a2:	4781                	li	a5,0
   139a4:	f506                	sd	ra,168(sp)
   139a6:	d67ff0ef          	jal	1370c <fp_mul_4x4_u512_ct>
   139aa:	6782                	ld	a5,0(sp)
   139ac:	008c                	addi	a1,sp,64
   139ae:	8522                	mv	a0,s0
   139b0:	e102                	sd	zero,128(sp)
   139b2:	e0be                	sd	a5,64(sp)
   139b4:	67a2                	ld	a5,8(sp)
   139b6:	e4be                	sd	a5,72(sp)
   139b8:	67c2                	ld	a5,16(sp)
   139ba:	e8be                	sd	a5,80(sp)
   139bc:	67e2                	ld	a5,24(sp)
   139be:	ecbe                	sd	a5,88(sp)
   139c0:	7782                	ld	a5,32(sp)
   139c2:	f0be                	sd	a5,96(sp)
   139c4:	77a2                	ld	a5,40(sp)
   139c6:	f4be                	sd	a5,104(sp)
   139c8:	77c2                	ld	a5,48(sp)
   139ca:	f8be                	sd	a5,112(sp)
   139cc:	77e2                	ld	a5,56(sp)
   139ce:	fcbe                	sd	a5,120(sp)
   139d0:	e3aff0ef          	jal	1300a <fp_mont_reduce>
   139d4:	672a                	ld	a4,136(sp)
   139d6:	df04b783          	ld	a5,-528(s1)
   139da:	8fb9                	xor	a5,a5,a4
   139dc:	4701                	li	a4,0
   139de:	e791                	bnez	a5,139ea <fp_mont_mul_ct+0x5a>
   139e0:	70aa                	ld	ra,168(sp)
   139e2:	740a                	ld	s0,160(sp)
   139e4:	64ea                	ld	s1,152(sp)
   139e6:	614d                	addi	sp,sp,176
   139e8:	8082                	ret
   139ea:	9d6fd0ef          	jal	10bc0 <__stack_chk_fail@plt>

00000000000139ee <fp_mont_inv>:
   139ee:	7121                	addi	sp,sp,-448
   139f0:	f34a                	sd	s2,416(sp)
   139f2:	892a                	mv	s2,a0
   139f4:	ef4e                	sd	s3,408(sp)
   139f6:	0028                	addi	a0,sp,8
   139f8:	69f5                	lui	s3,0x1d
   139fa:	df09b783          	ld	a5,-528(s3) # 1cdf0 <__stack_chk_guard@GLIBC_2.27>
   139fe:	e73e                	sd	a5,392(sp)
   13a00:	4781                	li	a5,0
   13a02:	ff06                	sd	ra,440(sp)
   13a04:	fb22                	sd	s0,432(sp)
   13a06:	441d                	li	s0,7
   13a08:	f726                	sd	s1,424(sp)
   13a0a:	84ae                	mv	s1,a1
   13a0c:	4c1040ef          	jal	186cc <fp_mont_sqr>
   13a10:	002c                	addi	a1,sp,8
   13a12:	8626                	mv	a2,s1
   13a14:	852e                	mv	a0,a1
   13a16:	76a040ef          	jal	18180 <fp_mont_mul>
   13a1a:	002c                	addi	a1,sp,8
   13a1c:	1028                	addi	a0,sp,40
   13a1e:	4af040ef          	jal	186cc <fp_mont_sqr>
   13a22:	102c                	addi	a1,sp,40
   13a24:	852e                	mv	a0,a1
   13a26:	4a7040ef          	jal	186cc <fp_mont_sqr>
   13a2a:	102c                	addi	a1,sp,40
   13a2c:	0030                	addi	a2,sp,8
   13a2e:	852e                	mv	a0,a1
   13a30:	750040ef          	jal	18180 <fp_mont_mul>
   13a34:	102c                	addi	a1,sp,40
   13a36:	00a8                	addi	a0,sp,72
   13a38:	495040ef          	jal	186cc <fp_mont_sqr>
   13a3c:	00ac                	addi	a1,sp,72
   13a3e:	852e                	mv	a0,a1
   13a40:	48d040ef          	jal	186cc <fp_mont_sqr>
   13a44:	00ac                	addi	a1,sp,72
   13a46:	852e                	mv	a0,a1
   13a48:	485040ef          	jal	186cc <fp_mont_sqr>
   13a4c:	00ac                	addi	a1,sp,72
   13a4e:	852e                	mv	a0,a1
   13a50:	47d040ef          	jal	186cc <fp_mont_sqr>
   13a54:	00ac                	addi	a1,sp,72
   13a56:	1030                	addi	a2,sp,40
   13a58:	852e                	mv	a0,a1
   13a5a:	726040ef          	jal	18180 <fp_mont_mul>
   13a5e:	00ac                	addi	a1,sp,72
   13a60:	10a8                	addi	a0,sp,104
   13a62:	46b040ef          	jal	186cc <fp_mont_sqr>
   13a66:	10ac                	addi	a1,sp,104
   13a68:	347d                	addiw	s0,s0,-1
   13a6a:	852e                	mv	a0,a1
   13a6c:	461040ef          	jal	186cc <fp_mont_sqr>
   13a70:	f87d                	bnez	s0,13a66 <fp_mont_inv+0x78>
   13a72:	10ac                	addi	a1,sp,104
   13a74:	00b0                	addi	a2,sp,72
   13a76:	852e                	mv	a0,a1
   13a78:	443d                	li	s0,15
   13a7a:	706040ef          	jal	18180 <fp_mont_mul>
   13a7e:	10ac                	addi	a1,sp,104
   13a80:	0128                	addi	a0,sp,136
   13a82:	44b040ef          	jal	186cc <fp_mont_sqr>
   13a86:	012c                	addi	a1,sp,136
   13a88:	347d                	addiw	s0,s0,-1
   13a8a:	852e                	mv	a0,a1
   13a8c:	441040ef          	jal	186cc <fp_mont_sqr>
   13a90:	f87d                	bnez	s0,13a86 <fp_mont_inv+0x98>
   13a92:	012c                	addi	a1,sp,136
   13a94:	10b0                	addi	a2,sp,104
   13a96:	852e                	mv	a0,a1
   13a98:	4415                	li	s0,5
   13a9a:	6e6040ef          	jal	18180 <fp_mont_mul>
   13a9e:	102c                	addi	a1,sp,40
   13aa0:	1128                	addi	a0,sp,168
   13aa2:	42b040ef          	jal	186cc <fp_mont_sqr>
   13aa6:	112c                	addi	a1,sp,168
   13aa8:	852e                	mv	a0,a1
   13aaa:	423040ef          	jal	186cc <fp_mont_sqr>
   13aae:	112c                	addi	a1,sp,168
   13ab0:	0030                	addi	a2,sp,8
   13ab2:	852e                	mv	a0,a1
   13ab4:	6cc040ef          	jal	18180 <fp_mont_mul>
   13ab8:	00ac                	addi	a1,sp,72
   13aba:	01a8                	addi	a0,sp,200
   13abc:	411040ef          	jal	186cc <fp_mont_sqr>
   13ac0:	01ac                	addi	a1,sp,200
   13ac2:	347d                	addiw	s0,s0,-1
   13ac4:	852e                	mv	a0,a1
   13ac6:	407040ef          	jal	186cc <fp_mont_sqr>
   13aca:	f87d                	bnez	s0,13ac0 <fp_mont_inv+0xd2>
   13acc:	01ac                	addi	a1,sp,200
   13ace:	1130                	addi	a2,sp,168
   13ad0:	852e                	mv	a0,a1
   13ad2:	4435                	li	s0,13
   13ad4:	6ac040ef          	jal	18180 <fp_mont_mul>
   13ad8:	10ac                	addi	a1,sp,104
   13ada:	11a8                	addi	a0,sp,232
   13adc:	3f1040ef          	jal	186cc <fp_mont_sqr>
   13ae0:	11ac                	addi	a1,sp,232
   13ae2:	347d                	addiw	s0,s0,-1
   13ae4:	852e                	mv	a0,a1
   13ae6:	3e7040ef          	jal	186cc <fp_mont_sqr>
   13aea:	f87d                	bnez	s0,13ae0 <fp_mont_inv+0xf2>
   13aec:	11ac                	addi	a1,sp,232
   13aee:	01b0                	addi	a2,sp,200
   13af0:	852e                	mv	a0,a1
   13af2:	447d                	li	s0,31
   13af4:	68c040ef          	jal	18180 <fp_mont_mul>
   13af8:	11ac                	addi	a1,sp,232
   13afa:	0228                	addi	a0,sp,264
   13afc:	3d1040ef          	jal	186cc <fp_mont_sqr>
   13b00:	022c                	addi	a1,sp,264
   13b02:	8626                	mv	a2,s1
   13b04:	852e                	mv	a0,a1
   13b06:	67a040ef          	jal	18180 <fp_mont_mul>
   13b0a:	012c                	addi	a1,sp,136
   13b0c:	1228                	addi	a0,sp,296
   13b0e:	3bf040ef          	jal	186cc <fp_mont_sqr>
   13b12:	122c                	addi	a1,sp,296
   13b14:	347d                	addiw	s0,s0,-1
   13b16:	852e                	mv	a0,a1
   13b18:	3b5040ef          	jal	186cc <fp_mont_sqr>
   13b1c:	f87d                	bnez	s0,13b12 <fp_mont_inv+0x124>
   13b1e:	122c                	addi	a1,sp,296
   13b20:	0130                	addi	a2,sp,136
   13b22:	852e                	mv	a0,a1
   13b24:	02000413          	li	s0,32
   13b28:	658040ef          	jal	18180 <fp_mont_mul>
   13b2c:	022c                	addi	a1,sp,264
   13b2e:	12a8                	addi	a0,sp,360
   13b30:	39d040ef          	jal	186cc <fp_mont_sqr>
   13b34:	12ac                	addi	a1,sp,360
   13b36:	347d                	addiw	s0,s0,-1
   13b38:	852e                	mv	a0,a1
   13b3a:	393040ef          	jal	186cc <fp_mont_sqr>
   13b3e:	f87d                	bnez	s0,13b34 <fp_mont_inv+0x146>
   13b40:	12b0                	addi	a2,sp,360
   13b42:	012c                	addi	a1,sp,136
   13b44:	02a8                	addi	a0,sp,328
   13b46:	03f00413          	li	s0,63
   13b4a:	636040ef          	jal	18180 <fp_mont_mul>
   13b4e:	02ac                	addi	a1,sp,328
   13b50:	852e                	mv	a0,a1
   13b52:	37b040ef          	jal	186cc <fp_mont_sqr>
   13b56:	02ac                	addi	a1,sp,328
   13b58:	347d                	addiw	s0,s0,-1
   13b5a:	852e                	mv	a0,a1
   13b5c:	371040ef          	jal	186cc <fp_mont_sqr>
   13b60:	f87d                	bnez	s0,13b56 <fp_mont_inv+0x168>
   13b62:	02ac                	addi	a1,sp,328
   13b64:	1230                	addi	a2,sp,296
   13b66:	852e                	mv	a0,a1
   13b68:	447d                	li	s0,31
   13b6a:	616040ef          	jal	18180 <fp_mont_mul>
   13b6e:	02ac                	addi	a1,sp,328
   13b70:	852e                	mv	a0,a1
   13b72:	35b040ef          	jal	186cc <fp_mont_sqr>
   13b76:	02ac                	addi	a1,sp,328
   13b78:	347d                	addiw	s0,s0,-1
   13b7a:	852e                	mv	a0,a1
   13b7c:	351040ef          	jal	186cc <fp_mont_sqr>
   13b80:	f87d                	bnez	s0,13b76 <fp_mont_inv+0x188>
   13b82:	02ac                	addi	a1,sp,328
   13b84:	0130                	addi	a2,sp,136
   13b86:	852e                	mv	a0,a1
   13b88:	447d                	li	s0,31
   13b8a:	5f6040ef          	jal	18180 <fp_mont_mul>
   13b8e:	02ac                	addi	a1,sp,328
   13b90:	852e                	mv	a0,a1
   13b92:	33b040ef          	jal	186cc <fp_mont_sqr>
   13b96:	02ac                	addi	a1,sp,328
   13b98:	347d                	addiw	s0,s0,-1
   13b9a:	852e                	mv	a0,a1
   13b9c:	331040ef          	jal	186cc <fp_mont_sqr>
   13ba0:	f87d                	bnez	s0,13b96 <fp_mont_inv+0x1a8>
   13ba2:	02ac                	addi	a1,sp,328
   13ba4:	447d                	li	s0,31
   13ba6:	852e                	mv	a0,a1
   13ba8:	325040ef          	jal	186cc <fp_mont_sqr>
   13bac:	02ac                	addi	a1,sp,328
   13bae:	347d                	addiw	s0,s0,-1
   13bb0:	852e                	mv	a0,a1
   13bb2:	31b040ef          	jal	186cc <fp_mont_sqr>
   13bb6:	f87d                	bnez	s0,13bac <fp_mont_inv+0x1be>
   13bb8:	02ac                	addi	a1,sp,328
   13bba:	0130                	addi	a2,sp,136
   13bbc:	852e                	mv	a0,a1
   13bbe:	4475                	li	s0,29
   13bc0:	5c0040ef          	jal	18180 <fp_mont_mul>
   13bc4:	02ac                	addi	a1,sp,328
   13bc6:	852e                	mv	a0,a1
   13bc8:	305040ef          	jal	186cc <fp_mont_sqr>
   13bcc:	02ac                	addi	a1,sp,328
   13bce:	347d                	addiw	s0,s0,-1
   13bd0:	852e                	mv	a0,a1
   13bd2:	2fb040ef          	jal	186cc <fp_mont_sqr>
   13bd6:	f87d                	bnez	s0,13bcc <fp_mont_inv+0x1de>
   13bd8:	02ac                	addi	a1,sp,328
   13bda:	11b0                	addi	a2,sp,232
   13bdc:	852e                	mv	a0,a1
   13bde:	5a2040ef          	jal	18180 <fp_mont_mul>
   13be2:	02ac                	addi	a1,sp,328
   13be4:	852e                	mv	a0,a1
   13be6:	2e7040ef          	jal	186cc <fp_mont_sqr>
   13bea:	02ac                	addi	a1,sp,328
   13bec:	852e                	mv	a0,a1
   13bee:	2df040ef          	jal	186cc <fp_mont_sqr>
   13bf2:	8626                	mv	a2,s1
   13bf4:	02ac                	addi	a1,sp,328
   13bf6:	854a                	mv	a0,s2
   13bf8:	588040ef          	jal	18180 <fp_mont_mul>
   13bfc:	673a                	ld	a4,392(sp)
   13bfe:	df09b783          	ld	a5,-528(s3)
   13c02:	8fb9                	xor	a5,a5,a4
   13c04:	4701                	li	a4,0
   13c06:	eb81                	bnez	a5,13c16 <fp_mont_inv+0x228>
   13c08:	70fa                	ld	ra,440(sp)
   13c0a:	745a                	ld	s0,432(sp)
   13c0c:	74ba                	ld	s1,424(sp)
   13c0e:	791a                	ld	s2,416(sp)
   13c10:	69fa                	ld	s3,408(sp)
   13c12:	6139                	addi	sp,sp,448
   13c14:	8082                	ret
   13c16:	fabfc0ef          	jal	10bc0 <__stack_chk_fail@plt>

0000000000013c1a <fn_modulus_n>:
   13c1a:	6569                	lui	a0,0x1a
   13c1c:	fb850513          	addi	a0,a0,-72 # 19fb8 <FN_N>
   13c20:	8082                	ret

0000000000013c22 <fn_zero>:
   13c22:	00053c23          	sd	zero,24(a0)
   13c26:	00053823          	sd	zero,16(a0)
   13c2a:	00053423          	sd	zero,8(a0)
   13c2e:	00053023          	sd	zero,0(a0)
   13c32:	8082                	ret

0000000000013c34 <fn_is_zero>:
   13c34:	611c                	ld	a5,0(a0)
   13c36:	6510                	ld	a2,8(a0)
   13c38:	6914                	ld	a3,16(a0)
   13c3a:	6d18                	ld	a4,24(a0)
   13c3c:	00c7e533          	or	a0,a5,a2
   13c40:	8d55                	or	a0,a0,a3
   13c42:	8d59                	or	a0,a0,a4
   13c44:	00153513          	seqz	a0,a0
   13c48:	8082                	ret

0000000000013c4a <fn_cmp>:
   13c4a:	6d18                	ld	a4,24(a0)
   13c4c:	6d9c                	ld	a5,24(a1)
   13c4e:	02f76763          	bltu	a4,a5,13c7c <fn_cmp+0x32>
   13c52:	02e7e763          	bltu	a5,a4,13c80 <fn_cmp+0x36>
   13c56:	6918                	ld	a4,16(a0)
   13c58:	699c                	ld	a5,16(a1)
   13c5a:	02f76163          	bltu	a4,a5,13c7c <fn_cmp+0x32>
   13c5e:	02e7e163          	bltu	a5,a4,13c80 <fn_cmp+0x36>
   13c62:	6518                	ld	a4,8(a0)
   13c64:	659c                	ld	a5,8(a1)
   13c66:	00f76b63          	bltu	a4,a5,13c7c <fn_cmp+0x32>
   13c6a:	00e7eb63          	bltu	a5,a4,13c80 <fn_cmp+0x36>
   13c6e:	6108                	ld	a0,0(a0)
   13c70:	619c                	ld	a5,0(a1)
   13c72:	00f56563          	bltu	a0,a5,13c7c <fn_cmp+0x32>
   13c76:	00a7b533          	sltu	a0,a5,a0
   13c7a:	8082                	ret
   13c7c:	557d                	li	a0,-1
   13c7e:	8082                	ret
   13c80:	4505                	li	a0,1
   13c82:	8082                	ret

0000000000013c84 <fn_from_be>:
   13c84:	1101                	addi	sp,sp,-32
   13c86:	0014f7b7          	lui	a5,0x14f
   13c8a:	ec22                	sd	s0,24(sp)
   13c8c:	efd78793          	addi	a5,a5,-259 # 14eefd <__BSS_END__+0x1157e5>
   13c90:	e826                	sd	s1,16(sp)
   13c92:	07be                	slli	a5,a5,0xf
   13c94:	e44a                	sd	s2,8(sp)
   13c96:	12778793          	addi	a5,a5,295
   13c9a:	0005c703          	lbu	a4,0(a1)
   13c9e:	c6fe1f37          	lui	t5,0xc6fe1
   13ca2:	0015c683          	lbu	a3,1(a1)
   13ca6:	0f12                	slli	t5,t5,0x4
   13ca8:	0025c303          	lbu	t1,2(a1)
   13cac:	07b6                	slli	a5,a5,0xd
   13cae:	0722                	slli	a4,a4,0x8
   13cb0:	0035c883          	lbu	a7,3(a1)
   13cb4:	8f55                	or	a4,a4,a3
   13cb6:	0045c603          	lbu	a2,4(a1)
   13cba:	0722                	slli	a4,a4,0x8
   13cbc:	0055c683          	lbu	a3,5(a1)
   13cc0:	00e36333          	or	t1,t1,a4
   13cc4:	0065c703          	lbu	a4,6(a1)
   13cc8:	0322                	slli	t1,t1,0x8
   13cca:	0075c803          	lbu	a6,7(a1)
   13cce:	0068e8b3          	or	a7,a7,t1
   13cd2:	4a7f0f13          	addi	t5,t5,1191 # ffffffffc6fe14a7 <__BSS_END__+0xffffffffc6fa7d8f>
   13cd6:	08a2                	slli	a7,a7,0x8
   13cd8:	75578793          	addi	a5,a5,1877
   13cdc:	01166633          	or	a2,a2,a7
   13ce0:	3901f8b7          	lui	a7,0x3901f
   13ce4:	0622                	slli	a2,a2,0x8
   13ce6:	0892                	slli	a7,a7,0x4
   13ce8:	8ed1                	or	a3,a3,a2
   13cea:	b5988893          	addi	a7,a7,-1191 # 3901eb59 <__BSS_END__+0x38fe5441>
   13cee:	06a2                	slli	a3,a3,0x8
   13cf0:	08b2                	slli	a7,a7,0xc
   13cf2:	8f55                	or	a4,a4,a3
   13cf4:	0e388893          	addi	a7,a7,227
   13cf8:	0722                	slli	a4,a4,0x8
   13cfa:	08c6                	slli	a7,a7,0x11
   13cfc:	00e86833          	or	a6,a6,a4
   13d00:	52a88893          	addi	a7,a7,1322
   13d04:	01053c23          	sd	a6,24(a0)
   13d08:	0f32                	slli	t5,t5,0xc
   13d0a:	0085c703          	lbu	a4,8(a1)
   13d0e:	07ba                	slli	a5,a5,0xe
   13d10:	0095c683          	lbu	a3,9(a1)
   13d14:	f1df0f13          	addi	t5,t5,-227
   13d18:	00a5ce83          	lbu	t4,10(a1)
   13d1c:	12278793          	addi	a5,a5,290
   13d20:	0722                	slli	a4,a4,0x8
   13d22:	00b5ce03          	lbu	t3,11(a1)
   13d26:	8f55                	or	a4,a4,a3
   13d28:	00c5c603          	lbu	a2,12(a1)
   13d2c:	0722                	slli	a4,a4,0x8
   13d2e:	00d5c683          	lbu	a3,13(a1)
   13d32:	00eeeeb3          	or	t4,t4,a4
   13d36:	00e5c703          	lbu	a4,14(a1)
   13d3a:	0ea2                	slli	t4,t4,0x8
   13d3c:	00f5c303          	lbu	t1,15(a1)
   13d40:	01de6e33          	or	t3,t3,t4
   13d44:	0f46                	slli	t5,t5,0x11
   13d46:	0e22                	slli	t3,t3,0x8
   13d48:	ad5f0f13          	addi	t5,t5,-1323
   13d4c:	01c66633          	or	a2,a2,t3
   13d50:	ffeb1eb7          	lui	t4,0xffeb1
   13d54:	0622                	slli	a2,a2,0x8
   13d56:	103e8e93          	addi	t4,t4,259 # ffffffffffeb1103 <__BSS_END__+0xffffffffffe779eb>
   13d5a:	8ed1                	or	a3,a3,a2
   13d5c:	0ebe                	slli	t4,t4,0xf
   13d5e:	06a2                	slli	a3,a3,0x8
   13d60:	2a001393          	bseti	t2,zero,0x20
   13d64:	8f55                	or	a4,a4,a3
   13d66:	0385                	addi	t2,t2,1
   13d68:	0722                	slli	a4,a4,0x8
   13d6a:	93c2                	add	t2,t2,a6
   13d6c:	00e36333          	or	t1,t1,a4
   13d70:	ed9e8e93          	addi	t4,t4,-295
   13d74:	00653823          	sd	t1,16(a0)
   13d78:	00130293          	addi	t0,t1,1
   13d7c:	0105c703          	lbu	a4,16(a1)
   13d80:	00503fb3          	snez	t6,t0
   13d84:	0115c683          	lbu	a3,17(a1)
   13d88:	0eb6                	slli	t4,t4,0xd
   13d8a:	0125c603          	lbu	a2,18(a1)
   13d8e:	8abe8e93          	addi	t4,t4,-1877
   13d92:	0722                	slli	a4,a4,0x8
   13d94:	0135c903          	lbu	s2,19(a1)
   13d98:	8f55                	or	a4,a4,a3
   13d9a:	0145c483          	lbu	s1,20(a1)
   13d9e:	0722                	slli	a4,a4,0x8
   13da0:	0155c403          	lbu	s0,21(a1)
   13da4:	8f51                	or	a4,a4,a2
   13da6:	0165c683          	lbu	a3,22(a1)
   13daa:	0722                	slli	a4,a4,0x8
   13dac:	0175c603          	lbu	a2,23(a1)
   13db0:	00e96733          	or	a4,s2,a4
   13db4:	0eba                	slli	t4,t4,0xe
   13db6:	0722                	slli	a4,a4,0x8
   13db8:	edde8e93          	addi	t4,t4,-291
   13dbc:	8cd9                	or	s1,s1,a4
   13dbe:	2a001713          	bseti	a4,zero,0x20
   13dc2:	04a2                	slli	s1,s1,0x8
   13dc4:	fff74713          	not	a4,a4
   13dc8:	8c45                	or	s0,s0,s1
   13dca:	00e83733          	sltu	a4,a6,a4
   13dce:	0422                	slli	s0,s0,0x8
   13dd0:	8ec1                	or	a3,a3,s0
   13dd2:	06a2                	slli	a3,a3,0x8
   13dd4:	00d66e33          	or	t3,a2,a3
   13dd8:	01c53423          	sd	t3,8(a0)
   13ddc:	01c8b6b3          	sltu	a3,a7,t3
   13de0:	0185c603          	lbu	a2,24(a1)
   13de4:	0016b893          	seqz	a7,a3
   13de8:	0195c403          	lbu	s0,25(a1)
   13dec:	9f72                	add	t5,t5,t3
   13dee:	01a5c683          	lbu	a3,26(a1)
   13df2:	0622                	slli	a2,a2,0x8
   13df4:	01b5c903          	lbu	s2,27(a1)
   13df8:	8e41                	or	a2,a2,s0
   13dfa:	01c5c483          	lbu	s1,28(a1)
   13dfe:	0622                	slli	a2,a2,0x8
   13e00:	01d5c403          	lbu	s0,29(a1)
   13e04:	8e55                	or	a2,a2,a3
   13e06:	01e5c683          	lbu	a3,30(a1)
   13e0a:	0622                	slli	a2,a2,0x8
   13e0c:	01f5c583          	lbu	a1,31(a1)
   13e10:	00c96633          	or	a2,s2,a2
   13e14:	6922                	ld	s2,8(sp)
   13e16:	0622                	slli	a2,a2,0x8
   13e18:	8e45                	or	a2,a2,s1
   13e1a:	64c2                	ld	s1,16(sp)
   13e1c:	0622                	slli	a2,a2,0x8
   13e1e:	8e41                	or	a2,a2,s0
   13e20:	0622                	slli	a2,a2,0x8
   13e22:	8ed1                	or	a3,a3,a2
   13e24:	06a2                	slli	a3,a3,0x8
   13e26:	00d5e433          	or	s0,a1,a3
   13e2a:	0087b7b3          	sltu	a5,a5,s0
   13e2e:	9ea2                	add	t4,t4,s0
   13e30:	0017c793          	xori	a5,a5,1
   13e34:	00ff36b3          	sltu	a3,t5,a5
   13e38:	40ff0633          	sub	a2,t5,a5
   13e3c:	00d8e8b3          	or	a7,a7,a3
   13e40:	0ff8f893          	zext.b	a7,a7
   13e44:	0112b6b3          	sltu	a3,t0,a7
   13e48:	411287b3          	sub	a5,t0,a7
   13e4c:	00dfe5b3          	or	a1,t6,a3
   13e50:	0ff5f593          	zext.b	a1,a1
   13e54:	00b3b8b3          	sltu	a7,t2,a1
   13e58:	40b386b3          	sub	a3,t2,a1
   13e5c:	01176733          	or	a4,a4,a7
   13e60:	00174713          	xori	a4,a4,1
   13e64:	0ff77713          	zext.b	a4,a4
   13e68:	40e008b3          	neg	a7,a4
   13e6c:	177d                	addi	a4,a4,-1
   13e6e:	8c79                	and	s0,s0,a4
   13e70:	011efeb3          	and	t4,t4,a7
   13e74:	011675b3          	and	a1,a2,a7
   13e78:	00677333          	and	t1,a4,t1
   13e7c:	01c77633          	and	a2,a4,t3
   13e80:	0117f7b3          	and	a5,a5,a7
   13e84:	01077733          	and	a4,a4,a6
   13e88:	0116f6b3          	and	a3,a3,a7
   13e8c:	008ee833          	or	a6,t4,s0
   13e90:	6462                	ld	s0,24(sp)
   13e92:	8e4d                	or	a2,a2,a1
   13e94:	0067e7b3          	or	a5,a5,t1
   13e98:	8f55                	or	a4,a4,a3
   13e9a:	01053023          	sd	a6,0(a0)
   13e9e:	e510                	sd	a2,8(a0)
   13ea0:	e91c                	sd	a5,16(a0)
   13ea2:	ed18                	sd	a4,24(a0)
   13ea4:	6105                	addi	sp,sp,32
   13ea6:	8082                	ret

0000000000013ea8 <fn_to_be>:
   13ea8:	6d9c                	ld	a5,24(a1)
   13eaa:	6b87d793          	rev8	a5,a5
   13eae:	e11c                	sd	a5,0(a0)
   13eb0:	699c                	ld	a5,16(a1)
   13eb2:	6b87d793          	rev8	a5,a5
   13eb6:	e51c                	sd	a5,8(a0)
   13eb8:	659c                	ld	a5,8(a1)
   13eba:	6b87d793          	rev8	a5,a5
   13ebe:	e91c                	sd	a5,16(a0)
   13ec0:	619c                	ld	a5,0(a1)
   13ec2:	6b87d793          	rev8	a5,a5
   13ec6:	ed1c                	sd	a5,24(a0)
   13ec8:	8082                	ret

0000000000013eca <fn_add>:
   13eca:	0005be83          	ld	t4,0(a1)
   13ece:	ffeb1737          	lui	a4,0xffeb1
   13ed2:	00063883          	ld	a7,0(a2)
   13ed6:	10370713          	addi	a4,a4,259 # ffffffffffeb1103 <__BSS_END__+0xffffffffffe779eb>
   13eda:	0085be03          	ld	t3,8(a1)
   13ede:	073e                	slli	a4,a4,0xf
   13ee0:	661c                	ld	a5,8(a2)
   13ee2:	ed970713          	addi	a4,a4,-295
   13ee6:	98f6                	add	a7,a7,t4
   13ee8:	0105bf83          	ld	t6,16(a1)
   13eec:	01d8beb3          	sltu	t4,a7,t4
   13ef0:	01063803          	ld	a6,16(a2)
   13ef4:	97f2                	add	a5,a5,t3
   13ef6:	6d8c                	ld	a1,24(a1)
   13ef8:	9ebe                	add	t4,t4,a5
   13efa:	01c7be33          	sltu	t3,a5,t3
   13efe:	00feb7b3          	sltu	a5,t4,a5
   13f02:	987e                	add	a6,a6,t6
   13f04:	00fe6e33          	or	t3,t3,a5
   13f08:	6e14                	ld	a3,24(a2)
   13f0a:	0ffe7e13          	zext.b	t3,t3
   13f0e:	01f83fb3          	sltu	t6,a6,t6
   13f12:	9e42                	add	t3,t3,a6
   13f14:	c6fe17b7          	lui	a5,0xc6fe1
   13f18:	010e3833          	sltu	a6,t3,a6
   13f1c:	96ae                	add	a3,a3,a1
   13f1e:	010fefb3          	or	t6,t6,a6
   13f22:	0792                	slli	a5,a5,0x4
   13f24:	0fffff93          	zext.b	t6,t6
   13f28:	00b6b5b3          	sltu	a1,a3,a1
   13f2c:	9fb6                	add	t6,t6,a3
   13f2e:	0736                	slli	a4,a4,0xd
   13f30:	00dfb6b3          	sltu	a3,t6,a3
   13f34:	4a778793          	addi	a5,a5,1191 # ffffffffc6fe14a7 <__BSS_END__+0xffffffffc6fa7d8f>
   13f38:	8dd5                	or	a1,a1,a3
   13f3a:	8ab70713          	addi	a4,a4,-1877
   13f3e:	07b2                	slli	a5,a5,0xc
   13f40:	0014f637          	lui	a2,0x14f
   13f44:	efd60613          	addi	a2,a2,-259 # 14eefd <__BSS_END__+0x1157e5>
   13f48:	0ff5f593          	zext.b	a1,a1
   13f4c:	073a                	slli	a4,a4,0xe
   13f4e:	f1d78793          	addi	a5,a5,-227
   13f52:	063e                	slli	a2,a2,0xf
   13f54:	40b005b3          	neg	a1,a1
   13f58:	edd70713          	addi	a4,a4,-291
   13f5c:	07c6                	slli	a5,a5,0x11
   13f5e:	12760613          	addi	a2,a2,295
   13f62:	c6fe1837          	lui	a6,0xc6fe1
   13f66:	3901f6b7          	lui	a3,0x3901f
   13f6a:	0812                	slli	a6,a6,0x4
   13f6c:	0692                	slli	a3,a3,0x4
   13f6e:	00e5f333          	and	t1,a1,a4
   13f72:	ad478793          	addi	a5,a5,-1324
   13f76:	0636                	slli	a2,a2,0xd
   13f78:	4a780813          	addi	a6,a6,1191 # ffffffffc6fe14a7 <__BSS_END__+0xffffffffc6fa7d8f>
   13f7c:	b5968693          	addi	a3,a3,-1191 # 3901eb59 <__BSS_END__+0x38fe5441>
   13f80:	989a                	add	a7,a7,t1
   13f82:	8fed                	and	a5,a5,a1
   13f84:	75560613          	addi	a2,a2,1877
   13f88:	0832                	slli	a6,a6,0xc
   13f8a:	06b2                	slli	a3,a3,0xc
   13f8c:	9ebe                	add	t4,t4,a5
   13f8e:	0068b333          	sltu	t1,a7,t1
   13f92:	063a                	slli	a2,a2,0xe
   13f94:	f1d80813          	addi	a6,a6,-227
   13f98:	0e368693          	addi	a3,a3,227
   13f9c:	9376                	add	t1,t1,t4
   13f9e:	12260613          	addi	a2,a2,290
   13fa2:	0846                	slli	a6,a6,0x11
   13fa4:	06c6                	slli	a3,a3,0x11
   13fa6:	01163633          	sltu	a2,a2,a7
   13faa:	00feb7b3          	sltu	a5,t4,a5
   13fae:	ad580813          	addi	a6,a6,-1323
   13fb2:	01d33eb3          	sltu	t4,t1,t4
   13fb6:	52a68693          	addi	a3,a3,1322
   13fba:	00164f13          	xori	t5,a2,1
   13fbe:	981a                	add	a6,a6,t1
   13fc0:	01d7e7b3          	or	a5,a5,t4
   13fc4:	0066b6b3          	sltu	a3,a3,t1
   13fc8:	01e83633          	sltu	a2,a6,t5
   13fcc:	0ff7f793          	zext.b	a5,a5
   13fd0:	0016b693          	seqz	a3,a3
   13fd4:	9e3e                	add	t3,t3,a5
   13fd6:	8ed1                	or	a3,a3,a2
   13fd8:	001e0e93          	addi	t4,t3,1
   13fdc:	0ff6f693          	zext.b	a3,a3
   13fe0:	2a001613          	bseti	a2,zero,0x20
   13fe4:	8df1                	and	a1,a1,a2
   13fe6:	95fe                	add	a1,a1,t6
   13fe8:	00deb633          	sltu	a2,t4,a3
   13fec:	00fe37b3          	sltu	a5,t3,a5
   13ff0:	01d03fb3          	snez	t6,t4
   13ff4:	97ae                	add	a5,a5,a1
   13ff6:	00cfefb3          	or	t6,t6,a2
   13ffa:	2a001593          	bseti	a1,zero,0x20
   13ffe:	0585                	addi	a1,a1,1
   14000:	95be                	add	a1,a1,a5
   14002:	0fffff93          	zext.b	t6,t6
   14006:	2a001613          	bseti	a2,zero,0x20
   1400a:	fff64613          	not	a2,a2
   1400e:	00c7b633          	sltu	a2,a5,a2
   14012:	01f5b2b3          	sltu	t0,a1,t6
   14016:	00566633          	or	a2,a2,t0
   1401a:	9746                	add	a4,a4,a7
   1401c:	00164613          	xori	a2,a2,1
   14020:	41e80833          	sub	a6,a6,t5
   14024:	0ff67613          	zext.b	a2,a2
   14028:	40de8eb3          	sub	t4,t4,a3
   1402c:	40c00f33          	neg	t5,a2
   14030:	fff60693          	addi	a3,a2,-1
   14034:	41f585b3          	sub	a1,a1,t6
   14038:	01e77733          	and	a4,a4,t5
   1403c:	00d8f8b3          	and	a7,a7,a3
   14040:	01e87833          	and	a6,a6,t5
   14044:	00d37333          	and	t1,t1,a3
   14048:	01eefeb3          	and	t4,t4,t5
   1404c:	00de7e33          	and	t3,t3,a3
   14050:	01e5f5b3          	and	a1,a1,t5
   14054:	8ff5                	and	a5,a5,a3
   14056:	01176733          	or	a4,a4,a7
   1405a:	00686833          	or	a6,a6,t1
   1405e:	01ceeeb3          	or	t4,t4,t3
   14062:	8ddd                	or	a1,a1,a5
   14064:	e118                	sd	a4,0(a0)
   14066:	01053423          	sd	a6,8(a0)
   1406a:	01d53823          	sd	t4,16(a0)
   1406e:	ed0c                	sd	a1,24(a0)
   14070:	8082                	ret

0000000000014072 <fn_sub>:
   14072:	6614                	ld	a3,8(a2)
   14074:	0014f737          	lui	a4,0x14f
   14078:	0005b303          	ld	t1,0(a1)
   1407c:	efd70713          	addi	a4,a4,-259 # 14eefd <__BSS_END__+0x1157e5>
   14080:	00063283          	ld	t0,0(a2)
   14084:	073e                	slli	a4,a4,0xf
   14086:	0085b883          	ld	a7,8(a1)
   1408a:	12770713          	addi	a4,a4,295
   1408e:	01063f03          	ld	t5,16(a2)
   14092:	3901f7b7          	lui	a5,0x3901f
   14096:	0105be03          	ld	t3,16(a1)
   1409a:	00533fb3          	sltu	t6,t1,t0
   1409e:	40d88833          	sub	a6,a7,a3
   140a2:	00d8b8b3          	sltu	a7,a7,a3
   140a6:	01f83eb3          	sltu	t4,a6,t6
   140aa:	6d94                	ld	a3,24(a1)
   140ac:	01d8e8b3          	or	a7,a7,t4
   140b0:	6e10                	ld	a2,24(a2)
   140b2:	41ee0eb3          	sub	t4,t3,t5
   140b6:	0ff8f893          	zext.b	a7,a7
   140ba:	01ee35b3          	sltu	a1,t3,t5
   140be:	011ebe33          	sltu	t3,t4,a7
   140c2:	01c5e5b3          	or	a1,a1,t3
   140c6:	40c68f33          	sub	t5,a3,a2
   140ca:	0ff5f593          	zext.b	a1,a1
   140ce:	0792                	slli	a5,a5,0x4
   140d0:	00c6b6b3          	sltu	a3,a3,a2
   140d4:	0736                	slli	a4,a4,0xd
   140d6:	00bf3633          	sltu	a2,t5,a1
   140da:	b5978793          	addi	a5,a5,-1191 # 3901eb59 <__BSS_END__+0x38fe5441>
   140de:	8ed1                	or	a3,a3,a2
   140e0:	75570713          	addi	a4,a4,1877
   140e4:	07b2                	slli	a5,a5,0xc
   140e6:	0ff6f693          	zext.b	a3,a3
   140ea:	073a                	slli	a4,a4,0xe
   140ec:	0e378793          	addi	a5,a5,227
   140f0:	40d00e33          	neg	t3,a3
   140f4:	12370713          	addi	a4,a4,291
   140f8:	07c6                	slli	a5,a5,0x11
   140fa:	00ee7733          	and	a4,t3,a4
   140fe:	40530333          	sub	t1,t1,t0
   14102:	52b78793          	addi	a5,a5,1323
   14106:	933a                	add	t1,t1,a4
   14108:	00fe77b3          	and	a5,t3,a5
   1410c:	41f80633          	sub	a2,a6,t6
   14110:	00e33733          	sltu	a4,t1,a4
   14114:	963e                	add	a2,a2,a5
   14116:	411e8833          	sub	a6,t4,a7
   1411a:	9732                	add	a4,a4,a2
   1411c:	00f637b3          	sltu	a5,a2,a5
   14120:	00c73633          	sltu	a2,a4,a2
   14124:	40d806b3          	sub	a3,a6,a3
   14128:	8fd1                	or	a5,a5,a2
   1412a:	0106b833          	sltu	a6,a3,a6
   1412e:	0ff7f793          	zext.b	a5,a5
   14132:	fffe7613          	andi	a2,t3,-1
   14136:	96be                	add	a3,a3,a5
   14138:	40bf0f33          	sub	t5,t5,a1
   1413c:	4a061613          	bclri	a2,a2,0x20
   14140:	00f6b7b3          	sltu	a5,a3,a5
   14144:	967a                	add	a2,a2,t5
   14146:	0107e7b3          	or	a5,a5,a6
   1414a:	97b2                	add	a5,a5,a2
   1414c:	00653023          	sd	t1,0(a0)
   14150:	e518                	sd	a4,8(a0)
   14152:	e914                	sd	a3,16(a0)
   14154:	ed1c                	sd	a5,24(a0)
   14156:	8082                	ret

0000000000014158 <fn_mul_4x4_u512_ct>:
   14158:	1101                	addi	sp,sp,-32
   1415a:	2a001713          	bseti	a4,zero,0x20
   1415e:	ec22                	sd	s0,24(sp)
   14160:	86aa                	mv	a3,a0
   14162:	e826                	sd	s1,16(sp)
   14164:	177d                	addi	a4,a4,-1
   14166:	e44a                	sd	s2,8(sp)
   14168:	4815                	li	a6,5
   1416a:	e04e                	sd	s3,0(sp)
   1416c:	48a1                	li	a7,8
   1416e:	00053023          	sd	zero,0(a0)
   14172:	4319                	li	t1,6
   14174:	00053423          	sd	zero,8(a0)
   14178:	00053823          	sd	zero,16(a0)
   1417c:	00053c23          	sd	zero,24(a0)
   14180:	02053023          	sd	zero,32(a0)
   14184:	02053423          	sd	zero,40(a0)
   14188:	02053823          	sd	zero,48(a0)
   1418c:	02053c23          	sd	zero,56(a0)
   14190:	0005be83          	ld	t4,0(a1)
   14194:	00063f03          	ld	t5,0(a2)
   14198:	0006b903          	ld	s2,0(a3)
   1419c:	00eef7b3          	and	a5,t4,a4
   141a0:	020ede93          	srli	t4,t4,0x20
   141a4:	00ef74b3          	and	s1,t5,a4
   141a8:	020f5f13          	srli	t5,t5,0x20
   141ac:	02978e33          	mul	t3,a5,s1
   141b0:	0086bf83          	ld	t6,8(a3)
   141b4:	03e787b3          	mul	a5,a5,t5
   141b8:	0106b383          	ld	t2,16(a3)
   141bc:	029e84b3          	mul	s1,t4,s1
   141c0:	7288                	ld	a0,32(a3)
   141c2:	03ee8433          	mul	s0,t4,t5
   141c6:	0186be83          	ld	t4,24(a3)
   141ca:	020e5f13          	srli	t5,t3,0x20
   141ce:	00ee72b3          	and	t0,t3,a4
   141d2:	00e7f9b3          	and	s3,a5,a4
   141d6:	0207de13          	srli	t3,a5,0x20
   141da:	013f07b3          	add	a5,t5,s3
   141de:	00e4ff33          	and	t5,s1,a4
   141e2:	97fa                	add	a5,a5,t5
   141e4:	9081                	srli	s1,s1,0x20
   141e6:	02079f13          	slli	t5,a5,0x20
   141ea:	9e26                	add	t3,t3,s1
   141ec:	01e2ef33          	or	t5,t0,t5
   141f0:	9e22                	add	t3,t3,s0
   141f2:	997a                	add	s2,s2,t5
   141f4:	9381                	srli	a5,a5,0x20
   141f6:	0126b023          	sd	s2,0(a3)
   141fa:	01e93933          	sltu	s2,s2,t5
   141fe:	6184                	ld	s1,0(a1)
   14200:	9e3e                	add	t3,t3,a5
   14202:	00863f03          	ld	t5,8(a2)
   14206:	00e4f7b3          	and	a5,s1,a4
   1420a:	9081                	srli	s1,s1,0x20
   1420c:	00ef72b3          	and	t0,t5,a4
   14210:	020f5f13          	srli	t5,t5,0x20
   14214:	02578433          	mul	s0,a5,t0
   14218:	03e787b3          	mul	a5,a5,t5
   1421c:	025482b3          	mul	t0,s1,t0
   14220:	03e484b3          	mul	s1,s1,t5
   14224:	02045f13          	srli	t5,s0,0x20
   14228:	8c79                	and	s0,s0,a4
   1422a:	00e7f9b3          	and	s3,a5,a4
   1422e:	9381                	srli	a5,a5,0x20
   14230:	9f4e                	add	t5,t5,s3
   14232:	00e2f9b3          	and	s3,t0,a4
   14236:	9f4e                	add	t5,t5,s3
   14238:	0202d293          	srli	t0,t0,0x20
   1423c:	020f1993          	slli	s3,t5,0x20
   14240:	9796                	add	a5,a5,t0
   14242:	01346433          	or	s0,s0,s3
   14246:	97a6                	add	a5,a5,s1
   14248:	9fa2                	add	t6,t6,s0
   1424a:	020f5f13          	srli	t5,t5,0x20
   1424e:	9e7e                	add	t3,t3,t6
   14250:	9f3e                	add	t5,t5,a5
   14252:	9e4a                	add	t3,t3,s2
   14254:	008fb433          	sltu	s0,t6,s0
   14258:	01c6b423          	sd	t3,8(a3)
   1425c:	01fe34b3          	sltu	s1,t3,t6
   14260:	0005b903          	ld	s2,0(a1)
   14264:	01063e03          	ld	t3,16(a2)
   14268:	00e977b3          	and	a5,s2,a4
   1426c:	02095913          	srli	s2,s2,0x20
   14270:	00ee7fb3          	and	t6,t3,a4
   14274:	020e5e13          	srli	t3,t3,0x20
   14278:	03f782b3          	mul	t0,a5,t6
   1427c:	03c787b3          	mul	a5,a5,t3
   14280:	03f90fb3          	mul	t6,s2,t6
   14284:	03c90933          	mul	s2,s2,t3
   14288:	0202de13          	srli	t3,t0,0x20
   1428c:	00e2f2b3          	and	t0,t0,a4
   14290:	00e7f9b3          	and	s3,a5,a4
   14294:	9381                	srli	a5,a5,0x20
   14296:	9e4e                	add	t3,t3,s3
   14298:	00eff9b3          	and	s3,t6,a4
   1429c:	9e4e                	add	t3,t3,s3
   1429e:	020fdf93          	srli	t6,t6,0x20
   142a2:	020e1993          	slli	s3,t3,0x20
   142a6:	97fe                	add	a5,a5,t6
   142a8:	0132e2b3          	or	t0,t0,s3
   142ac:	97ca                	add	a5,a5,s2
   142ae:	9396                	add	t2,t2,t0
   142b0:	020e5f93          	srli	t6,t3,0x20
   142b4:	01e38e33          	add	t3,t2,t5
   142b8:	9fbe                	add	t6,t6,a5
   142ba:	008e07b3          	add	a5,t3,s0
   142be:	0053b2b3          	sltu	t0,t2,t0
   142c2:	97a6                	add	a5,a5,s1
   142c4:	ea9c                	sd	a5,16(a3)
   142c6:	0077b3b3          	sltu	t2,a5,t2
   142ca:	0005bf03          	ld	t5,0(a1)
   142ce:	6e00                	ld	s0,24(a2)
   142d0:	00ef77b3          	and	a5,t5,a4
   142d4:	020f5f13          	srli	t5,t5,0x20
   142d8:	00e474b3          	and	s1,s0,a4
   142dc:	9001                	srli	s0,s0,0x20
   142de:	02978e33          	mul	t3,a5,s1
   142e2:	028787b3          	mul	a5,a5,s0
   142e6:	029f04b3          	mul	s1,t5,s1
   142ea:	028f0f33          	mul	t5,t5,s0
   142ee:	020e5413          	srli	s0,t3,0x20
   142f2:	00ee7e33          	and	t3,t3,a4
   142f6:	00e7f933          	and	s2,a5,a4
   142fa:	9381                	srli	a5,a5,0x20
   142fc:	944a                	add	s0,s0,s2
   142fe:	00e4f933          	and	s2,s1,a4
   14302:	944a                	add	s0,s0,s2
   14304:	9f2a                	add	t5,t5,a0
   14306:	02041913          	slli	s2,s0,0x20
   1430a:	97fa                	add	a5,a5,t5
   1430c:	012e6e33          	or	t3,t3,s2
   14310:	9081                	srli	s1,s1,0x20
   14312:	9ef2                	add	t4,t4,t3
   14314:	97a6                	add	a5,a5,s1
   14316:	01df8f33          	add	t5,t6,t4
   1431a:	9001                	srli	s0,s0,0x20
   1431c:	9f16                	add	t5,t5,t0
   1431e:	01cebe33          	sltu	t3,t4,t3
   14322:	9f1e                	add	t5,t5,t2
   14324:	97a2                	add	a5,a5,s0
   14326:	97f2                	add	a5,a5,t3
   14328:	01df3eb3          	sltu	t4,t5,t4
   1432c:	97f6                	add	a5,a5,t4
   1432e:	01e6bc23          	sd	t5,24(a3)
   14332:	f29c                	sd	a5,32(a3)
   14334:	00a7b533          	sltu	a0,a5,a0
   14338:	03180963          	beq	a6,a7,1436a <fn_mul_4x4_u512_ct+0x212>
   1433c:	769c                	ld	a5,40(a3)
   1433e:	00180e1b          	addiw	t3,a6,1
   14342:	953e                	add	a0,a0,a5
   14344:	f688                	sd	a0,40(a3)
   14346:	00f53533          	sltu	a0,a0,a5
   1434a:	031e0663          	beq	t3,a7,14376 <fn_mul_4x4_u512_ct+0x21e>
   1434e:	7a9c                	ld	a5,48(a3)
   14350:	953e                	add	a0,a0,a5
   14352:	fa88                	sd	a0,48(a3)
   14354:	00f53533          	sltu	a0,a0,a5
   14358:	02680363          	beq	a6,t1,1437e <fn_mul_4x4_u512_ct+0x226>
   1435c:	7e9c                	ld	a5,56(a3)
   1435e:	06a1                	addi	a3,a3,8
   14360:	05a1                	addi	a1,a1,8
   14362:	8872                	mv	a6,t3
   14364:	97aa                	add	a5,a5,a0
   14366:	fa9c                	sd	a5,48(a3)
   14368:	b525                	j	14190 <fn_mul_4x4_u512_ct+0x38>
   1436a:	6462                	ld	s0,24(sp)
   1436c:	64c2                	ld	s1,16(sp)
   1436e:	6922                	ld	s2,8(sp)
   14370:	6982                	ld	s3,0(sp)
   14372:	6105                	addi	sp,sp,32
   14374:	8082                	ret
   14376:	05a1                	addi	a1,a1,8
   14378:	06a1                	addi	a3,a3,8
   1437a:	4821                	li	a6,8
   1437c:	bd11                	j	14190 <fn_mul_4x4_u512_ct+0x38>
   1437e:	05a1                	addi	a1,a1,8
   14380:	06a1                	addi	a3,a3,8
   14382:	481d                	li	a6,7
   14384:	b531                	j	14190 <fn_mul_4x4_u512_ct+0x38>

0000000000014386 <fn_mont_reduce_ct>:
   14386:	7119                	addi	sp,sp,-128
   14388:	327fa7b7          	lui	a5,0x327fa
   1438c:	e8878793          	addi	a5,a5,-376 # 327f9e88 <__BSS_END__+0x327c0770>
   14390:	53bbf737          	lui	a4,0x53bbf
   14394:	e03e                	sd	a5,0(sp)
   14396:	40970793          	addi	a5,a4,1033 # 53bbf409 <__BSS_END__+0x53b85cf1>
   1439a:	fc62                	sd	s8,56(sp)
   1439c:	2a001813          	bseti	a6,zero,0x20
   143a0:	f866                	sd	s9,48(sp)
   143a2:	39d54c37          	lui	s8,0x39d54
   143a6:	f46a                	sd	s10,40(sp)
   143a8:	72351cb7          	lui	s9,0x72351
   143ac:	f06e                	sd	s11,32(sp)
   143ae:	21c60d37          	lui	s10,0x21c60
   143b2:	7203edb7          	lui	s11,0x7203e
   143b6:	fca2                	sd	s0,120(sp)
   143b8:	f8a6                	sd	s1,112(sp)
   143ba:	86ae                	mv	a3,a1
   143bc:	f4ca                	sd	s2,104(sp)
   143be:	187d                	addi	a6,a6,-1
   143c0:	f0ce                	sd	s3,96(sp)
   143c2:	975c8c93          	addi	s9,s9,-1675 # 72350975 <__BSS_END__+0x7231725d>
   143c6:	ecd2                	sd	s4,88(sp)
   143c8:	123c0c13          	addi	s8,s8,291 # 39d54123 <__BSS_END__+0x39d1aa0b>
   143cc:	e8d6                	sd	s5,80(sp)
   143ce:	52bd0d13          	addi	s10,s10,1323 # 21c6052b <__BSS_END__+0x21c26e13>
   143d2:	e0de                	sd	s7,64(sp)
   143d4:	f6bd8d93          	addi	s11,s11,-149 # 7203df6b <__BSS_END__+0x72004853>
   143d8:	e43e                	sd	a5,8(sp)
   143da:	e82a                	sd	a0,16(sp)
   143dc:	ec2e                	sd	a1,24(sp)
   143de:	e4da                	sd	s6,72(sp)
   143e0:	4b15                	li	s6,5
   143e2:	0006b383          	ld	t2,0(a3)
   143e6:	001b0a1b          	addiw	s4,s6,1
   143ea:	6582                	ld	a1,0(sp)
   143ec:	68a2                	ld	a7,8(sp)
   143ee:	0103f7b3          	and	a5,t2,a6
   143f2:	0203d713          	srli	a4,t2,0x20
   143f6:	03978633          	mul	a2,a5,s9
   143fa:	02b787b3          	mul	a5,a5,a1
   143fe:	03970733          	mul	a4,a4,s9
   14402:	02065593          	srli	a1,a2,0x20
   14406:	01067633          	and	a2,a2,a6
   1440a:	0107f7b3          	and	a5,a5,a6
   1440e:	97ae                	add	a5,a5,a1
   14410:	01077733          	and	a4,a4,a6
   14414:	97ba                	add	a5,a5,a4
   14416:	1782                	slli	a5,a5,0x20
   14418:	8fd1                	or	a5,a5,a2
   1441a:	0107feb3          	and	t4,a5,a6
   1441e:	9381                	srli	a5,a5,0x20
   14420:	031e8e33          	mul	t3,t4,a7
   14424:	020e9713          	slli	a4,t4,0x20
   14428:	038e8fb3          	mul	t6,t4,s8
   1442c:	41d70733          	sub	a4,a4,t4
   14430:	03ae85b3          	mul	a1,t4,s10
   14434:	02079493          	slli	s1,a5,0x20
   14438:	03be8533          	mul	a0,t4,s11
   1443c:	8c9d                	sub	s1,s1,a5
   1443e:	03878433          	mul	s0,a5,s8
   14442:	010e72b3          	and	t0,t3,a6
   14446:	03a78f33          	mul	t5,a5,s10
   1444a:	020fd613          	srli	a2,t6,0x20
   1444e:	03178bb3          	mul	s7,a5,a7
   14452:	0205d313          	srli	t1,a1,0x20
   14456:	010578b3          	and	a7,a0,a6
   1445a:	9616                	add	a2,a2,t0
   1445c:	01047933          	and	s2,s0,a6
   14460:	9346                	add	t1,t1,a7
   14462:	010f72b3          	and	t0,t5,a6
   14466:	9001                	srli	s0,s0,0x20
   14468:	020e5e13          	srli	t3,t3,0x20
   1446c:	010779b3          	and	s3,a4,a6
   14470:	964a                	add	a2,a2,s2
   14472:	9301                	srli	a4,a4,0x20
   14474:	9316                	add	t1,t1,t0
   14476:	03b78ab3          	mul	s5,a5,s11
   1447a:	01fe9893          	slli	a7,t4,0x1f
   1447e:	9e22                	add	t3,t3,s0
   14480:	9e5e                	add	t3,t3,s7
   14482:	02031413          	slli	s0,t1,0x20
   14486:	0104f933          	and	s2,s1,a6
   1448a:	00e982b3          	add	t0,s3,a4
   1448e:	41d888b3          	sub	a7,a7,t4
   14492:	0105f5b3          	and	a1,a1,a6
   14496:	02061e93          	slli	t4,a2,0x20
   1449a:	9201                	srli	a2,a2,0x20
   1449c:	92ca                	add	t0,t0,s2
   1449e:	8dc1                	or	a1,a1,s0
   144a0:	010fffb3          	and	t6,t6,a6
   144a4:	6680                	ld	s0,8(a3)
   144a6:	020f5f13          	srli	t5,t5,0x20
   144aa:	9672                	add	a2,a2,t3
   144ac:	9101                	srli	a0,a0,0x20
   144ae:	0106be03          	ld	t3,16(a3)
   144b2:	01feeeb3          	or	t4,t4,t6
   144b6:	957a                	add	a0,a0,t5
   144b8:	02029f93          	slli	t6,t0,0x20
   144bc:	02035313          	srli	t1,t1,0x20
   144c0:	013fefb3          	or	t6,t6,s3
   144c4:	9556                	add	a0,a0,s5
   144c6:	942e                	add	s0,s0,a1
   144c8:	9e7e                	add	t3,t3,t6
   144ca:	0886                	slli	a7,a7,0x1
   144cc:	951a                	add	a0,a0,t1
   144ce:	993a                	add	s2,s2,a4
   144d0:	9572                	add	a0,a0,t3
   144d2:	0108ff33          	and	t5,a7,a6
   144d6:	01f79313          	slli	t1,a5,0x1f
   144da:	00b435b3          	sltu	a1,s0,a1
   144de:	9e9e                	add	t4,t4,t2
   144e0:	0204db93          	srli	s7,s1,0x20
   144e4:	9f4a                	add	t5,t5,s2
   144e6:	40f30333          	sub	t1,t1,a5
   144ea:	95aa                	add	a1,a1,a0
   144ec:	6e9c                	ld	a5,24(a3)
   144ee:	9622                	add	a2,a2,s0
   144f0:	7288                	ld	a0,32(a3)
   144f2:	020f1913          	slli	s2,t5,0x20
   144f6:	007eb3b3          	sltu	t2,t4,t2
   144fa:	975e                	add	a4,a4,s7
   144fc:	961e                	add	a2,a2,t2
   144fe:	01396933          	or	s2,s2,s3
   14502:	9726                	add	a4,a4,s1
   14504:	0202d293          	srli	t0,t0,0x20
   14508:	97ca                	add	a5,a5,s2
   1450a:	00863433          	sltu	s0,a2,s0
   1450e:	20a32333          	sh1add	t1,t1,a0
   14512:	9716                	add	a4,a4,t0
   14514:	95a2                	add	a1,a1,s0
   14516:	973e                	add	a4,a4,a5
   14518:	01fe3fb3          	sltu	t6,t3,t6
   1451c:	935e                	add	t1,t1,s7
   1451e:	0208d893          	srli	a7,a7,0x20
   14522:	01c5be33          	sltu	t3,a1,t3
   14526:	977e                	add	a4,a4,t6
   14528:	9346                	add	t1,t1,a7
   1452a:	020f5f13          	srli	t5,t5,0x20
   1452e:	9772                	add	a4,a4,t3
   14530:	0127b933          	sltu	s2,a5,s2
   14534:	937a                	add	t1,t1,t5
   14536:	00f737b3          	sltu	a5,a4,a5
   1453a:	991a                	add	s2,s2,t1
   1453c:	e690                	sd	a2,8(a3)
   1453e:	7690                	ld	a2,40(a3)
   14540:	97ca                	add	a5,a5,s2
   14542:	ee98                	sd	a4,24(a3)
   14544:	00a7b533          	sltu	a0,a5,a0
   14548:	7698                	ld	a4,40(a3)
   1454a:	962a                	add	a2,a2,a0
   1454c:	f29c                	sd	a5,32(a3)
   1454e:	01d6b023          	sd	t4,0(a3)
   14552:	47a5                	li	a5,9
   14554:	ea8c                	sd	a1,16(a3)
   14556:	00e63733          	sltu	a4,a2,a4
   1455a:	f690                	sd	a2,40(a3)
   1455c:	02fa0963          	beq	s4,a5,1458e <fn_mont_reduce_ct+0x208>
   14560:	7a90                	ld	a2,48(a3)
   14562:	00e607b3          	add	a5,a2,a4
   14566:	471d                	li	a4,7
   14568:	fa9c                	sd	a5,48(a3)
   1456a:	00c7b7b3          	sltu	a5,a5,a2
   1456e:	24eb0163          	beq	s6,a4,147b0 <fn_mont_reduce_ct+0x42a>
   14572:	7e98                	ld	a4,56(a3)
   14574:	97ba                	add	a5,a5,a4
   14576:	fe9c                	sd	a5,56(a3)
   14578:	00e7b7b3          	sltu	a5,a5,a4
   1457c:	4719                	li	a4,6
   1457e:	22eb0c63          	beq	s6,a4,147b6 <fn_mont_reduce_ct+0x430>
   14582:	62b8                	ld	a4,64(a3)
   14584:	06a1                	addi	a3,a3,8
   14586:	8b52                	mv	s6,s4
   14588:	97ba                	add	a5,a5,a4
   1458a:	fe9c                	sd	a5,56(a3)
   1458c:	bd99                	j	143e2 <fn_mont_reduce_ct+0x5c>
   1458e:	68e2                	ld	a7,24(sp)
   14590:	ffeb1337          	lui	t1,0xffeb1
   14594:	65c2                	ld	a1,16(sp)
   14596:	10330313          	addi	t1,t1,259 # ffffffffffeb1103 <__BSS_END__+0xffffffffffe779eb>
   1459a:	033e                	slli	t1,t1,0xf
   1459c:	c6fe17b7          	lui	a5,0xc6fe1
   145a0:	0208b503          	ld	a0,32(a7)
   145a4:	0792                	slli	a5,a5,0x4
   145a6:	ed930313          	addi	t1,t1,-295
   145aa:	4a778793          	addi	a5,a5,1191 # ffffffffc6fe14a7 <__BSS_END__+0xffffffffc6fa7d8f>
   145ae:	0336                	slli	t1,t1,0xd
   145b0:	07b2                	slli	a5,a5,0xc
   145b2:	e188                	sd	a0,0(a1)
   145b4:	8ab30313          	addi	t1,t1,-1877
   145b8:	0288be03          	ld	t3,40(a7)
   145bc:	0014f637          	lui	a2,0x14f
   145c0:	efd60613          	addi	a2,a2,-259 # 14eefd <__BSS_END__+0x1157e5>
   145c4:	033a                	slli	t1,t1,0xe
   145c6:	f1d78793          	addi	a5,a5,-227
   145ca:	063e                	slli	a2,a2,0xf
   145cc:	01c5b423          	sd	t3,8(a1)
   145d0:	edd30313          	addi	t1,t1,-291
   145d4:	0308b283          	ld	t0,48(a7)
   145d8:	07c6                	slli	a5,a5,0x11
   145da:	12760613          	addi	a2,a2,295
   145de:	c6fe1837          	lui	a6,0xc6fe1
   145e2:	3901f737          	lui	a4,0x3901f
   145e6:	0812                	slli	a6,a6,0x4
   145e8:	0055b823          	sd	t0,16(a1)
   145ec:	0712                	slli	a4,a4,0x4
   145ee:	0388be83          	ld	t4,56(a7)
   145f2:	ad478793          	addi	a5,a5,-1324
   145f6:	0636                	slli	a2,a2,0xd
   145f8:	4a780813          	addi	a6,a6,1191 # ffffffffc6fe14a7 <__BSS_END__+0xffffffffc6fa7d8f>
   145fc:	b5970713          	addi	a4,a4,-1191 # 3901eb59 <__BSS_END__+0x38fe5441>
   14600:	75560613          	addi	a2,a2,1877
   14604:	01d5bc23          	sd	t4,24(a1)
   14608:	0832                	slli	a6,a6,0xc
   1460a:	0408b683          	ld	a3,64(a7)
   1460e:	0732                	slli	a4,a4,0xc
   14610:	063a                	slli	a2,a2,0xe
   14612:	f1d80813          	addi	a6,a6,-227
   14616:	0e370713          	addi	a4,a4,227
   1461a:	12260613          	addi	a2,a2,290
   1461e:	8a85                	andi	a3,a3,1
   14620:	0846                	slli	a6,a6,0x11
   14622:	40d006b3          	neg	a3,a3
   14626:	0746                	slli	a4,a4,0x11
   14628:	0066f3b3          	and	t2,a3,t1
   1462c:	8ff5                	and	a5,a5,a3
   1462e:	93aa                	add	t2,t2,a0
   14630:	97f2                	add	a5,a5,t3
   14632:	00a3b533          	sltu	a0,t2,a0
   14636:	00763933          	sltu	s2,a2,t2
   1463a:	00f504b3          	add	s1,a0,a5
   1463e:	ad580813          	addi	a6,a6,-1323
   14642:	00a4b533          	sltu	a0,s1,a0
   14646:	52a70713          	addi	a4,a4,1322
   1464a:	01c7b7b3          	sltu	a5,a5,t3
   1464e:	00194913          	xori	s2,s2,1
   14652:	01048e33          	add	t3,s1,a6
   14656:	8fc9                	or	a5,a5,a0
   14658:	00973533          	sltu	a0,a4,s1
   1465c:	012e38b3          	sltu	a7,t3,s2
   14660:	0ff7f793          	zext.b	a5,a5
   14664:	00153513          	seqz	a0,a0
   14668:	9796                	add	a5,a5,t0
   1466a:	01156533          	or	a0,a0,a7
   1466e:	00178993          	addi	s3,a5,1
   14672:	0ff57513          	zext.b	a0,a0
   14676:	2a001893          	bseti	a7,zero,0x20
   1467a:	0116f6b3          	and	a3,a3,a7
   1467e:	96f6                	add	a3,a3,t4
   14680:	00a9b8b3          	sltu	a7,s3,a0
   14684:	0057b2b3          	sltu	t0,a5,t0
   14688:	01303433          	snez	s0,s3
   1468c:	92b6                	add	t0,t0,a3
   1468e:	01146433          	or	s0,s0,a7
   14692:	2a001f13          	bseti	t5,zero,0x20
   14696:	0f05                	addi	t5,t5,1
   14698:	01e28fb3          	add	t6,t0,t5
   1469c:	0ff47413          	zext.b	s0,s0
   146a0:	2a001693          	bseti	a3,zero,0x20
   146a4:	fff6c693          	not	a3,a3
   146a8:	008fbeb3          	sltu	t4,t6,s0
   146ac:	00d2b8b3          	sltu	a7,t0,a3
   146b0:	01d8e8b3          	or	a7,a7,t4
   146b4:	412e0e33          	sub	t3,t3,s2
   146b8:	0018c893          	xori	a7,a7,1
   146bc:	00638eb3          	add	t4,t2,t1
   146c0:	0ff8f893          	zext.b	a7,a7
   146c4:	40a98533          	sub	a0,s3,a0
   146c8:	41100933          	neg	s2,a7
   146cc:	18fd                	addi	a7,a7,-1
   146ce:	0078f3b3          	and	t2,a7,t2
   146d2:	012efeb3          	and	t4,t4,s2
   146d6:	007eeeb3          	or	t4,t4,t2
   146da:	0098f4b3          	and	s1,a7,s1
   146de:	012e7e33          	and	t3,t3,s2
   146e2:	01d63633          	sltu	a2,a2,t4
   146e6:	009e6e33          	or	t3,t3,s1
   146ea:	00164613          	xori	a2,a2,1
   146ee:	9872                	add	a6,a6,t3
   146f0:	01c73733          	sltu	a4,a4,t3
   146f4:	00c833b3          	sltu	t2,a6,a2
   146f8:	00f8f7b3          	and	a5,a7,a5
   146fc:	01257533          	and	a0,a0,s2
   14700:	00173713          	seqz	a4,a4
   14704:	8d5d                	or	a0,a0,a5
   14706:	00776733          	or	a4,a4,t2
   1470a:	0ff77713          	zext.b	a4,a4
   1470e:	00150393          	addi	t2,a0,1
   14712:	408f8fb3          	sub	t6,t6,s0
   14716:	0058f8b3          	and	a7,a7,t0
   1471a:	012fffb3          	and	t6,t6,s2
   1471e:	00e3b2b3          	sltu	t0,t2,a4
   14722:	007037b3          	snez	a5,t2
   14726:	011fefb3          	or	t6,t6,a7
   1472a:	0057e7b3          	or	a5,a5,t0
   1472e:	01ef88b3          	add	a7,t6,t5
   14732:	0ff7ff13          	zext.b	t5,a5
   14736:	00dfb6b3          	sltu	a3,t6,a3
   1473a:	01e8b2b3          	sltu	t0,a7,t5
   1473e:	40c80833          	sub	a6,a6,a2
   14742:	0056e6b3          	or	a3,a3,t0
   14746:	40e38633          	sub	a2,t2,a4
   1474a:	0016c693          	xori	a3,a3,1
   1474e:	006e87b3          	add	a5,t4,t1
   14752:	0ff6f713          	zext.b	a4,a3
   14756:	41e888b3          	sub	a7,a7,t5
   1475a:	40e00333          	neg	t1,a4
   1475e:	177d                	addi	a4,a4,-1
   14760:	7466                	ld	s0,120(sp)
   14762:	01d77eb3          	and	t4,a4,t4
   14766:	01c77e33          	and	t3,a4,t3
   1476a:	006676b3          	and	a3,a2,t1
   1476e:	8d79                	and	a0,a0,a4
   14770:	0067f7b3          	and	a5,a5,t1
   14774:	00687833          	and	a6,a6,t1
   14778:	0068f8b3          	and	a7,a7,t1
   1477c:	01f77733          	and	a4,a4,t6
   14780:	01d7e7b3          	or	a5,a5,t4
   14784:	01c86633          	or	a2,a6,t3
   14788:	8ec9                	or	a3,a3,a0
   1478a:	00e8e733          	or	a4,a7,a4
   1478e:	e19c                	sd	a5,0(a1)
   14790:	e590                	sd	a2,8(a1)
   14792:	74c6                	ld	s1,112(sp)
   14794:	e994                	sd	a3,16(a1)
   14796:	7926                	ld	s2,104(sp)
   14798:	ed98                	sd	a4,24(a1)
   1479a:	7986                	ld	s3,96(sp)
   1479c:	6a66                	ld	s4,88(sp)
   1479e:	6ac6                	ld	s5,80(sp)
   147a0:	6b26                	ld	s6,72(sp)
   147a2:	6b86                	ld	s7,64(sp)
   147a4:	7c62                	ld	s8,56(sp)
   147a6:	7cc2                	ld	s9,48(sp)
   147a8:	7d22                	ld	s10,40(sp)
   147aa:	7d82                	ld	s11,32(sp)
   147ac:	6109                	addi	sp,sp,128
   147ae:	8082                	ret
   147b0:	06a1                	addi	a3,a3,8
   147b2:	4b21                	li	s6,8
   147b4:	b13d                	j	143e2 <fn_mont_reduce_ct+0x5c>
   147b6:	06a1                	addi	a3,a3,8
   147b8:	4b1d                	li	s6,7
   147ba:	b125                	j	143e2 <fn_mont_reduce_ct+0x5c>

00000000000147bc <fn_mont_mul_ct>:
   147bc:	7171                	addi	sp,sp,-176
   147be:	f122                	sd	s0,160(sp)
   147c0:	842a                	mv	s0,a0
   147c2:	ed26                	sd	s1,152(sp)
   147c4:	850a                	mv	a0,sp
   147c6:	64f5                	lui	s1,0x1d
   147c8:	df04b783          	ld	a5,-528(s1) # 1cdf0 <__stack_chk_guard@GLIBC_2.27>
   147cc:	e53e                	sd	a5,136(sp)
   147ce:	4781                	li	a5,0
   147d0:	f506                	sd	ra,168(sp)
   147d2:	987ff0ef          	jal	14158 <fn_mul_4x4_u512_ct>
   147d6:	6782                	ld	a5,0(sp)
   147d8:	008c                	addi	a1,sp,64
   147da:	8522                	mv	a0,s0
   147dc:	e102                	sd	zero,128(sp)
   147de:	e0be                	sd	a5,64(sp)
   147e0:	67a2                	ld	a5,8(sp)
   147e2:	e4be                	sd	a5,72(sp)
   147e4:	67c2                	ld	a5,16(sp)
   147e6:	e8be                	sd	a5,80(sp)
   147e8:	67e2                	ld	a5,24(sp)
   147ea:	ecbe                	sd	a5,88(sp)
   147ec:	7782                	ld	a5,32(sp)
   147ee:	f0be                	sd	a5,96(sp)
   147f0:	77a2                	ld	a5,40(sp)
   147f2:	f4be                	sd	a5,104(sp)
   147f4:	77c2                	ld	a5,48(sp)
   147f6:	f8be                	sd	a5,112(sp)
   147f8:	77e2                	ld	a5,56(sp)
   147fa:	fcbe                	sd	a5,120(sp)
   147fc:	b8bff0ef          	jal	14386 <fn_mont_reduce_ct>
   14800:	672a                	ld	a4,136(sp)
   14802:	df04b783          	ld	a5,-528(s1)
   14806:	8fb9                	xor	a5,a5,a4
   14808:	4701                	li	a4,0
   1480a:	e791                	bnez	a5,14816 <fn_mont_mul_ct+0x5a>
   1480c:	70aa                	ld	ra,168(sp)
   1480e:	740a                	ld	s0,160(sp)
   14810:	64ea                	ld	s1,152(sp)
   14812:	614d                	addi	sp,sp,176
   14814:	8082                	ret
   14816:	baafc0ef          	jal	10bc0 <__stack_chk_fail@plt>

000000000001481a <fn_to_mont>:
   1481a:	6669                	lui	a2,0x1a
   1481c:	fd860613          	addi	a2,a2,-40 # 19fd8 <FN_MONT_R2>
   14820:	bf71                	j	147bc <fn_mont_mul_ct>

0000000000014822 <fn_from_mont>:
   14822:	6669                	lui	a2,0x1a
   14824:	ff860613          	addi	a2,a2,-8 # 19ff8 <FN_ONE>
   14828:	bf51                	j	147bc <fn_mont_mul_ct>

000000000001482a <fn_mul>:
   1482a:	0014f737          	lui	a4,0x14f
   1482e:	efd70713          	addi	a4,a4,-259 # 14eefd <__BSS_END__+0x1157e5>
   14832:	073e                	slli	a4,a4,0xf
   14834:	c6fe16b7          	lui	a3,0xc6fe1
   14838:	12770713          	addi	a4,a4,295
   1483c:	0692                	slli	a3,a3,0x4
   1483e:	3901f7b7          	lui	a5,0x3901f
   14842:	0792                	slli	a5,a5,0x4
   14844:	0736                	slli	a4,a4,0xd
   14846:	4a768693          	addi	a3,a3,1191 # ffffffffc6fe14a7 <__BSS_END__+0xffffffffc6fa7d8f>
   1484a:	b5978793          	addi	a5,a5,-1191 # 3901eb59 <__BSS_END__+0x38fe5441>
   1484e:	0005bf83          	ld	t6,0(a1)
   14852:	00063383          	ld	t2,0(a2)
   14856:	75570713          	addi	a4,a4,1877
   1485a:	06b2                	slli	a3,a3,0xc
   1485c:	07b2                	slli	a5,a5,0xc
   1485e:	0085bf03          	ld	t5,8(a1)
   14862:	073a                	slli	a4,a4,0xe
   14864:	00863283          	ld	t0,8(a2)
   14868:	f1d68693          	addi	a3,a3,-227
   1486c:	0e378793          	addi	a5,a5,227
   14870:	12270713          	addi	a4,a4,290
   14874:	06c6                	slli	a3,a3,0x11
   14876:	07c6                	slli	a5,a5,0x11
   14878:	716d                	addi	sp,sp,-272
   1487a:	ad568693          	addi	a3,a3,-1323
   1487e:	01f73eb3          	sltu	t4,a4,t6
   14882:	52a78793          	addi	a5,a5,1322
   14886:	00773733          	sltu	a4,a4,t2
   1488a:	00d28833          	add	a6,t0,a3
   1488e:	00174893          	xori	a7,a4,1
   14892:	e606                	sd	ra,264(sp)
   14894:	01e7b733          	sltu	a4,a5,t5
   14898:	01063083          	ld	ra,16(a2)
   1489c:	e222                	sd	s0,256(sp)
   1489e:	001ece93          	xori	t4,t4,1
   148a2:	6980                	ld	s0,16(a1)
   148a4:	fda6                	sd	s1,248(sp)
   148a6:	0057b7b3          	sltu	a5,a5,t0
   148aa:	00df04b3          	add	s1,t5,a3
   148ae:	01d4b333          	sltu	t1,s1,t4
   148b2:	011836b3          	sltu	a3,a6,a7
   148b6:	00173713          	seqz	a4,a4
   148ba:	0017b793          	seqz	a5,a5
   148be:	00676733          	or	a4,a4,t1
   148c2:	8fd5                	or	a5,a5,a3
   148c4:	f5ce                	sd	s3,232(sp)
   148c6:	0ff7f793          	zext.b	a5,a5
   148ca:	01863983          	ld	s3,24(a2)
   148ce:	f1d2                	sd	s4,224(sp)
   148d0:	0ff77613          	zext.b	a2,a4
   148d4:	0185ba03          	ld	s4,24(a1)
   148d8:	edd6                	sd	s5,216(sp)
   148da:	00108a93          	addi	s5,ra,1
   148de:	e9da                	sd	s6,208(sp)
   148e0:	00140b13          	addi	s6,s0,1
   148e4:	00cb35b3          	sltu	a1,s6,a2
   148e8:	00fab6b3          	sltu	a3,s5,a5
   148ec:	f9ca                	sd	s2,240(sp)
   148ee:	01603e33          	snez	t3,s6
   148f2:	01503933          	snez	s2,s5
   148f6:	ffeb1737          	lui	a4,0xffeb1
   148fa:	10370713          	addi	a4,a4,259 # ffffffffffeb1103 <__BSS_END__+0xffffffffffe779eb>
   148fe:	00be6e33          	or	t3,t3,a1
   14902:	00d96933          	or	s2,s2,a3
   14906:	073e                	slli	a4,a4,0xf
   14908:	2a001313          	bseti	t1,zero,0x20
   1490c:	0305                	addi	t1,t1,1
   1490e:	0ff97913          	zext.b	s2,s2
   14912:	e5de                	sd	s7,200(sp)
   14914:	0ffe7e13          	zext.b	t3,t3
   14918:	006a0bb3          	add	s7,s4,t1
   1491c:	ed970713          	addi	a4,a4,-295
   14920:	934e                	add	t1,t1,s3
   14922:	2a001693          	bseti	a3,zero,0x20
   14926:	fff6c693          	not	a3,a3
   1492a:	00da35b3          	sltu	a1,s4,a3
   1492e:	e1e2                	sd	s8,192(sp)
   14930:	fd66                	sd	s9,184(sp)
   14932:	01233c33          	sltu	s8,t1,s2
   14936:	01cbbcb3          	sltu	s9,s7,t3
   1493a:	00d9b6b3          	sltu	a3,s3,a3
   1493e:	0736                	slli	a4,a4,0xd
   14940:	0195e5b3          	or	a1,a1,s9
   14944:	0186e6b3          	or	a3,a3,s8
   14948:	8ab70713          	addi	a4,a4,-1877
   1494c:	0015c593          	xori	a1,a1,1
   14950:	073a                	slli	a4,a4,0xe
   14952:	0016c693          	xori	a3,a3,1
   14956:	0ff5f593          	zext.b	a1,a1
   1495a:	edd70713          	addi	a4,a4,-291
   1495e:	0ff6f693          	zext.b	a3,a3
   14962:	40b00c33          	neg	s8,a1
   14966:	40d00cb3          	neg	s9,a3
   1496a:	15fd                	addi	a1,a1,-1
   1496c:	16fd                	addi	a3,a3,-1
   1496e:	f96a                	sd	s10,176(sp)
   14970:	41d48eb3          	sub	t4,s1,t4
   14974:	00ef8d33          	add	s10,t6,a4
   14978:	40cb0633          	sub	a2,s6,a2
   1497c:	971e                	add	a4,a4,t2
   1497e:	41180833          	sub	a6,a6,a7
   14982:	41230333          	sub	t1,t1,s2
   14986:	41cb8e33          	sub	t3,s7,t3
   1498a:	40fa87b3          	sub	a5,s5,a5
   1498e:	64e9                	lui	s1,0x1a
   14990:	fb848493          	addi	s1,s1,-72 # 19fb8 <FN_N>
   14994:	00d3f3b3          	and	t2,t2,a3
   14998:	00d0f0b3          	and	ra,ra,a3
   1499c:	018efeb3          	and	t4,t4,s8
   149a0:	00d2f2b3          	and	t0,t0,a3
   149a4:	8c6d                	and	s0,s0,a1
   149a6:	00d9f9b3          	and	s3,s3,a3
   149aa:	00bfffb3          	and	t6,t6,a1
   149ae:	00bf7f33          	and	t5,t5,a1
   149b2:	01867933          	and	s2,a2,s8
   149b6:	00ba75b3          	and	a1,s4,a1
   149ba:	01987833          	and	a6,a6,s9
   149be:	02048a13          	addi	s4,s1,32
   149c2:	018d7d33          	and	s10,s10,s8
   149c6:	018e7e33          	and	t3,t3,s8
   149ca:	01977733          	and	a4,a4,s9
   149ce:	0197f7b3          	and	a5,a5,s9
   149d2:	01937333          	and	t1,t1,s9
   149d6:	88aa                	mv	a7,a0
   149d8:	00be6e33          	or	t3,t3,a1
   149dc:	00776733          	or	a4,a4,t2
   149e0:	005866b3          	or	a3,a6,t0
   149e4:	0017e7b3          	or	a5,a5,ra
   149e8:	01336333          	or	t1,t1,s3
   149ec:	01fd6fb3          	or	t6,s10,t6
   149f0:	01eeef33          	or	t5,t4,t5
   149f4:	00896933          	or	s2,s2,s0
   149f8:	8652                	mv	a2,s4
   149fa:	002c                	addi	a1,sp,8
   149fc:	00a8                	addi	a0,sp,72
   149fe:	6475                	lui	s0,0x1d
   14a00:	df043803          	ld	a6,-528(s0) # 1cdf0 <__stack_chk_guard@GLIBC_2.27>
   14a04:	f542                	sd	a6,168(sp)
   14a06:	4801                	li	a6,0
   14a08:	89c6                	mv	s3,a7
   14a0a:	f43a                	sd	a4,40(sp)
   14a0c:	fc3e                	sd	a5,56(sp)
   14a0e:	e47e                	sd	t6,8(sp)
   14a10:	e87a                	sd	t5,16(sp)
   14a12:	f072                	sd	t3,32(sp)
   14a14:	f836                	sd	a3,48(sp)
   14a16:	e09a                	sd	t1,64(sp)
   14a18:	ec4a                	sd	s2,24(sp)
   14a1a:	da3ff0ef          	jal	147bc <fn_mont_mul_ct>
   14a1e:	8652                	mv	a2,s4
   14a20:	102c                	addi	a1,sp,40
   14a22:	10a8                	addi	a0,sp,104
   14a24:	d99ff0ef          	jal	147bc <fn_mont_mul_ct>
   14a28:	10b0                	addi	a2,sp,104
   14a2a:	00ac                	addi	a1,sp,72
   14a2c:	0128                	addi	a0,sp,136
   14a2e:	d8fff0ef          	jal	147bc <fn_mont_mul_ct>
   14a32:	04048613          	addi	a2,s1,64
   14a36:	012c                	addi	a1,sp,136
   14a38:	854e                	mv	a0,s3
   14a3a:	d83ff0ef          	jal	147bc <fn_mont_mul_ct>
   14a3e:	772a                	ld	a4,168(sp)
   14a40:	df043783          	ld	a5,-528(s0)
   14a44:	8fb9                	xor	a5,a5,a4
   14a46:	4701                	li	a4,0
   14a48:	ef99                	bnez	a5,14a66 <fn_mul+0x23c>
   14a4a:	60b2                	ld	ra,264(sp)
   14a4c:	6412                	ld	s0,256(sp)
   14a4e:	74ee                	ld	s1,248(sp)
   14a50:	794e                	ld	s2,240(sp)
   14a52:	79ae                	ld	s3,232(sp)
   14a54:	7a0e                	ld	s4,224(sp)
   14a56:	6aee                	ld	s5,216(sp)
   14a58:	6b4e                	ld	s6,208(sp)
   14a5a:	6bae                	ld	s7,200(sp)
   14a5c:	6c0e                	ld	s8,192(sp)
   14a5e:	7cea                	ld	s9,184(sp)
   14a60:	7d4a                	ld	s10,176(sp)
   14a62:	6151                	addi	sp,sp,272
   14a64:	8082                	ret
   14a66:	95afc0ef          	jal	10bc0 <__stack_chk_fail@plt>

0000000000014a6a <fn_mont_one>:
   14a6a:	67e9                	lui	a5,0x1a
   14a6c:	fb878793          	addi	a5,a5,-72 # 19fb8 <FN_N>
   14a70:	73b0                	ld	a2,96(a5)
   14a72:	77b4                	ld	a3,104(a5)
   14a74:	7bb8                	ld	a4,112(a5)
   14a76:	7fbc                	ld	a5,120(a5)
   14a78:	e110                	sd	a2,0(a0)
   14a7a:	e514                	sd	a3,8(a0)
   14a7c:	e918                	sd	a4,16(a0)
   14a7e:	ed1c                	sd	a5,24(a0)
   14a80:	8082                	ret

0000000000014a82 <fn_to_mont_pub>:
   14a82:	0014f737          	lui	a4,0x14f
   14a86:	efd70713          	addi	a4,a4,-259 # 14eefd <__BSS_END__+0x1157e5>
   14a8a:	073e                	slli	a4,a4,0xf
   14a8c:	c6fe16b7          	lui	a3,0xc6fe1
   14a90:	12770713          	addi	a4,a4,295
   14a94:	0692                	slli	a3,a3,0x4
   14a96:	3901f7b7          	lui	a5,0x3901f
   14a9a:	0792                	slli	a5,a5,0x4
   14a9c:	0736                	slli	a4,a4,0xd
   14a9e:	4a768693          	addi	a3,a3,1191 # ffffffffc6fe14a7 <__BSS_END__+0xffffffffc6fa7d8f>
   14aa2:	b5978793          	addi	a5,a5,-1191 # 3901eb59 <__BSS_END__+0x38fe5441>
   14aa6:	0005be03          	ld	t3,0(a1)
   14aaa:	75570713          	addi	a4,a4,1877
   14aae:	06b2                	slli	a3,a3,0xc
   14ab0:	07b2                	slli	a5,a5,0xc
   14ab2:	0085b883          	ld	a7,8(a1)
   14ab6:	073a                	slli	a4,a4,0xe
   14ab8:	f1d68693          	addi	a3,a3,-227
   14abc:	0e378793          	addi	a5,a5,227
   14ac0:	12270713          	addi	a4,a4,290
   14ac4:	06c6                	slli	a3,a3,0x11
   14ac6:	07c6                	slli	a5,a5,0x11
   14ac8:	01c73733          	sltu	a4,a4,t3
   14acc:	ad568693          	addi	a3,a3,-1323
   14ad0:	52a78793          	addi	a5,a5,1322
   14ad4:	0105b303          	ld	t1,16(a1)
   14ad8:	00d88633          	add	a2,a7,a3
   14adc:	00174e93          	xori	t4,a4,1
   14ae0:	0117b7b3          	sltu	a5,a5,a7
   14ae4:	01d63733          	sltu	a4,a2,t4
   14ae8:	0017b793          	seqz	a5,a5
   14aec:	0185bf03          	ld	t5,24(a1)
   14af0:	8fd9                	or	a5,a5,a4
   14af2:	00130813          	addi	a6,t1,1
   14af6:	0ff7f793          	zext.b	a5,a5
   14afa:	01003fb3          	snez	t6,a6
   14afe:	00f836b3          	sltu	a3,a6,a5
   14b02:	ffeb1737          	lui	a4,0xffeb1
   14b06:	10370713          	addi	a4,a4,259 # ffffffffffeb1103 <__BSS_END__+0xffffffffffe779eb>
   14b0a:	00dfefb3          	or	t6,t6,a3
   14b0e:	073e                	slli	a4,a4,0xf
   14b10:	2a001593          	bseti	a1,zero,0x20
   14b14:	0585                	addi	a1,a1,1
   14b16:	0fffff93          	zext.b	t6,t6
   14b1a:	95fa                	add	a1,a1,t5
   14b1c:	ed970713          	addi	a4,a4,-295
   14b20:	2a001693          	bseti	a3,zero,0x20
   14b24:	fff6c693          	not	a3,a3
   14b28:	01f5b2b3          	sltu	t0,a1,t6
   14b2c:	00df36b3          	sltu	a3,t5,a3
   14b30:	0736                	slli	a4,a4,0xd
   14b32:	0056e6b3          	or	a3,a3,t0
   14b36:	8ab70713          	addi	a4,a4,-1877
   14b3a:	0016c693          	xori	a3,a3,1
   14b3e:	073a                	slli	a4,a4,0xe
   14b40:	0ff6f693          	zext.b	a3,a3
   14b44:	edd70713          	addi	a4,a4,-291
   14b48:	40d002b3          	neg	t0,a3
   14b4c:	9772                	add	a4,a4,t3
   14b4e:	16fd                	addi	a3,a3,-1
   14b50:	41f585b3          	sub	a1,a1,t6
   14b54:	00de7e33          	and	t3,t3,a3
   14b58:	41d60633          	sub	a2,a2,t4
   14b5c:	40f80833          	sub	a6,a6,a5
   14b60:	00577733          	and	a4,a4,t0
   14b64:	7139                	addi	sp,sp,-64
   14b66:	00567633          	and	a2,a2,t0
   14b6a:	00d37333          	and	t1,t1,a3
   14b6e:	0055f7b3          	and	a5,a1,t0
   14b72:	00df7f33          	and	t5,t5,a3
   14b76:	01c76733          	or	a4,a4,t3
   14b7a:	00d8f8b3          	and	a7,a7,a3
   14b7e:	00587833          	and	a6,a6,t0
   14b82:	011666b3          	or	a3,a2,a7
   14b86:	01e7e7b3          	or	a5,a5,t5
   14b8a:	f822                	sd	s0,48(sp)
   14b8c:	00686833          	or	a6,a6,t1
   14b90:	e43a                	sd	a4,8(sp)
   14b92:	6475                	lui	s0,0x1d
   14b94:	002c                	addi	a1,sp,8
   14b96:	df043703          	ld	a4,-528(s0) # 1cdf0 <__stack_chk_guard@GLIBC_2.27>
   14b9a:	f43a                	sd	a4,40(sp)
   14b9c:	4701                	li	a4,0
   14b9e:	6669                	lui	a2,0x1a
   14ba0:	fd860613          	addi	a2,a2,-40 # 19fd8 <FN_MONT_R2>
   14ba4:	f03e                	sd	a5,32(sp)
   14ba6:	fc06                	sd	ra,56(sp)
   14ba8:	e836                	sd	a3,16(sp)
   14baa:	ec42                	sd	a6,24(sp)
   14bac:	c11ff0ef          	jal	147bc <fn_mont_mul_ct>
   14bb0:	7722                	ld	a4,40(sp)
   14bb2:	df043783          	ld	a5,-528(s0)
   14bb6:	8fb9                	xor	a5,a5,a4
   14bb8:	4701                	li	a4,0
   14bba:	e789                	bnez	a5,14bc4 <fn_to_mont_pub+0x142>
   14bbc:	70e2                	ld	ra,56(sp)
   14bbe:	7442                	ld	s0,48(sp)
   14bc0:	6121                	addi	sp,sp,64
   14bc2:	8082                	ret
   14bc4:	ffdfb0ef          	jal	10bc0 <__stack_chk_fail@plt>

0000000000014bc8 <fn_from_mont_pub>:
   14bc8:	0014f737          	lui	a4,0x14f
   14bcc:	efd70713          	addi	a4,a4,-259 # 14eefd <__BSS_END__+0x1157e5>
   14bd0:	073e                	slli	a4,a4,0xf
   14bd2:	c6fe16b7          	lui	a3,0xc6fe1
   14bd6:	12770713          	addi	a4,a4,295
   14bda:	0692                	slli	a3,a3,0x4
   14bdc:	3901f7b7          	lui	a5,0x3901f
   14be0:	0792                	slli	a5,a5,0x4
   14be2:	0736                	slli	a4,a4,0xd
   14be4:	4a768693          	addi	a3,a3,1191 # ffffffffc6fe14a7 <__BSS_END__+0xffffffffc6fa7d8f>
   14be8:	b5978793          	addi	a5,a5,-1191 # 3901eb59 <__BSS_END__+0x38fe5441>
   14bec:	0005be03          	ld	t3,0(a1)
   14bf0:	75570713          	addi	a4,a4,1877
   14bf4:	06b2                	slli	a3,a3,0xc
   14bf6:	07b2                	slli	a5,a5,0xc
   14bf8:	0085b883          	ld	a7,8(a1)
   14bfc:	073a                	slli	a4,a4,0xe
   14bfe:	f1d68693          	addi	a3,a3,-227
   14c02:	0e378793          	addi	a5,a5,227
   14c06:	12270713          	addi	a4,a4,290
   14c0a:	06c6                	slli	a3,a3,0x11
   14c0c:	07c6                	slli	a5,a5,0x11
   14c0e:	01c73733          	sltu	a4,a4,t3
   14c12:	ad568693          	addi	a3,a3,-1323
   14c16:	52a78793          	addi	a5,a5,1322
   14c1a:	0105b303          	ld	t1,16(a1)
   14c1e:	00d88633          	add	a2,a7,a3
   14c22:	00174e93          	xori	t4,a4,1
   14c26:	0117b7b3          	sltu	a5,a5,a7
   14c2a:	01d63733          	sltu	a4,a2,t4
   14c2e:	0017b793          	seqz	a5,a5
   14c32:	0185bf03          	ld	t5,24(a1)
   14c36:	8fd9                	or	a5,a5,a4
   14c38:	00130813          	addi	a6,t1,1
   14c3c:	0ff7f793          	zext.b	a5,a5
   14c40:	01003fb3          	snez	t6,a6
   14c44:	00f836b3          	sltu	a3,a6,a5
   14c48:	ffeb1737          	lui	a4,0xffeb1
   14c4c:	10370713          	addi	a4,a4,259 # ffffffffffeb1103 <__BSS_END__+0xffffffffffe779eb>
   14c50:	00dfefb3          	or	t6,t6,a3
   14c54:	073e                	slli	a4,a4,0xf
   14c56:	2a001593          	bseti	a1,zero,0x20
   14c5a:	0585                	addi	a1,a1,1
   14c5c:	0fffff93          	zext.b	t6,t6
   14c60:	95fa                	add	a1,a1,t5
   14c62:	ed970713          	addi	a4,a4,-295
   14c66:	2a001693          	bseti	a3,zero,0x20
   14c6a:	fff6c693          	not	a3,a3
   14c6e:	01f5b2b3          	sltu	t0,a1,t6
   14c72:	00df36b3          	sltu	a3,t5,a3
   14c76:	0736                	slli	a4,a4,0xd
   14c78:	0056e6b3          	or	a3,a3,t0
   14c7c:	8ab70713          	addi	a4,a4,-1877
   14c80:	0016c693          	xori	a3,a3,1
   14c84:	073a                	slli	a4,a4,0xe
   14c86:	0ff6f693          	zext.b	a3,a3
   14c8a:	edd70713          	addi	a4,a4,-291
   14c8e:	40d002b3          	neg	t0,a3
   14c92:	9772                	add	a4,a4,t3
   14c94:	16fd                	addi	a3,a3,-1
   14c96:	41f585b3          	sub	a1,a1,t6
   14c9a:	00de7e33          	and	t3,t3,a3
   14c9e:	41d60633          	sub	a2,a2,t4
   14ca2:	40f80833          	sub	a6,a6,a5
   14ca6:	00577733          	and	a4,a4,t0
   14caa:	7139                	addi	sp,sp,-64
   14cac:	00567633          	and	a2,a2,t0
   14cb0:	00d37333          	and	t1,t1,a3
   14cb4:	0055f7b3          	and	a5,a1,t0
   14cb8:	00df7f33          	and	t5,t5,a3
   14cbc:	01c76733          	or	a4,a4,t3
   14cc0:	00d8f8b3          	and	a7,a7,a3
   14cc4:	00587833          	and	a6,a6,t0
   14cc8:	011666b3          	or	a3,a2,a7
   14ccc:	01e7e7b3          	or	a5,a5,t5
   14cd0:	f822                	sd	s0,48(sp)
   14cd2:	00686833          	or	a6,a6,t1
   14cd6:	e43a                	sd	a4,8(sp)
   14cd8:	6475                	lui	s0,0x1d
   14cda:	002c                	addi	a1,sp,8
   14cdc:	df043703          	ld	a4,-528(s0) # 1cdf0 <__stack_chk_guard@GLIBC_2.27>
   14ce0:	f43a                	sd	a4,40(sp)
   14ce2:	4701                	li	a4,0
   14ce4:	6669                	lui	a2,0x1a
   14ce6:	ff860613          	addi	a2,a2,-8 # 19ff8 <FN_ONE>
   14cea:	f03e                	sd	a5,32(sp)
   14cec:	fc06                	sd	ra,56(sp)
   14cee:	e836                	sd	a3,16(sp)
   14cf0:	ec42                	sd	a6,24(sp)
   14cf2:	acbff0ef          	jal	147bc <fn_mont_mul_ct>
   14cf6:	7722                	ld	a4,40(sp)
   14cf8:	df043783          	ld	a5,-528(s0)
   14cfc:	8fb9                	xor	a5,a5,a4
   14cfe:	4701                	li	a4,0
   14d00:	e789                	bnez	a5,14d0a <fn_from_mont_pub+0x142>
   14d02:	70e2                	ld	ra,56(sp)
   14d04:	7442                	ld	s0,48(sp)
   14d06:	6121                	addi	sp,sp,64
   14d08:	8082                	ret
   14d0a:	eb7fb0ef          	jal	10bc0 <__stack_chk_fail@plt>

0000000000014d0e <fn_mont_mul_pub>:
   14d0e:	0014f737          	lui	a4,0x14f
   14d12:	efd70713          	addi	a4,a4,-259 # 14eefd <__BSS_END__+0x1157e5>
   14d16:	073e                	slli	a4,a4,0xf
   14d18:	c6fe16b7          	lui	a3,0xc6fe1
   14d1c:	12770713          	addi	a4,a4,295
   14d20:	0692                	slli	a3,a3,0x4
   14d22:	3901f7b7          	lui	a5,0x3901f
   14d26:	0792                	slli	a5,a5,0x4
   14d28:	0736                	slli	a4,a4,0xd
   14d2a:	4a768693          	addi	a3,a3,1191 # ffffffffc6fe14a7 <__BSS_END__+0xffffffffc6fa7d8f>
   14d2e:	b5978793          	addi	a5,a5,-1191 # 3901eb59 <__BSS_END__+0x38fe5441>
   14d32:	0005b383          	ld	t2,0(a1)
   14d36:	00063f83          	ld	t6,0(a2)
   14d3a:	75570713          	addi	a4,a4,1877
   14d3e:	06b2                	slli	a3,a3,0xc
   14d40:	07b2                	slli	a5,a5,0xc
   14d42:	0085b283          	ld	t0,8(a1)
   14d46:	073a                	slli	a4,a4,0xe
   14d48:	00863f03          	ld	t5,8(a2)
   14d4c:	f1d68693          	addi	a3,a3,-227
   14d50:	0e378793          	addi	a5,a5,227
   14d54:	12270713          	addi	a4,a4,290
   14d58:	06c6                	slli	a3,a3,0x11
   14d5a:	07c6                	slli	a5,a5,0x11
   14d5c:	7171                	addi	sp,sp,-176
   14d5e:	ad568693          	addi	a3,a3,-1323
   14d62:	00773eb3          	sltu	t4,a4,t2
   14d66:	52a78793          	addi	a5,a5,1322
   14d6a:	01f73733          	sltu	a4,a4,t6
   14d6e:	00df0833          	add	a6,t5,a3
   14d72:	00174893          	xori	a7,a4,1
   14d76:	f506                	sd	ra,168(sp)
   14d78:	0057b733          	sltu	a4,a5,t0
   14d7c:	01063083          	ld	ra,16(a2)
   14d80:	f122                	sd	s0,160(sp)
   14d82:	001ece93          	xori	t4,t4,1
   14d86:	6980                	ld	s0,16(a1)
   14d88:	ed26                	sd	s1,152(sp)
   14d8a:	01e7b7b3          	sltu	a5,a5,t5
   14d8e:	00d284b3          	add	s1,t0,a3
   14d92:	01d4b333          	sltu	t1,s1,t4
   14d96:	011836b3          	sltu	a3,a6,a7
   14d9a:	00173713          	seqz	a4,a4
   14d9e:	0017b793          	seqz	a5,a5
   14da2:	00676733          	or	a4,a4,t1
   14da6:	8fd5                	or	a5,a5,a3
   14da8:	e54e                	sd	s3,136(sp)
   14daa:	0ff7f793          	zext.b	a5,a5
   14dae:	01863983          	ld	s3,24(a2)
   14db2:	e152                	sd	s4,128(sp)
   14db4:	fcd6                	sd	s5,120(sp)
   14db6:	0185ba03          	ld	s4,24(a1)
   14dba:	00108a93          	addi	s5,ra,1
   14dbe:	0ff77593          	zext.b	a1,a4
   14dc2:	f8da                	sd	s6,112(sp)
   14dc4:	00140b13          	addi	s6,s0,1
   14dc8:	00bb3633          	sltu	a2,s6,a1
   14dcc:	00fab6b3          	sltu	a3,s5,a5
   14dd0:	e94a                	sd	s2,144(sp)
   14dd2:	01603e33          	snez	t3,s6
   14dd6:	01503933          	snez	s2,s5
   14dda:	ffeb1737          	lui	a4,0xffeb1
   14dde:	10370713          	addi	a4,a4,259 # ffffffffffeb1103 <__BSS_END__+0xffffffffffe779eb>
   14de2:	00ce6e33          	or	t3,t3,a2
   14de6:	00d96933          	or	s2,s2,a3
   14dea:	073e                	slli	a4,a4,0xf
   14dec:	2a001313          	bseti	t1,zero,0x20
   14df0:	0305                	addi	t1,t1,1
   14df2:	f4de                	sd	s7,104(sp)
   14df4:	0ffe7e13          	zext.b	t3,t3
   14df8:	006a0bb3          	add	s7,s4,t1
   14dfc:	0ff97913          	zext.b	s2,s2
   14e00:	934e                	add	t1,t1,s3
   14e02:	ed970713          	addi	a4,a4,-295
   14e06:	2a001693          	bseti	a3,zero,0x20
   14e0a:	fff6c693          	not	a3,a3
   14e0e:	f0e2                	sd	s8,96(sp)
   14e10:	00da3633          	sltu	a2,s4,a3
   14e14:	01233c33          	sltu	s8,t1,s2
   14e18:	ece6                	sd	s9,88(sp)
   14e1a:	00d9b6b3          	sltu	a3,s3,a3
   14e1e:	01cbbcb3          	sltu	s9,s7,t3
   14e22:	0736                	slli	a4,a4,0xd
   14e24:	01966633          	or	a2,a2,s9
   14e28:	0186e6b3          	or	a3,a3,s8
   14e2c:	8ab70713          	addi	a4,a4,-1877
   14e30:	00164613          	xori	a2,a2,1
   14e34:	073a                	slli	a4,a4,0xe
   14e36:	0016c693          	xori	a3,a3,1
   14e3a:	0ff67613          	zext.b	a2,a2
   14e3e:	edd70713          	addi	a4,a4,-291
   14e42:	0ff6f693          	zext.b	a3,a3
   14e46:	40c00c33          	neg	s8,a2
   14e4a:	40d00cb3          	neg	s9,a3
   14e4e:	167d                	addi	a2,a2,-1
   14e50:	16fd                	addi	a3,a3,-1
   14e52:	e8ea                	sd	s10,80(sp)
   14e54:	41180833          	sub	a6,a6,a7
   14e58:	00e38d33          	add	s10,t2,a4
   14e5c:	41d48eb3          	sub	t4,s1,t4
   14e60:	977e                	add	a4,a4,t6
   14e62:	40bb05b3          	sub	a1,s6,a1
   14e66:	41cb8e33          	sub	t3,s7,t3
   14e6a:	40fa87b3          	sub	a5,s5,a5
   14e6e:	41230333          	sub	t1,t1,s2
   14e72:	00c3f3b3          	and	t2,t2,a2
   14e76:	00c2f2b3          	and	t0,t0,a2
   14e7a:	8c71                	and	s0,s0,a2
   14e7c:	00dfffb3          	and	t6,t6,a3
   14e80:	00d0f0b3          	and	ra,ra,a3
   14e84:	0185f5b3          	and	a1,a1,s8
   14e88:	00ca7633          	and	a2,s4,a2
   14e8c:	01987833          	and	a6,a6,s9
   14e90:	00df7f33          	and	t5,t5,a3
   14e94:	00d9f9b3          	and	s3,s3,a3
   14e98:	018d7d33          	and	s10,s10,s8
   14e9c:	018efeb3          	and	t4,t4,s8
   14ea0:	018e7e33          	and	t3,t3,s8
   14ea4:	01977733          	and	a4,a4,s9
   14ea8:	0197f7b3          	and	a5,a5,s9
   14eac:	01937333          	and	t1,t1,s9
   14eb0:	0085e8b3          	or	a7,a1,s0
   14eb4:	00ce6e33          	or	t3,t3,a2
   14eb8:	01f76733          	or	a4,a4,t6
   14ebc:	01e866b3          	or	a3,a6,t5
   14ec0:	0017e7b3          	or	a5,a5,ra
   14ec4:	007d6d33          	or	s10,s10,t2
   14ec8:	005eeeb3          	or	t4,t4,t0
   14ecc:	01336333          	or	t1,t1,s3
   14ed0:	6475                	lui	s0,0x1d
   14ed2:	1030                	addi	a2,sp,40
   14ed4:	002c                	addi	a1,sp,8
   14ed6:	df043803          	ld	a6,-528(s0) # 1cdf0 <__stack_chk_guard@GLIBC_2.27>
   14eda:	e4c2                	sd	a6,72(sp)
   14edc:	4801                	li	a6,0
   14ede:	f43a                	sd	a4,40(sp)
   14ee0:	fc3e                	sd	a5,56(sp)
   14ee2:	e46a                	sd	s10,8(sp)
   14ee4:	e876                	sd	t4,16(sp)
   14ee6:	ec46                	sd	a7,24(sp)
   14ee8:	f072                	sd	t3,32(sp)
   14eea:	f836                	sd	a3,48(sp)
   14eec:	e09a                	sd	t1,64(sp)
   14eee:	8cfff0ef          	jal	147bc <fn_mont_mul_ct>
   14ef2:	6726                	ld	a4,72(sp)
   14ef4:	df043783          	ld	a5,-528(s0)
   14ef8:	8fb9                	xor	a5,a5,a4
   14efa:	4701                	li	a4,0
   14efc:	ef99                	bnez	a5,14f1a <fn_mont_mul_pub+0x20c>
   14efe:	70aa                	ld	ra,168(sp)
   14f00:	740a                	ld	s0,160(sp)
   14f02:	64ea                	ld	s1,152(sp)
   14f04:	694a                	ld	s2,144(sp)
   14f06:	69aa                	ld	s3,136(sp)
   14f08:	6a0a                	ld	s4,128(sp)
   14f0a:	7ae6                	ld	s5,120(sp)
   14f0c:	7b46                	ld	s6,112(sp)
   14f0e:	7ba6                	ld	s7,104(sp)
   14f10:	7c06                	ld	s8,96(sp)
   14f12:	6ce6                	ld	s9,88(sp)
   14f14:	6d46                	ld	s10,80(sp)
   14f16:	614d                	addi	sp,sp,176
   14f18:	8082                	ret
   14f1a:	ca7fb0ef          	jal	10bc0 <__stack_chk_fail@plt>

0000000000014f1e <fn_mont_sqr_pub>:
   14f1e:	0014f737          	lui	a4,0x14f
   14f22:	efd70713          	addi	a4,a4,-259 # 14eefd <__BSS_END__+0x1157e5>
   14f26:	073e                	slli	a4,a4,0xf
   14f28:	c6fe16b7          	lui	a3,0xc6fe1
   14f2c:	12770713          	addi	a4,a4,295
   14f30:	0692                	slli	a3,a3,0x4
   14f32:	3901f7b7          	lui	a5,0x3901f
   14f36:	0792                	slli	a5,a5,0x4
   14f38:	0736                	slli	a4,a4,0xd
   14f3a:	4a768693          	addi	a3,a3,1191 # ffffffffc6fe14a7 <__BSS_END__+0xffffffffc6fa7d8f>
   14f3e:	b5978793          	addi	a5,a5,-1191 # 3901eb59 <__BSS_END__+0x38fe5441>
   14f42:	0005be03          	ld	t3,0(a1)
   14f46:	75570713          	addi	a4,a4,1877
   14f4a:	06b2                	slli	a3,a3,0xc
   14f4c:	07b2                	slli	a5,a5,0xc
   14f4e:	0085b883          	ld	a7,8(a1)
   14f52:	073a                	slli	a4,a4,0xe
   14f54:	f1d68693          	addi	a3,a3,-227
   14f58:	0e378793          	addi	a5,a5,227
   14f5c:	12270713          	addi	a4,a4,290
   14f60:	06c6                	slli	a3,a3,0x11
   14f62:	07c6                	slli	a5,a5,0x11
   14f64:	01c73733          	sltu	a4,a4,t3
   14f68:	ad568693          	addi	a3,a3,-1323
   14f6c:	52a78793          	addi	a5,a5,1322
   14f70:	00174e93          	xori	t4,a4,1
   14f74:	00d88833          	add	a6,a7,a3
   14f78:	0105b303          	ld	t1,16(a1)
   14f7c:	0117b733          	sltu	a4,a5,a7
   14f80:	01d837b3          	sltu	a5,a6,t4
   14f84:	00173713          	seqz	a4,a4
   14f88:	0185bf03          	ld	t5,24(a1)
   14f8c:	8f5d                	or	a4,a4,a5
   14f8e:	00130593          	addi	a1,t1,1
   14f92:	0ff77713          	zext.b	a4,a4
   14f96:	00b03fb3          	snez	t6,a1
   14f9a:	00e5b6b3          	sltu	a3,a1,a4
   14f9e:	ffeb17b7          	lui	a5,0xffeb1
   14fa2:	10378793          	addi	a5,a5,259 # ffffffffffeb1103 <__BSS_END__+0xffffffffffe779eb>
   14fa6:	00dfefb3          	or	t6,t6,a3
   14faa:	07be                	slli	a5,a5,0xf
   14fac:	2a001693          	bseti	a3,zero,0x20
   14fb0:	0685                	addi	a3,a3,1
   14fb2:	0fffff93          	zext.b	t6,t6
   14fb6:	00df0633          	add	a2,t5,a3
   14fba:	ed978793          	addi	a5,a5,-295
   14fbe:	2a001693          	bseti	a3,zero,0x20
   14fc2:	fff6c693          	not	a3,a3
   14fc6:	01f632b3          	sltu	t0,a2,t6
   14fca:	00df36b3          	sltu	a3,t5,a3
   14fce:	07b6                	slli	a5,a5,0xd
   14fd0:	0056e6b3          	or	a3,a3,t0
   14fd4:	8ab78793          	addi	a5,a5,-1877
   14fd8:	0016c693          	xori	a3,a3,1
   14fdc:	07ba                	slli	a5,a5,0xe
   14fde:	0ff6f693          	zext.b	a3,a3
   14fe2:	edd78793          	addi	a5,a5,-291
   14fe6:	40d002b3          	neg	t0,a3
   14fea:	97f2                	add	a5,a5,t3
   14fec:	16fd                	addi	a3,a3,-1
   14fee:	41d80833          	sub	a6,a6,t4
   14ff2:	40e58733          	sub	a4,a1,a4
   14ff6:	41f60633          	sub	a2,a2,t6
   14ffa:	711d                	addi	sp,sp,-96
   14ffc:	00de7e33          	and	t3,t3,a3
   15000:	00d8f8b3          	and	a7,a7,a3
   15004:	00d37333          	and	t1,t1,a3
   15008:	00567633          	and	a2,a2,t0
   1500c:	0057f7b3          	and	a5,a5,t0
   15010:	00587833          	and	a6,a6,t0
   15014:	00577733          	and	a4,a4,t0
   15018:	00df7f33          	and	t5,t5,a3
   1501c:	01c7e7b3          	or	a5,a5,t3
   15020:	01186833          	or	a6,a6,a7
   15024:	00676733          	or	a4,a4,t1
   15028:	01e666b3          	or	a3,a2,t5
   1502c:	e8a2                	sd	s0,80(sp)
   1502e:	1030                	addi	a2,sp,40
   15030:	6475                	lui	s0,0x1d
   15032:	002c                	addi	a1,sp,8
   15034:	df043883          	ld	a7,-528(s0) # 1cdf0 <__stack_chk_guard@GLIBC_2.27>
   15038:	e4c6                	sd	a7,72(sp)
   1503a:	4881                	li	a7,0
   1503c:	e43e                	sd	a5,8(sp)
   1503e:	ec3a                	sd	a4,24(sp)
   15040:	f43e                	sd	a5,40(sp)
   15042:	fc3a                	sd	a4,56(sp)
   15044:	ec86                	sd	ra,88(sp)
   15046:	e842                	sd	a6,16(sp)
   15048:	f036                	sd	a3,32(sp)
   1504a:	f842                	sd	a6,48(sp)
   1504c:	e0b6                	sd	a3,64(sp)
   1504e:	f6eff0ef          	jal	147bc <fn_mont_mul_ct>
   15052:	6726                	ld	a4,72(sp)
   15054:	df043783          	ld	a5,-528(s0)
   15058:	8fb9                	xor	a5,a5,a4
   1505a:	4701                	li	a4,0
   1505c:	e789                	bnez	a5,15066 <fn_mont_sqr_pub+0x148>
   1505e:	60e6                	ld	ra,88(sp)
   15060:	6446                	ld	s0,80(sp)
   15062:	6125                	addi	sp,sp,96
   15064:	8082                	ret
   15066:	b5bfb0ef          	jal	10bc0 <__stack_chk_fail@plt>

000000000001506a <fn_x_dash_w127>:
   1506a:	7175                	addi	sp,sp,-144
   1506c:	6675                	lui	a2,0x1d
   1506e:	e122                	sd	s0,128(sp)
   15070:	df063783          	ld	a5,-528(a2) # 1cdf0 <__stack_chk_guard@GLIBC_2.27>
   15074:	f43e                	sd	a5,40(sp)
   15076:	4781                	li	a5,0
   15078:	ecd6                	sd	s5,88(sp)
   1507a:	0014f737          	lui	a4,0x14f
   1507e:	e8da                	sd	s6,80(sp)
   15080:	efd70713          	addi	a4,a4,-259 # 14eefd <__BSS_END__+0x1157e5>
   15084:	e4de                	sd	s7,72(sp)
   15086:	073e                	slli	a4,a4,0xf
   15088:	e0e2                	sd	s8,64(sp)
   1508a:	12770713          	addi	a4,a4,295
   1508e:	fc66                	sd	s9,56(sp)
   15090:	0736                	slli	a4,a4,0xd
   15092:	e506                	sd	ra,136(sp)
   15094:	75570713          	addi	a4,a4,1877
   15098:	fca6                	sd	s1,120(sp)
   1509a:	073a                	slli	a4,a4,0xe
   1509c:	f8ca                	sd	s2,112(sp)
   1509e:	12270713          	addi	a4,a4,290
   150a2:	f4ce                	sd	s3,104(sp)
   150a4:	f0d2                	sd	s4,96(sp)
   150a6:	0185c803          	lbu	a6,24(a1)
   150aa:	0195c303          	lbu	t1,25(a1)
   150ae:	0105c683          	lbu	a3,16(a1)
   150b2:	0115c883          	lbu	a7,17(a1)
   150b6:	0822                	slli	a6,a6,0x8
   150b8:	01a5cf83          	lbu	t6,26(a1)
   150bc:	00686833          	or	a6,a6,t1
   150c0:	0085c783          	lbu	a5,8(a1)
   150c4:	06a2                	slli	a3,a3,0x8
   150c6:	0125cf03          	lbu	t5,18(a1)
   150ca:	0116e6b3          	or	a3,a3,a7
   150ce:	0095c303          	lbu	t1,9(a1)
   150d2:	0822                	slli	a6,a6,0x8
   150d4:	01b5ce83          	lbu	t4,27(a1)
   150d8:	06a2                	slli	a3,a3,0x8
   150da:	0135ce03          	lbu	t3,19(a1)
   150de:	010fefb3          	or	t6,t6,a6
   150e2:	0005c883          	lbu	a7,0(a1)
   150e6:	00df6f33          	or	t5,t5,a3
   150ea:	00a5c803          	lbu	a6,10(a1)
   150ee:	0fa2                	slli	t6,t6,0x8
   150f0:	01c5c683          	lbu	a3,28(a1)
   150f4:	07a2                	slli	a5,a5,0x8
   150f6:	0015c283          	lbu	t0,1(a1)
   150fa:	0067e7b3          	or	a5,a5,t1
   150fe:	0f22                	slli	t5,t5,0x8
   15100:	0145c303          	lbu	t1,20(a1)
   15104:	01feeeb3          	or	t4,t4,t6
   15108:	01d5c983          	lbu	s3,29(a1)
   1510c:	00b5cf83          	lbu	t6,11(a1)
   15110:	07a2                	slli	a5,a5,0x8
   15112:	01ee6e33          	or	t3,t3,t5
   15116:	0ea2                	slli	t4,t4,0x8
   15118:	0025c903          	lbu	s2,2(a1)
   1511c:	00f86833          	or	a6,a6,a5
   15120:	0155c483          	lbu	s1,21(a1)
   15124:	01d6e7b3          	or	a5,a3,t4
   15128:	0e22                	slli	t3,t3,0x8
   1512a:	08a2                	slli	a7,a7,0x8
   1512c:	0035ca03          	lbu	s4,3(a1)
   15130:	0058e8b3          	or	a7,a7,t0
   15134:	00c5c403          	lbu	s0,12(a1)
   15138:	00881693          	slli	a3,a6,0x8
   1513c:	01c36333          	or	t1,t1,t3
   15140:	01e5c803          	lbu	a6,30(a1)
   15144:	07a2                	slli	a5,a5,0x8
   15146:	00dfeb33          	or	s6,t6,a3
   1514a:	00f9ecb3          	or	s9,s3,a5
   1514e:	00889b93          	slli	s7,a7,0x8
   15152:	00831c13          	slli	s8,t1,0x8
   15156:	0165c883          	lbu	a7,22(a1)
   1515a:	c6fe16b7          	lui	a3,0xc6fe1
   1515e:	3901f7b7          	lui	a5,0x3901f
   15162:	0692                	slli	a3,a3,0x4
   15164:	0792                	slli	a5,a5,0x4
   15166:	0065ce83          	lbu	t4,6(a1)
   1516a:	01796933          	or	s2,s2,s7
   1516e:	0075ce03          	lbu	t3,7(a1)
   15172:	0b22                	slli	s6,s6,0x8
   15174:	00e5cf83          	lbu	t6,14(a1)
   15178:	0184e4b3          	or	s1,s1,s8
   1517c:	00f5c303          	lbu	t1,15(a1)
   15180:	4a768693          	addi	a3,a3,1191 # ffffffffc6fe14a7 <__BSS_END__+0xffffffffc6fa7d8f>
   15184:	0045c283          	lbu	t0,4(a1)
   15188:	b5978793          	addi	a5,a5,-1191 # 3901eb59 <__BSS_END__+0x38fe5441>
   1518c:	0055cf03          	lbu	t5,5(a1)
   15190:	0922                	slli	s2,s2,0x8
   15192:	00d5c383          	lbu	t2,13(a1)
   15196:	01646433          	or	s0,s0,s6
   1519a:	0175c983          	lbu	s3,23(a1)
   1519e:	04a2                	slli	s1,s1,0x8
   151a0:	01f5ca83          	lbu	s5,31(a1)
   151a4:	008c9593          	slli	a1,s9,0x8
   151a8:	00b86833          	or	a6,a6,a1
   151ac:	06b2                	slli	a3,a3,0xc
   151ae:	07b2                	slli	a5,a5,0xc
   151b0:	012a65b3          	or	a1,s4,s2
   151b4:	0422                	slli	s0,s0,0x8
   151b6:	0098e8b3          	or	a7,a7,s1
   151ba:	0822                	slli	a6,a6,0x8
   151bc:	f1d68693          	addi	a3,a3,-227
   151c0:	0e378793          	addi	a5,a5,227
   151c4:	010ae833          	or	a6,s5,a6
   151c8:	05a2                	slli	a1,a1,0x8
   151ca:	0083e3b3          	or	t2,t2,s0
   151ce:	08a2                	slli	a7,a7,0x8
   151d0:	06c6                	slli	a3,a3,0x11
   151d2:	07c6                	slli	a5,a5,0x11
   151d4:	0119e8b3          	or	a7,s3,a7
   151d8:	00b2e2b3          	or	t0,t0,a1
   151dc:	01073733          	sltu	a4,a4,a6
   151e0:	03a2                	slli	t2,t2,0x8
   151e2:	ad568693          	addi	a3,a3,-1323
   151e6:	52a78793          	addi	a5,a5,1322
   151ea:	00174593          	xori	a1,a4,1
   151ee:	96c6                	add	a3,a3,a7
   151f0:	007fe733          	or	a4,t6,t2
   151f4:	0117b7b3          	sltu	a5,a5,a7
   151f8:	02a2                	slli	t0,t0,0x8
   151fa:	00b6bfb3          	sltu	t6,a3,a1
   151fe:	005f6f33          	or	t5,t5,t0
   15202:	0722                	slli	a4,a4,0x8
   15204:	0017b793          	seqz	a5,a5
   15208:	00e36733          	or	a4,t1,a4
   1520c:	0f22                	slli	t5,t5,0x8
   1520e:	01f7e7b3          	or	a5,a5,t6
   15212:	0705                	addi	a4,a4,1
   15214:	01eee333          	or	t1,t4,t5
   15218:	0ff7f793          	zext.b	a5,a5
   1521c:	00f737b3          	sltu	a5,a4,a5
   15220:	0322                	slli	t1,t1,0x8
   15222:	00e03733          	snez	a4,a4
   15226:	006e6333          	or	t1,t3,t1
   1522a:	8fd9                	or	a5,a5,a4
   1522c:	2a001e13          	bseti	t3,zero,0x20
   15230:	ffeb1737          	lui	a4,0xffeb1
   15234:	0e05                	addi	t3,t3,1
   15236:	10370713          	addi	a4,a4,259 # ffffffffffeb1103 <__BSS_END__+0xffffffffffe779eb>
   1523a:	9e1a                	add	t3,t3,t1
   1523c:	0ff7f793          	zext.b	a5,a5
   15240:	073e                	slli	a4,a4,0xf
   15242:	2a001e93          	bseti	t4,zero,0x20
   15246:	fffece93          	not	t4,t4
   1524a:	01d33333          	sltu	t1,t1,t4
   1524e:	00fe37b3          	sltu	a5,t3,a5
   15252:	ed970713          	addi	a4,a4,-295
   15256:	0067e7b3          	or	a5,a5,t1
   1525a:	0736                	slli	a4,a4,0xd
   1525c:	0017c793          	xori	a5,a5,1
   15260:	8ab70713          	addi	a4,a4,-1877
   15264:	0ff7f793          	zext.b	a5,a5
   15268:	073a                	slli	a4,a4,0xe
   1526a:	40f00333          	neg	t1,a5
   1526e:	edd70713          	addi	a4,a4,-291
   15272:	17fd                	addi	a5,a5,-1
   15274:	8e8d                	sub	a3,a3,a1
   15276:	0117f8b3          	and	a7,a5,a7
   1527a:	9742                	add	a4,a4,a6
   1527c:	0066f6b3          	and	a3,a3,t1
   15280:	0107f7b3          	and	a5,a5,a6
   15284:	00677733          	and	a4,a4,t1
   15288:	0116e6b3          	or	a3,a3,a7
   1528c:	8f5d                	or	a4,a4,a5
   1528e:	2bf69693          	bseti	a3,a3,0x3f
   15292:	e118                	sd	a4,0(a0)
   15294:	e514                	sd	a3,8(a0)
   15296:	7722                	ld	a4,40(sp)
   15298:	df063783          	ld	a5,-528(a2)
   1529c:	8fb9                	xor	a5,a5,a4
   1529e:	4701                	li	a4,0
   152a0:	00053823          	sd	zero,16(a0)
   152a4:	00053c23          	sd	zero,24(a0)
   152a8:	ef91                	bnez	a5,152c4 <fn_x_dash_w127+0x25a>
   152aa:	60aa                	ld	ra,136(sp)
   152ac:	640a                	ld	s0,128(sp)
   152ae:	74e6                	ld	s1,120(sp)
   152b0:	7946                	ld	s2,112(sp)
   152b2:	79a6                	ld	s3,104(sp)
   152b4:	7a06                	ld	s4,96(sp)
   152b6:	6ae6                	ld	s5,88(sp)
   152b8:	6b46                	ld	s6,80(sp)
   152ba:	6ba6                	ld	s7,72(sp)
   152bc:	6c06                	ld	s8,64(sp)
   152be:	7ce2                	ld	s9,56(sp)
   152c0:	6149                	addi	sp,sp,144
   152c2:	8082                	ret
   152c4:	8fdfb0ef          	jal	10bc0 <__stack_chk_fail@plt>

00000000000152c8 <fn_compute_t>:
   152c8:	7109                	addi	sp,sp,-384
   152ca:	0014f8b7          	lui	a7,0x14f
   152ce:	fe86                	sd	ra,376(sp)
   152d0:	efd88893          	addi	a7,a7,-259 # 14eefd <__BSS_END__+0x1157e5>
   152d4:	faa2                	sd	s0,368(sp)
   152d6:	08be                	slli	a7,a7,0xf
   152d8:	f6a6                	sd	s1,360(sp)
   152da:	12788893          	addi	a7,a7,295
   152de:	f2ca                	sd	s2,352(sp)
   152e0:	08b6                	slli	a7,a7,0xd
   152e2:	eece                	sd	s3,344(sp)
   152e4:	75588893          	addi	a7,a7,1877
   152e8:	ead2                	sd	s4,336(sp)
   152ea:	6a75                	lui	s4,0x1d
   152ec:	e6d6                	sd	s5,328(sp)
   152ee:	df0a3783          	ld	a5,-528(s4) # 1cdf0 <__stack_chk_guard@GLIBC_2.27>
   152f2:	e63e                	sd	a5,264(sp)
   152f4:	4781                	li	a5,0
   152f6:	e2da                	sd	s6,320(sp)
   152f8:	08ba                	slli	a7,a7,0xe
   152fa:	ee6e                	sd	s11,280(sp)
   152fc:	12288893          	addi	a7,a7,290
   15300:	fe5e                	sd	s7,312(sp)
   15302:	fa62                	sd	s8,304(sp)
   15304:	f666                	sd	s9,296(sp)
   15306:	f26a                	sd	s10,288(sp)
   15308:	0185c803          	lbu	a6,24(a1)
   1530c:	0195ce03          	lbu	t3,25(a1)
   15310:	0105c703          	lbu	a4,16(a1)
   15314:	0115c303          	lbu	t1,17(a1)
   15318:	0822                	slli	a6,a6,0x8
   1531a:	01a5c283          	lbu	t0,26(a1)
   1531e:	01c86833          	or	a6,a6,t3
   15322:	0085c783          	lbu	a5,8(a1)
   15326:	0722                	slli	a4,a4,0x8
   15328:	0125cf83          	lbu	t6,18(a1)
   1532c:	00676733          	or	a4,a4,t1
   15330:	0095c383          	lbu	t2,9(a1)
   15334:	0822                	slli	a6,a6,0x8
   15336:	01b5ce83          	lbu	t4,27(a1)
   1533a:	0722                	slli	a4,a4,0x8
   1533c:	0135ce03          	lbu	t3,19(a1)
   15340:	0102e2b3          	or	t0,t0,a6
   15344:	0005c303          	lbu	t1,0(a1)
   15348:	00efefb3          	or	t6,t6,a4
   1534c:	00a5c803          	lbu	a6,10(a1)
   15350:	02a2                	slli	t0,t0,0x8
   15352:	01c5c703          	lbu	a4,28(a1)
   15356:	07a2                	slli	a5,a5,0x8
   15358:	0015cf03          	lbu	t5,1(a1)
   1535c:	0077e7b3          	or	a5,a5,t2
   15360:	0145cd03          	lbu	s10,20(a1)
   15364:	0fa2                	slli	t6,t6,0x8
   15366:	005eeeb3          	or	t4,t4,t0
   1536a:	00b5cc83          	lbu	s9,11(a1)
   1536e:	01d5cc03          	lbu	s8,29(a1)
   15372:	01fe6e33          	or	t3,t3,t6
   15376:	07a2                	slli	a5,a5,0x8
   15378:	0ea2                	slli	t4,t4,0x8
   1537a:	0025cb83          	lbu	s7,2(a1)
   1537e:	00f86833          	or	a6,a6,a5
   15382:	0155ca83          	lbu	s5,21(a1)
   15386:	008e1793          	slli	a5,t3,0x8
   1538a:	01d76733          	or	a4,a4,t4
   1538e:	0322                	slli	t1,t1,0x8
   15390:	00c5c903          	lbu	s2,12(a1)
   15394:	01e36333          	or	t1,t1,t5
   15398:	01e5c983          	lbu	s3,30(a1)
   1539c:	0822                	slli	a6,a6,0x8
   1539e:	00fd6d33          	or	s10,s10,a5
   153a2:	0722                	slli	a4,a4,0x8
   153a4:	0035c403          	lbu	s0,3(a1)
   153a8:	0322                	slli	t1,t1,0x8
   153aa:	0165c483          	lbu	s1,22(a1)
   153ae:	010cecb3          	or	s9,s9,a6
   153b2:	0d22                	slli	s10,s10,0x8
   153b4:	00ec6c33          	or	s8,s8,a4
   153b8:	3901f837          	lui	a6,0x3901f
   153bc:	c6fe1737          	lui	a4,0xc6fe1
   153c0:	0812                	slli	a6,a6,0x4
   153c2:	0712                	slli	a4,a4,0x4
   153c4:	0045cf83          	lbu	t6,4(a1)
   153c8:	0ca2                	slli	s9,s9,0x8
   153ca:	0055ce03          	lbu	t3,5(a1)
   153ce:	01aaeab3          	or	s5,s5,s10
   153d2:	0065c783          	lbu	a5,6(a1)
   153d6:	0c22                	slli	s8,s8,0x8
   153d8:	0075cf03          	lbu	t5,7(a1)
   153dc:	4a770713          	addi	a4,a4,1191 # ffffffffc6fe14a7 <__BSS_END__+0xffffffffc6fa7d8f>
   153e0:	00d5c083          	lbu	ra,13(a1)
   153e4:	b5980813          	addi	a6,a6,-1191 # 3901eb59 <__BSS_END__+0x38fe5441>
   153e8:	00e5ce83          	lbu	t4,14(a1)
   153ec:	0aa2                	slli	s5,s5,0x8
   153ee:	00f5cb03          	lbu	s6,15(a1)
   153f2:	0732                	slli	a4,a4,0xc
   153f4:	0175c283          	lbu	t0,23(a1)
   153f8:	0832                	slli	a6,a6,0xc
   153fa:	01f5c383          	lbu	t2,31(a1)
   153fe:	006be5b3          	or	a1,s7,t1
   15402:	05a2                	slli	a1,a1,0x8
   15404:	01996333          	or	t1,s2,s9
   15408:	0189e933          	or	s2,s3,s8
   1540c:	8dc1                	or	a1,a1,s0
   1540e:	0322                	slli	t1,t1,0x8
   15410:	0154e433          	or	s0,s1,s5
   15414:	f1d70713          	addi	a4,a4,-227
   15418:	00891493          	slli	s1,s2,0x8
   1541c:	0e380813          	addi	a6,a6,227
   15420:	0093e3b3          	or	t2,t2,s1
   15424:	0060e333          	or	t1,ra,t1
   15428:	05a2                	slli	a1,a1,0x8
   1542a:	00841093          	slli	ra,s0,0x8
   1542e:	0746                	slli	a4,a4,0x11
   15430:	0846                	slli	a6,a6,0x11
   15432:	0012e2b3          	or	t0,t0,ra
   15436:	52a80813          	addi	a6,a6,1322
   1543a:	ad570713          	addi	a4,a4,-1323
   1543e:	00bfe5b3          	or	a1,t6,a1
   15442:	0322                	slli	t1,t1,0x8
   15444:	0078bfb3          	sltu	t6,a7,t2
   15448:	00e280b3          	add	ra,t0,a4
   1544c:	001fcf93          	xori	t6,t6,1
   15450:	006ee333          	or	t1,t4,t1
   15454:	05a2                	slli	a1,a1,0x8
   15456:	00583eb3          	sltu	t4,a6,t0
   1545a:	00be65b3          	or	a1,t3,a1
   1545e:	0322                	slli	t1,t1,0x8
   15460:	01f0be33          	sltu	t3,ra,t6
   15464:	001ebe93          	seqz	t4,t4
   15468:	006b6b33          	or	s6,s6,t1
   1546c:	01ceeeb3          	or	t4,t4,t3
   15470:	05a2                	slli	a1,a1,0x8
   15472:	001b0493          	addi	s1,s6,1
   15476:	0ffefe93          	zext.b	t4,t4
   1547a:	8ddd                	or	a1,a1,a5
   1547c:	01d4be33          	sltu	t3,s1,t4
   15480:	00903333          	snez	t1,s1
   15484:	05a2                	slli	a1,a1,0x8
   15486:	01c36333          	or	t1,t1,t3
   1548a:	00bf6c33          	or	s8,t5,a1
   1548e:	2a001f13          	bseti	t5,zero,0x20
   15492:	0f05                	addi	t5,t5,1
   15494:	0ff37313          	zext.b	t1,t1
   15498:	01ec0933          	add	s2,s8,t5
   1549c:	2a001593          	bseti	a1,zero,0x20
   154a0:	fff5c593          	not	a1,a1
   154a4:	00693433          	sltu	s0,s2,t1
   154a8:	00bc3e33          	sltu	t3,s8,a1
   154ac:	ffeb17b7          	lui	a5,0xffeb1
   154b0:	008e6e33          	or	t3,t3,s0
   154b4:	10378793          	addi	a5,a5,259 # ffffffffffeb1103 <__BSS_END__+0xffffffffffe779eb>
   154b8:	07be                	slli	a5,a5,0xf
   154ba:	001e4e13          	xori	t3,t3,1
   154be:	0ffe7e13          	zext.b	t3,t3
   154c2:	ed978793          	addi	a5,a5,-295
   154c6:	41c00cb3          	neg	s9,t3
   154ca:	40690933          	sub	s2,s2,t1
   154ce:	1e7d                	addi	t3,t3,-1
   154d0:	07b6                	slli	a5,a5,0xd
   154d2:	007e7333          	and	t1,t3,t2
   154d6:	005e72b3          	and	t0,t3,t0
   154da:	016e7b33          	and	s6,t3,s6
   154de:	01997933          	and	s2,s2,s9
   154e2:	018e7e33          	and	t3,t3,s8
   154e6:	8ab78793          	addi	a5,a5,-1877
   154ea:	01864b83          	lbu	s7,24(a2)
   154ee:	41f089b3          	sub	s3,ra,t6
   154f2:	01c96933          	or	s2,s2,t3
   154f6:	07ba                	slli	a5,a5,0xe
   154f8:	00464e03          	lbu	t3,4(a2)
   154fc:	edd78793          	addi	a5,a5,-291
   15500:	0199f9b3          	and	s3,s3,s9
   15504:	00f38433          	add	s0,t2,a5
   15508:	0059e9b3          	or	s3,s3,t0
   1550c:	41d484b3          	sub	s1,s1,t4
   15510:	00564283          	lbu	t0,5(a2)
   15514:	01947433          	and	s0,s0,s9
   15518:	01064083          	lbu	ra,16(a2)
   1551c:	0194f4b3          	and	s1,s1,s9
   15520:	e472                	sd	t3,8(sp)
   15522:	008b9e13          	slli	t3,s7,0x8
   15526:	00664b83          	lbu	s7,6(a2)
   1552a:	00646433          	or	s0,s0,t1
   1552e:	01164383          	lbu	t2,17(a2)
   15532:	0164e4b3          	or	s1,s1,s6
   15536:	e4a2                	sd	s0,72(sp)
   15538:	01964a83          	lbu	s5,25(a2)
   1553c:	e816                	sd	t0,16(sp)
   1553e:	00164303          	lbu	t1,1(a2)
   15542:	e8ce                	sd	s3,80(sp)
   15544:	00264c83          	lbu	s9,2(a2)
   15548:	eca6                	sd	s1,88(sp)
   1554a:	00364b03          	lbu	s6,3(a2)
   1554e:	f0ca                	sd	s2,96(sp)
   15550:	00064e83          	lbu	t4,0(a2)
   15554:	00a2                	slli	ra,ra,0x8
   15556:	ec5e                	sd	s7,24(sp)
   15558:	00864283          	lbu	t0,8(a2)
   1555c:	0070e0b3          	or	ra,ra,t2
   15560:	00964383          	lbu	t2,9(a2)
   15564:	00a2                	slli	ra,ra,0x8
   15566:	00a64f83          	lbu	t6,10(a2)
   1556a:	0ea2                	slli	t4,t4,0x8
   1556c:	02a2                	slli	t0,t0,0x8
   1556e:	00e64d03          	lbu	s10,14(a2)
   15572:	0072e2b3          	or	t0,t0,t2
   15576:	00f64383          	lbu	t2,15(a2)
   1557a:	02a2                	slli	t0,t0,0x8
   1557c:	015e6e33          	or	t3,t3,s5
   15580:	005fefb3          	or	t6,t6,t0
   15584:	01364283          	lbu	t0,19(a2)
   15588:	fc1e                	sd	t2,56(sp)
   1558a:	01264383          	lbu	t2,18(a2)
   1558e:	006eeeb3          	or	t4,t4,t1
   15592:	01464303          	lbu	t1,20(a2)
   15596:	00764c03          	lbu	s8,7(a2)
   1559a:	f86a                	sd	s10,48(sp)
   1559c:	0013e3b3          	or	t2,t2,ra
   155a0:	01b64d03          	lbu	s10,27(a2)
   155a4:	03a2                	slli	t2,t2,0x8
   155a6:	0e22                	slli	t3,t3,0x8
   155a8:	0072e3b3          	or	t2,t0,t2
   155ac:	01a64283          	lbu	t0,26(a2)
   155b0:	03a2                	slli	t2,t2,0x8
   155b2:	00d64a83          	lbu	s5,13(a2)
   155b6:	00736333          	or	t1,t1,t2
   155ba:	01c64383          	lbu	t2,28(a2)
   155be:	01c2e2b3          	or	t0,t0,t3
   155c2:	00b64d83          	lbu	s11,11(a2)
   155c6:	02a2                	slli	t0,t0,0x8
   155c8:	f062                	sd	s8,32(sp)
   155ca:	005d62b3          	or	t0,s10,t0
   155ce:	01564c03          	lbu	s8,21(a2)
   155d2:	01d64e03          	lbu	t3,29(a2)
   155d6:	02a2                	slli	t0,t0,0x8
   155d8:	f456                	sd	s5,40(sp)
   155da:	0053e3b3          	or	t2,t2,t0
   155de:	01664a83          	lbu	s5,22(a2)
   155e2:	0fa2                	slli	t6,t6,0x8
   155e4:	0322                	slli	t1,t1,0x8
   155e6:	00c64b83          	lbu	s7,12(a2)
   155ea:	01fdefb3          	or	t6,s11,t6
   155ee:	03a2                	slli	t2,t2,0x8
   155f0:	01e64d83          	lbu	s11,30(a2)
   155f4:	006c6333          	or	t1,s8,t1
   155f8:	007e6e33          	or	t3,t3,t2
   155fc:	0322                	slli	t1,t1,0x8
   155fe:	01764083          	lbu	ra,23(a2)
   15602:	006ae333          	or	t1,s5,t1
   15606:	01f64603          	lbu	a2,31(a2)
   1560a:	0fa2                	slli	t6,t6,0x8
   1560c:	7aa2                	ld	s5,40(sp)
   1560e:	0e22                	slli	t3,t3,0x8
   15610:	01fbefb3          	or	t6,s7,t6
   15614:	0ea2                	slli	t4,t4,0x8
   15616:	01cdee33          	or	t3,s11,t3
   1561a:	01dceeb3          	or	t4,s9,t4
   1561e:	0fa2                	slli	t6,t6,0x8
   15620:	0e22                	slli	t3,t3,0x8
   15622:	01c66e33          	or	t3,a2,t3
   15626:	0ea2                	slli	t4,t4,0x8
   15628:	01fae633          	or	a2,s5,t6
   1562c:	6fa2                	ld	t6,8(sp)
   1562e:	01db6eb3          	or	t4,s6,t4
   15632:	62c2                	ld	t0,16(sp)
   15634:	0ea2                	slli	t4,t4,0x8
   15636:	7d42                	ld	s10,48(sp)
   15638:	01dfeeb3          	or	t4,t6,t4
   1563c:	0322                	slli	t1,t1,0x8
   1563e:	0ea2                	slli	t4,t4,0x8
   15640:	0060e333          	or	t1,ra,t1
   15644:	0622                	slli	a2,a2,0x8
   15646:	01c8b8b3          	sltu	a7,a7,t3
   1564a:	01d2eeb3          	or	t4,t0,t4
   1564e:	72e2                	ld	t0,56(sp)
   15650:	0018c893          	xori	a7,a7,1
   15654:	6be2                	ld	s7,24(sp)
   15656:	971a                	add	a4,a4,t1
   15658:	00cd6fb3          	or	t6,s10,a2
   1565c:	00683633          	sltu	a2,a6,t1
   15660:	008f9813          	slli	a6,t6,0x8
   15664:	00163613          	seqz	a2,a2
   15668:	01173fb3          	sltu	t6,a4,a7
   1566c:	7382                	ld	t2,32(sp)
   1566e:	0102e833          	or	a6,t0,a6
   15672:	01f66633          	or	a2,a2,t6
   15676:	0ea2                	slli	t4,t4,0x8
   15678:	00180c13          	addi	s8,a6,1
   1567c:	0ff67613          	zext.b	a2,a2
   15680:	01dbeeb3          	or	t4,s7,t4
   15684:	00cc32b3          	sltu	t0,s8,a2
   15688:	01803fb3          	snez	t6,s8
   1568c:	0ea2                	slli	t4,t4,0x8
   1568e:	01d3eeb3          	or	t4,t2,t4
   15692:	005fefb3          	or	t6,t6,t0
   15696:	9f76                	add	t5,t5,t4
   15698:	0fffff93          	zext.b	t6,t6
   1569c:	01ff32b3          	sltu	t0,t5,t6
   156a0:	00beb5b3          	sltu	a1,t4,a1
   156a4:	0055e5b3          	or	a1,a1,t0
   156a8:	40cc0c33          	sub	s8,s8,a2
   156ac:	0015c593          	xori	a1,a1,1
   156b0:	41170733          	sub	a4,a4,a7
   156b4:	0ff5f613          	zext.b	a2,a1
   156b8:	41ff0f33          	sub	t5,t5,t6
   156bc:	40c005b3          	neg	a1,a2
   156c0:	97f2                	add	a5,a5,t3
   156c2:	167d                	addi	a2,a2,-1
   156c4:	8fed                	and	a5,a5,a1
   156c6:	01c67e33          	and	t3,a2,t3
   156ca:	8f6d                	and	a4,a4,a1
   156cc:	00667333          	and	t1,a2,t1
   156d0:	01067833          	and	a6,a2,a6
   156d4:	00bf7f33          	and	t5,t5,a1
   156d8:	01d67633          	and	a2,a2,t4
   156dc:	00bc7c33          	and	s8,s8,a1
   156e0:	00676cb3          	or	s9,a4,t1
   156e4:	00cf6b33          	or	s6,t5,a2
   156e8:	01c7eab3          	or	s5,a5,t3
   156ec:	010c6c33          	or	s8,s8,a6
   156f0:	85b6                	mv	a1,a3
   156f2:	8baa                	mv	s7,a0
   156f4:	10b0                	addi	a2,sp,104
   156f6:	0128                	addi	a0,sp,136
   156f8:	f4d6                	sd	s5,104(sp)
   156fa:	f8e6                	sd	s9,112(sp)
   156fc:	01346433          	or	s0,s0,s3
   15700:	fce2                	sd	s8,120(sp)
   15702:	8c45                	or	s0,s0,s1
   15704:	e15a                	sd	s6,128(sp)
   15706:	924ff0ef          	jal	1482a <fn_mul>
   1570a:	0130                	addi	a2,sp,136
   1570c:	00ac                	addi	a1,sp,72
   1570e:	1128                	addi	a0,sp,168
   15710:	01246433          	or	s0,s0,s2
   15714:	fb6fe0ef          	jal	13eca <fn_add>
   15718:	00803433          	snez	s0,s0
   1571c:	76ca                	ld	a3,176(sp)
   1571e:	019ae7b3          	or	a5,s5,s9
   15722:	772a                	ld	a4,168(sp)
   15724:	0187e7b3          	or	a5,a5,s8
   15728:	0167e7b3          	or	a5,a5,s6
   1572c:	112c                	addi	a1,sp,168
   1572e:	00f037b3          	snez	a5,a5
   15732:	01a8                	addi	a0,sp,200
   15734:	8f55                	or	a4,a4,a3
   15736:	76ea                	ld	a3,184(sp)
   15738:	8f55                	or	a4,a4,a3
   1573a:	668e                	ld	a3,192(sp)
   1573c:	8f55                	or	a4,a4,a3
   1573e:	00e03733          	snez	a4,a4
   15742:	8ff9                	and	a5,a5,a4
   15744:	8c7d                	and	s0,s0,a5
   15746:	f62fe0ef          	jal	13ea8 <fn_to_be>
   1574a:	4080073b          	negw	a4,s0
   1574e:	f582                	sd	zero,232(sp)
   15750:	007bf793          	andi	a5,s7,7
   15754:	f982                	sd	zero,240(sp)
   15756:	fd82                	sd	zero,248(sp)
   15758:	0ff77713          	zext.b	a4,a4
   1575c:	e202                	sd	zero,256(sp)
   1575e:	efa5                	bnez	a5,157d6 <fn_compute_t+0x50e>
   15760:	00871793          	slli	a5,a4,0x8
   15764:	01071693          	slli	a3,a4,0x10
   15768:	8fd9                	or	a5,a5,a4
   1576a:	01871613          	slli	a2,a4,0x18
   1576e:	8fd5                	or	a5,a5,a3
   15770:	02071693          	slli	a3,a4,0x20
   15774:	8fd1                	or	a5,a5,a2
   15776:	02871613          	slli	a2,a4,0x28
   1577a:	8fd5                	or	a5,a5,a3
   1577c:	03071693          	slli	a3,a4,0x30
   15780:	8fd1                	or	a5,a5,a2
   15782:	1762                	slli	a4,a4,0x38
   15784:	8fd5                	or	a5,a5,a3
   15786:	662e                	ld	a2,200(sp)
   15788:	8fd9                	or	a5,a5,a4
   1578a:	66ce                	ld	a3,208(sp)
   1578c:	676e                	ld	a4,216(sp)
   1578e:	758e                	ld	a1,224(sp)
   15790:	8e7d                	and	a2,a2,a5
   15792:	8efd                	and	a3,a3,a5
   15794:	00cbb023          	sd	a2,0(s7)
   15798:	8f7d                	and	a4,a4,a5
   1579a:	00dbb423          	sd	a3,8(s7)
   1579e:	8fed                	and	a5,a5,a1
   157a0:	00ebb823          	sd	a4,16(s7)
   157a4:	00fbbc23          	sd	a5,24(s7)
   157a8:	6732                	ld	a4,264(sp)
   157aa:	df0a3783          	ld	a5,-528(s4)
   157ae:	8fb9                	xor	a5,a5,a4
   157b0:	4701                	li	a4,0
   157b2:	0004051b          	sext.w	a0,s0
   157b6:	e3b1                	bnez	a5,157fa <fn_compute_t+0x532>
   157b8:	70f6                	ld	ra,376(sp)
   157ba:	7456                	ld	s0,368(sp)
   157bc:	74b6                	ld	s1,360(sp)
   157be:	7916                	ld	s2,352(sp)
   157c0:	69f6                	ld	s3,344(sp)
   157c2:	6a56                	ld	s4,336(sp)
   157c4:	6ab6                	ld	s5,328(sp)
   157c6:	6b16                	ld	s6,320(sp)
   157c8:	7bf2                	ld	s7,312(sp)
   157ca:	7c52                	ld	s8,304(sp)
   157cc:	7cb2                	ld	s9,296(sp)
   157ce:	7d12                	ld	s10,288(sp)
   157d0:	6df2                	ld	s11,280(sp)
   157d2:	6119                	addi	sp,sp,384
   157d4:	8082                	ret
   157d6:	11ac                	addi	a1,sp,232
   157d8:	01b4                	addi	a3,sp,200
   157da:	852e                	mv	a0,a1
   157dc:	0005c603          	lbu	a2,0(a1)
   157e0:	0b85                	addi	s7,s7,1
   157e2:	0006c783          	lbu	a5,0(a3)
   157e6:	0685                	addi	a3,a3,1
   157e8:	0585                	addi	a1,a1,1
   157ea:	8fb1                	xor	a5,a5,a2
   157ec:	8ff9                	and	a5,a5,a4
   157ee:	8e3d                	xor	a2,a2,a5
   157f0:	fecb8fa3          	sb	a2,-1(s7)
   157f4:	fea694e3          	bne	a3,a0,157dc <fn_compute_t+0x514>
   157f8:	bf45                	j	157a8 <fn_compute_t+0x4e0>
   157fa:	bc6fb0ef          	jal	10bc0 <__stack_chk_fail@plt>

00000000000157fe <sm2_jacobian_cmov_local>:
   157fe:	6194                	ld	a3,0(a1)
   15800:	080607bb          	zext.w	a5,a2
   15804:	40f00733          	neg	a4,a5
   15808:	0085b303          	ld	t1,8(a1)
   1580c:	00053803          	ld	a6,0(a0)
   15810:	17fd                	addi	a5,a5,-1
   15812:	6510                	ld	a2,8(a0)
   15814:	00d77e33          	and	t3,a4,a3
   15818:	0105b883          	ld	a7,16(a1)
   1581c:	00677333          	and	t1,a4,t1
   15820:	6914                	ld	a3,16(a0)
   15822:	0107f833          	and	a6,a5,a6
   15826:	8e7d                	and	a2,a2,a5
   15828:	01c86833          	or	a6,a6,t3
   1582c:	00666633          	or	a2,a2,t1
   15830:	011778b3          	and	a7,a4,a7
   15834:	8efd                	and	a3,a3,a5
   15836:	0185bf03          	ld	t5,24(a1)
   1583a:	01053023          	sd	a6,0(a0)
   1583e:	0116e6b3          	or	a3,a3,a7
   15842:	e510                	sd	a2,8(a0)
   15844:	01853883          	ld	a7,24(a0)
   15848:	0205be83          	ld	t4,32(a1)
   1584c:	e914                	sd	a3,16(a0)
   1584e:	0285be03          	ld	t3,40(a1)
   15852:	01e77f33          	and	t5,a4,t5
   15856:	02053803          	ld	a6,32(a0)
   1585a:	0117f8b3          	and	a7,a5,a7
   1585e:	7510                	ld	a2,40(a0)
   15860:	01d77eb3          	and	t4,a4,t4
   15864:	0305b303          	ld	t1,48(a1)
   15868:	01c77e33          	and	t3,a4,t3
   1586c:	7914                	ld	a3,48(a0)
   1586e:	01e8e8b3          	or	a7,a7,t5
   15872:	0107f833          	and	a6,a5,a6
   15876:	8e7d                	and	a2,a2,a5
   15878:	01d86833          	or	a6,a6,t4
   1587c:	01c66633          	or	a2,a2,t3
   15880:	00677333          	and	t1,a4,t1
   15884:	01153c23          	sd	a7,24(a0)
   15888:	8efd                	and	a3,a3,a5
   1588a:	0385bf03          	ld	t5,56(a1)
   1588e:	0066e6b3          	or	a3,a3,t1
   15892:	03053023          	sd	a6,32(a0)
   15896:	f510                	sd	a2,40(a0)
   15898:	0405b803          	ld	a6,64(a1)
   1589c:	65b0                	ld	a2,72(a1)
   1589e:	f914                	sd	a3,48(a0)
   158a0:	03853883          	ld	a7,56(a0)
   158a4:	01e77f33          	and	t5,a4,t5
   158a8:	04053e83          	ld	t4,64(a0)
   158ac:	01077833          	and	a6,a4,a6
   158b0:	04853e03          	ld	t3,72(a0)
   158b4:	8e79                	and	a2,a2,a4
   158b6:	0505b303          	ld	t1,80(a1)
   158ba:	0117f8b3          	and	a7,a5,a7
   158be:	6934                	ld	a3,80(a0)
   158c0:	01d7feb3          	and	t4,a5,t4
   158c4:	01c7fe33          	and	t3,a5,t3
   158c8:	01e8e8b3          	or	a7,a7,t5
   158cc:	01c66633          	or	a2,a2,t3
   158d0:	00677333          	and	t1,a4,t1
   158d4:	8efd                	and	a3,a3,a5
   158d6:	01d86833          	or	a6,a6,t4
   158da:	0066e6b3          	or	a3,a3,t1
   158de:	e530                	sd	a2,72(a0)
   158e0:	03153c23          	sd	a7,56(a0)
   158e4:	05053023          	sd	a6,64(a0)
   158e8:	e934                	sd	a3,80(a0)
   158ea:	6d30                	ld	a2,88(a0)
   158ec:	6db4                	ld	a3,88(a1)
   158ee:	8ff1                	and	a5,a5,a2
   158f0:	8f75                	and	a4,a4,a3
   158f2:	8fd9                	or	a5,a5,a4
   158f4:	ed3c                	sd	a5,88(a0)
   158f6:	8082                	ret

00000000000158f8 <sm2_curve_init_once_mont.part.0>:
   158f8:	7155                	addi	sp,sp,-208
   158fa:	e1a2                	sd	s0,192(sp)
   158fc:	0028                	addi	a0,sp,8
   158fe:	fd26                	sd	s1,184(sp)
   15900:	6469                	lui	s0,0x1a
   15902:	64f5                	lui	s1,0x1d
   15904:	03840593          	addi	a1,s0,56 # 1a038 <SM2_A_BYTES>
   15908:	df04b783          	ld	a5,-528(s1) # 1cdf0 <__stack_chk_guard@GLIBC_2.27>
   1590c:	f53e                	sd	a5,168(sp)
   1590e:	4781                	li	a5,0
   15910:	e586                	sd	ra,200(sp)
   15912:	03840413          	addi	s0,s0,56
   15916:	badfd0ef          	jal	134c2 <fp_from_bytes>
   1591a:	02040593          	addi	a1,s0,32
   1591e:	1028                	addi	a0,sp,40
   15920:	ba3fd0ef          	jal	134c2 <fp_from_bytes>
   15924:	04040593          	addi	a1,s0,64
   15928:	00a8                	addi	a0,sp,72
   1592a:	b99fd0ef          	jal	134c2 <fp_from_bytes>
   1592e:	06040593          	addi	a1,s0,96
   15932:	10a8                	addi	a0,sp,104
   15934:	b8ffd0ef          	jal	134c2 <fp_from_bytes>
   15938:	002c                	addi	a1,sp,8
   1593a:	82818513          	addi	a0,gp,-2008 # 1d0d8 <SM2_A_MONT>
   1593e:	43a030ef          	jal	18d78 <fp_to_mont>
   15942:	82818413          	addi	s0,gp,-2008 # 1d0d8 <SM2_A_MONT>
   15946:	102c                	addi	a1,sp,40
   15948:	02040513          	addi	a0,s0,32
   1594c:	42c030ef          	jal	18d78 <fp_to_mont>
   15950:	00ac                	addi	a1,sp,72
   15952:	04040513          	addi	a0,s0,64
   15956:	422030ef          	jal	18d78 <fp_to_mont>
   1595a:	10ac                	addi	a1,sp,104
   1595c:	06040513          	addi	a0,s0,96
   15960:	418030ef          	jal	18d78 <fp_to_mont>
   15964:	0128                	addi	a0,sp,136
   15966:	af3fd0ef          	jal	13458 <fp_set_zero>
   1596a:	4789                	li	a5,2
   1596c:	012c                	addi	a1,sp,136
   1596e:	08040513          	addi	a0,s0,128
   15972:	e53e                	sd	a5,136(sp)
   15974:	404030ef          	jal	18d78 <fp_to_mont>
   15978:	0128                	addi	a0,sp,136
   1597a:	adffd0ef          	jal	13458 <fp_set_zero>
   1597e:	478d                	li	a5,3
   15980:	012c                	addi	a1,sp,136
   15982:	0a040513          	addi	a0,s0,160
   15986:	e53e                	sd	a5,136(sp)
   15988:	3f0030ef          	jal	18d78 <fp_to_mont>
   1598c:	0128                	addi	a0,sp,136
   1598e:	acbfd0ef          	jal	13458 <fp_set_zero>
   15992:	47a1                	li	a5,8
   15994:	012c                	addi	a1,sp,136
   15996:	0c040513          	addi	a0,s0,192
   1599a:	e53e                	sd	a5,136(sp)
   1599c:	3dc030ef          	jal	18d78 <fp_to_mont>
   159a0:	772a                	ld	a4,168(sp)
   159a2:	df04b783          	ld	a5,-528(s1)
   159a6:	8fb9                	xor	a5,a5,a4
   159a8:	4701                	li	a4,0
   159aa:	4685                	li	a3,1
   159ac:	80d1aa23          	sw	a3,-2028(gp) # 1d0c4 <g_sm2_curve_mont_inited>
   159b0:	e791                	bnez	a5,159bc <sm2_curve_init_once_mont.part.0+0xc4>
   159b2:	60ae                	ld	ra,200(sp)
   159b4:	640e                	ld	s0,192(sp)
   159b6:	74ea                	ld	s1,184(sp)
   159b8:	6169                	addi	sp,sp,208
   159ba:	8082                	ret
   159bc:	a04fb0ef          	jal	10bc0 <__stack_chk_fail@plt>

00000000000159c0 <sm2_affine_is_infinity>:
   159c0:	4128                	lw	a0,64(a0)
   159c2:	00a03533          	snez	a0,a0
   159c6:	8082                	ret

00000000000159c8 <sm2_jacobian_is_infinity>:
   159c8:	04050513          	addi	a0,a0,64
   159cc:	ab1fd06f          	j	1347c <fp_is_zero>

00000000000159d0 <sm2_jacobian_set_infinity>:
   159d0:	1141                	addi	sp,sp,-16
   159d2:	e406                	sd	ra,8(sp)
   159d4:	e022                	sd	s0,0(sp)
   159d6:	842a                	mv	s0,a0
   159d8:	a81fd0ef          	jal	13458 <fp_set_zero>
   159dc:	02040513          	addi	a0,s0,32
   159e0:	a8bfd0ef          	jal	1346a <fp_set_one>
   159e4:	04040513          	addi	a0,s0,64
   159e8:	6402                	ld	s0,0(sp)
   159ea:	60a2                	ld	ra,8(sp)
   159ec:	0141                	addi	sp,sp,16
   159ee:	a6bfd06f          	j	13458 <fp_set_zero>

00000000000159f2 <sm2_curve_init_once_mont>:
   159f2:	8141a783          	lw	a5,-2028(gp) # 1d0c4 <g_sm2_curve_mont_inited>
   159f6:	c391                	beqz	a5,159fa <sm2_curve_init_once_mont+0x8>
   159f8:	8082                	ret
   159fa:	bdfd                	j	158f8 <sm2_curve_init_once_mont.part.0>

00000000000159fc <sm2_curve_init_once>:
   159fc:	8141a783          	lw	a5,-2028(gp) # 1d0c4 <g_sm2_curve_mont_inited>
   15a00:	c391                	beqz	a5,15a04 <sm2_curve_init_once+0x8>
   15a02:	8082                	ret
   15a04:	bdd5                	j	158f8 <sm2_curve_init_once_mont.part.0>

0000000000015a06 <sm2_get_base_affine>:
   15a06:	8141a783          	lw	a5,-2028(gp) # 1d0c4 <g_sm2_curve_mont_inited>
   15a0a:	1101                	addi	sp,sp,-32
   15a0c:	e822                	sd	s0,16(sp)
   15a0e:	842a                	mv	s0,a0
   15a10:	ec06                	sd	ra,24(sp)
   15a12:	e426                	sd	s1,8(sp)
   15a14:	e399                	bnez	a5,15a1a <sm2_get_base_affine+0x14>
   15a16:	ee3ff0ef          	jal	158f8 <sm2_curve_init_once_mont.part.0>
   15a1a:	82818493          	addi	s1,gp,-2008 # 1d0d8 <SM2_A_MONT>
   15a1e:	04048593          	addi	a1,s1,64
   15a22:	8522                	mv	a0,s0
   15a24:	167030ef          	jal	1938a <fp_from_mont>
   15a28:	06048593          	addi	a1,s1,96
   15a2c:	02040513          	addi	a0,s0,32
   15a30:	15b030ef          	jal	1938a <fp_from_mont>
   15a34:	04042023          	sw	zero,64(s0)
   15a38:	60e2                	ld	ra,24(sp)
   15a3a:	6442                	ld	s0,16(sp)
   15a3c:	64a2                	ld	s1,8(sp)
   15a3e:	6105                	addi	sp,sp,32
   15a40:	8082                	ret

0000000000015a42 <sm2_get_base_affine_mont>:
   15a42:	8141a783          	lw	a5,-2028(gp) # 1d0c4 <g_sm2_curve_mont_inited>
   15a46:	1101                	addi	sp,sp,-32
   15a48:	e822                	sd	s0,16(sp)
   15a4a:	842a                	mv	s0,a0
   15a4c:	ec06                	sd	ra,24(sp)
   15a4e:	e426                	sd	s1,8(sp)
   15a50:	e399                	bnez	a5,15a56 <sm2_get_base_affine_mont+0x14>
   15a52:	ea7ff0ef          	jal	158f8 <sm2_curve_init_once_mont.part.0>
   15a56:	82818493          	addi	s1,gp,-2008 # 1d0d8 <SM2_A_MONT>
   15a5a:	04048593          	addi	a1,s1,64
   15a5e:	8522                	mv	a0,s0
   15a60:	9e7fd0ef          	jal	13446 <fp_copy>
   15a64:	06048593          	addi	a1,s1,96
   15a68:	02040513          	addi	a0,s0,32
   15a6c:	9dbfd0ef          	jal	13446 <fp_copy>
   15a70:	04042023          	sw	zero,64(s0)
   15a74:	60e2                	ld	ra,24(sp)
   15a76:	6442                	ld	s0,16(sp)
   15a78:	64a2                	ld	s1,8(sp)
   15a7a:	6105                	addi	sp,sp,32
   15a7c:	8082                	ret

0000000000015a7e <sm2_affine_to_mont>:
   15a7e:	41bc                	lw	a5,64(a1)
   15a80:	1101                	addi	sp,sp,-32
   15a82:	e426                	sd	s1,8(sp)
   15a84:	84aa                	mv	s1,a0
   15a86:	ec06                	sd	ra,24(sp)
   15a88:	e395                	bnez	a5,15aac <sm2_affine_to_mont+0x2e>
   15a8a:	e822                	sd	s0,16(sp)
   15a8c:	842e                	mv	s0,a1
   15a8e:	2ea030ef          	jal	18d78 <fp_to_mont>
   15a92:	02040593          	addi	a1,s0,32
   15a96:	02048513          	addi	a0,s1,32
   15a9a:	2de030ef          	jal	18d78 <fp_to_mont>
   15a9e:	403c                	lw	a5,64(s0)
   15aa0:	60e2                	ld	ra,24(sp)
   15aa2:	6442                	ld	s0,16(sp)
   15aa4:	c0bc                	sw	a5,64(s1)
   15aa6:	64a2                	ld	s1,8(sp)
   15aa8:	6105                	addi	sp,sp,32
   15aaa:	8082                	ret
   15aac:	9adfd0ef          	jal	13458 <fp_set_zero>
   15ab0:	02048513          	addi	a0,s1,32
   15ab4:	9a5fd0ef          	jal	13458 <fp_set_zero>
   15ab8:	60e2                	ld	ra,24(sp)
   15aba:	4785                	li	a5,1
   15abc:	c0bc                	sw	a5,64(s1)
   15abe:	64a2                	ld	s1,8(sp)
   15ac0:	6105                	addi	sp,sp,32
   15ac2:	8082                	ret

0000000000015ac4 <sm2_affine_from_mont>:
   15ac4:	41bc                	lw	a5,64(a1)
   15ac6:	1101                	addi	sp,sp,-32
   15ac8:	e426                	sd	s1,8(sp)
   15aca:	84aa                	mv	s1,a0
   15acc:	ec06                	sd	ra,24(sp)
   15ace:	e395                	bnez	a5,15af2 <sm2_affine_from_mont+0x2e>
   15ad0:	e822                	sd	s0,16(sp)
   15ad2:	842e                	mv	s0,a1
   15ad4:	0b7030ef          	jal	1938a <fp_from_mont>
   15ad8:	02040593          	addi	a1,s0,32
   15adc:	02048513          	addi	a0,s1,32
   15ae0:	0ab030ef          	jal	1938a <fp_from_mont>
   15ae4:	403c                	lw	a5,64(s0)
   15ae6:	60e2                	ld	ra,24(sp)
   15ae8:	6442                	ld	s0,16(sp)
   15aea:	c0bc                	sw	a5,64(s1)
   15aec:	64a2                	ld	s1,8(sp)
   15aee:	6105                	addi	sp,sp,32
   15af0:	8082                	ret
   15af2:	967fd0ef          	jal	13458 <fp_set_zero>
   15af6:	02048513          	addi	a0,s1,32
   15afa:	95ffd0ef          	jal	13458 <fp_set_zero>
   15afe:	60e2                	ld	ra,24(sp)
   15b00:	4785                	li	a5,1
   15b02:	c0bc                	sw	a5,64(s1)
   15b04:	64a2                	ld	s1,8(sp)
   15b06:	6105                	addi	sp,sp,32
   15b08:	8082                	ret

0000000000015b0a <sm2_jacobian_set_infinity_mont>:
   15b0a:	8141a783          	lw	a5,-2028(gp) # 1d0c4 <g_sm2_curve_mont_inited>
   15b0e:	1141                	addi	sp,sp,-16
   15b10:	e022                	sd	s0,0(sp)
   15b12:	842a                	mv	s0,a0
   15b14:	e406                	sd	ra,8(sp)
   15b16:	e399                	bnez	a5,15b1c <sm2_jacobian_set_infinity_mont+0x12>
   15b18:	de1ff0ef          	jal	158f8 <sm2_curve_init_once_mont.part.0>
   15b1c:	8522                	mv	a0,s0
   15b1e:	93bfd0ef          	jal	13458 <fp_set_zero>
   15b22:	02040513          	addi	a0,s0,32
   15b26:	65e9                	lui	a1,0x1a
   15b28:	f1858593          	addi	a1,a1,-232 # 19f18 <FP_MONT_ONE>
   15b2c:	91bfd0ef          	jal	13446 <fp_copy>
   15b30:	04040513          	addi	a0,s0,64
   15b34:	6402                	ld	s0,0(sp)
   15b36:	60a2                	ld	ra,8(sp)
   15b38:	0141                	addi	sp,sp,16
   15b3a:	91ffd06f          	j	13458 <fp_set_zero>

0000000000015b3e <sm2_affine_to_jacobian_mont>:
   15b3e:	8141a783          	lw	a5,-2028(gp) # 1d0c4 <g_sm2_curve_mont_inited>
   15b42:	715d                	addi	sp,sp,-80
   15b44:	e0a2                	sd	s0,64(sp)
   15b46:	842a                	mv	s0,a0
   15b48:	fc26                	sd	s1,56(sp)
   15b4a:	84ae                	mv	s1,a1
   15b4c:	f84a                	sd	s2,48(sp)
   15b4e:	6975                	lui	s2,0x1d
   15b50:	e486                	sd	ra,72(sp)
   15b52:	df093703          	ld	a4,-528(s2) # 1cdf0 <__stack_chk_guard@GLIBC_2.27>
   15b56:	f43a                	sd	a4,40(sp)
   15b58:	4701                	li	a4,0
   15b5a:	e399                	bnez	a5,15b60 <sm2_affine_to_jacobian_mont+0x22>
   15b5c:	d9dff0ef          	jal	158f8 <sm2_curve_init_once_mont.part.0>
   15b60:	85a6                	mv	a1,s1
   15b62:	8522                	mv	a0,s0
   15b64:	214030ef          	jal	18d78 <fp_to_mont>
   15b68:	02048593          	addi	a1,s1,32
   15b6c:	02040513          	addi	a0,s0,32
   15b70:	208030ef          	jal	18d78 <fp_to_mont>
   15b74:	0028                	addi	a0,sp,8
   15b76:	8e3fd0ef          	jal	13458 <fp_set_zero>
   15b7a:	04040513          	addi	a0,s0,64
   15b7e:	65e9                	lui	a1,0x1a
   15b80:	f1858593          	addi	a1,a1,-232 # 19f18 <FP_MONT_ONE>
   15b84:	8c3fd0ef          	jal	13446 <fp_copy>
   15b88:	40bc                	lw	a5,64(s1)
   15b8a:	7722                	ld	a4,40(sp)
   15b8c:	df093303          	ld	t1,-528(s2)
   15b90:	00674333          	xor	t1,a4,t1
   15b94:	4701                	li	a4,0
   15b96:	05843e03          	ld	t3,88(s0)
   15b9a:	04043883          	ld	a7,64(s0)
   15b9e:	6430                	ld	a2,72(s0)
   15ba0:	8b85                	andi	a5,a5,1
   15ba2:	6834                	ld	a3,80(s0)
   15ba4:	40f00733          	neg	a4,a5
   15ba8:	17fd                	addi	a5,a5,-1
   15baa:	65a2                	ld	a1,8(sp)
   15bac:	0117f8b3          	and	a7,a5,a7
   15bb0:	8e7d                	and	a2,a2,a5
   15bb2:	8efd                	and	a3,a3,a5
   15bb4:	6842                	ld	a6,16(sp)
   15bb6:	01c7f7b3          	and	a5,a5,t3
   15bba:	6562                	ld	a0,24(sp)
   15bbc:	7e02                	ld	t3,32(sp)
   15bbe:	8df9                	and	a1,a1,a4
   15bc0:	01077833          	and	a6,a4,a6
   15bc4:	0115e5b3          	or	a1,a1,a7
   15bc8:	8d79                	and	a0,a0,a4
   15bca:	01066633          	or	a2,a2,a6
   15bce:	01c77733          	and	a4,a4,t3
   15bd2:	8ec9                	or	a3,a3,a0
   15bd4:	8fd9                	or	a5,a5,a4
   15bd6:	e02c                	sd	a1,64(s0)
   15bd8:	e430                	sd	a2,72(s0)
   15bda:	e834                	sd	a3,80(s0)
   15bdc:	ec3c                	sd	a5,88(s0)
   15bde:	00031863          	bnez	t1,15bee <sm2_affine_to_jacobian_mont+0xb0>
   15be2:	60a6                	ld	ra,72(sp)
   15be4:	6406                	ld	s0,64(sp)
   15be6:	74e2                	ld	s1,56(sp)
   15be8:	7942                	ld	s2,48(sp)
   15bea:	6161                	addi	sp,sp,80
   15bec:	8082                	ret
   15bee:	fd3fa0ef          	jal	10bc0 <__stack_chk_fail@plt>

0000000000015bf2 <sm2_affine_mont_to_jacobian_mont>:
   15bf2:	8141a783          	lw	a5,-2028(gp) # 1d0c4 <g_sm2_curve_mont_inited>
   15bf6:	715d                	addi	sp,sp,-80
   15bf8:	e0a2                	sd	s0,64(sp)
   15bfa:	842a                	mv	s0,a0
   15bfc:	fc26                	sd	s1,56(sp)
   15bfe:	84ae                	mv	s1,a1
   15c00:	f84a                	sd	s2,48(sp)
   15c02:	6975                	lui	s2,0x1d
   15c04:	e486                	sd	ra,72(sp)
   15c06:	df093703          	ld	a4,-528(s2) # 1cdf0 <__stack_chk_guard@GLIBC_2.27>
   15c0a:	f43a                	sd	a4,40(sp)
   15c0c:	4701                	li	a4,0
   15c0e:	e399                	bnez	a5,15c14 <sm2_affine_mont_to_jacobian_mont+0x22>
   15c10:	ce9ff0ef          	jal	158f8 <sm2_curve_init_once_mont.part.0>
   15c14:	85a6                	mv	a1,s1
   15c16:	8522                	mv	a0,s0
   15c18:	82ffd0ef          	jal	13446 <fp_copy>
   15c1c:	02048593          	addi	a1,s1,32
   15c20:	02040513          	addi	a0,s0,32
   15c24:	823fd0ef          	jal	13446 <fp_copy>
   15c28:	0028                	addi	a0,sp,8
   15c2a:	82ffd0ef          	jal	13458 <fp_set_zero>
   15c2e:	04040513          	addi	a0,s0,64
   15c32:	65e9                	lui	a1,0x1a
   15c34:	f1858593          	addi	a1,a1,-232 # 19f18 <FP_MONT_ONE>
   15c38:	80ffd0ef          	jal	13446 <fp_copy>
   15c3c:	40bc                	lw	a5,64(s1)
   15c3e:	7722                	ld	a4,40(sp)
   15c40:	df093303          	ld	t1,-528(s2)
   15c44:	00674333          	xor	t1,a4,t1
   15c48:	4701                	li	a4,0
   15c4a:	05843e03          	ld	t3,88(s0)
   15c4e:	04043883          	ld	a7,64(s0)
   15c52:	6430                	ld	a2,72(s0)
   15c54:	8b85                	andi	a5,a5,1
   15c56:	6834                	ld	a3,80(s0)
   15c58:	40f00733          	neg	a4,a5
   15c5c:	17fd                	addi	a5,a5,-1
   15c5e:	65a2                	ld	a1,8(sp)
   15c60:	0117f8b3          	and	a7,a5,a7
   15c64:	8e7d                	and	a2,a2,a5
   15c66:	8efd                	and	a3,a3,a5
   15c68:	6842                	ld	a6,16(sp)
   15c6a:	01c7f7b3          	and	a5,a5,t3
   15c6e:	6562                	ld	a0,24(sp)
   15c70:	7e02                	ld	t3,32(sp)
   15c72:	8df9                	and	a1,a1,a4
   15c74:	01077833          	and	a6,a4,a6
   15c78:	0115e5b3          	or	a1,a1,a7
   15c7c:	8d79                	and	a0,a0,a4
   15c7e:	01066633          	or	a2,a2,a6
   15c82:	01c77733          	and	a4,a4,t3
   15c86:	8ec9                	or	a3,a3,a0
   15c88:	8fd9                	or	a5,a5,a4
   15c8a:	e02c                	sd	a1,64(s0)
   15c8c:	e430                	sd	a2,72(s0)
   15c8e:	e834                	sd	a3,80(s0)
   15c90:	ec3c                	sd	a5,88(s0)
   15c92:	00031863          	bnez	t1,15ca2 <sm2_affine_mont_to_jacobian_mont+0xb0>
   15c96:	60a6                	ld	ra,72(sp)
   15c98:	6406                	ld	s0,64(sp)
   15c9a:	74e2                	ld	s1,56(sp)
   15c9c:	7942                	ld	s2,48(sp)
   15c9e:	6161                	addi	sp,sp,80
   15ca0:	8082                	ret
   15ca2:	f1ffa0ef          	jal	10bc0 <__stack_chk_fail@plt>

0000000000015ca6 <sm2_jacobian_mont_to_affine_mont>:
   15ca6:	8141a783          	lw	a5,-2028(gp) # 1d0c4 <g_sm2_curve_mont_inited>
   15caa:	7125                	addi	sp,sp,-416
   15cac:	e34a                	sd	s2,384(sp)
   15cae:	892a                	mv	s2,a0
   15cb0:	fece                	sd	s3,376(sp)
   15cb2:	89ae                	mv	s3,a1
   15cb4:	f6d6                	sd	s5,360(sp)
   15cb6:	6af5                	lui	s5,0x1d
   15cb8:	ef06                	sd	ra,408(sp)
   15cba:	df0ab703          	ld	a4,-528(s5) # 1cdf0 <__stack_chk_guard@GLIBC_2.27>
   15cbe:	eeba                	sd	a4,344(sp)
   15cc0:	4701                	li	a4,0
   15cc2:	eb22                	sd	s0,400(sp)
   15cc4:	e726                	sd	s1,392(sp)
   15cc6:	fad2                	sd	s4,368(sp)
   15cc8:	e399                	bnez	a5,15cce <sm2_jacobian_mont_to_affine_mont+0x28>
   15cca:	c2fff0ef          	jal	158f8 <sm2_curve_init_once_mont.part.0>
   15cce:	0409ba03          	ld	s4,64(s3)
   15cd2:	04098593          	addi	a1,s3,64
   15cd6:	0489b683          	ld	a3,72(s3)
   15cda:	0028                	addi	a0,sp,8
   15cdc:	0509b703          	ld	a4,80(s3)
   15ce0:	0589b783          	ld	a5,88(s3)
   15ce4:	00da6a33          	or	s4,s4,a3
   15ce8:	00ea6a33          	or	s4,s4,a4
   15cec:	00fa6a33          	or	s4,s4,a5
   15cf0:	f56fd0ef          	jal	13446 <fp_copy>
   15cf4:	67a2                	ld	a5,8(sp)
   15cf6:	001a3493          	seqz	s1,s4
   15cfa:	fff48413          	addi	s0,s1,-1
   15cfe:	4701                	li	a4,0
   15d00:	8fe1                	and	a5,a5,s0
   15d02:	c481                	beqz	s1,15d0a <sm2_jacobian_mont_to_affine_mont+0x64>
   15d04:	6769                	lui	a4,0x1a
   15d06:	f1873703          	ld	a4,-232(a4) # 19f18 <FP_MONT_ONE>
   15d0a:	8fd9                	or	a5,a5,a4
   15d0c:	4701                	li	a4,0
   15d0e:	e43e                	sd	a5,8(sp)
   15d10:	67c2                	ld	a5,16(sp)
   15d12:	8fe1                	and	a5,a5,s0
   15d14:	c481                	beqz	s1,15d1c <sm2_jacobian_mont_to_affine_mont+0x76>
   15d16:	6769                	lui	a4,0x1a
   15d18:	f2073703          	ld	a4,-224(a4) # 19f20 <FP_MONT_ONE+0x8>
   15d1c:	8fd9                	or	a5,a5,a4
   15d1e:	4701                	li	a4,0
   15d20:	e83e                	sd	a5,16(sp)
   15d22:	67e2                	ld	a5,24(sp)
   15d24:	8fe1                	and	a5,a5,s0
   15d26:	c481                	beqz	s1,15d2e <sm2_jacobian_mont_to_affine_mont+0x88>
   15d28:	6769                	lui	a4,0x1a
   15d2a:	f2873703          	ld	a4,-216(a4) # 19f28 <FP_MONT_ONE+0x10>
   15d2e:	8fd9                	or	a5,a5,a4
   15d30:	4701                	li	a4,0
   15d32:	ec3e                	sd	a5,24(sp)
   15d34:	7782                	ld	a5,32(sp)
   15d36:	8fe1                	and	a5,a5,s0
   15d38:	c481                	beqz	s1,15d40 <sm2_jacobian_mont_to_affine_mont+0x9a>
   15d3a:	6769                	lui	a4,0x1a
   15d3c:	f3073703          	ld	a4,-208(a4) # 19f30 <FP_MONT_ONE+0x18>
   15d40:	8fd9                	or	a5,a5,a4
   15d42:	002c                	addi	a1,sp,8
   15d44:	1028                	addi	a0,sp,40
   15d46:	f03e                	sd	a5,32(sp)
   15d48:	ca7fd0ef          	jal	139ee <fp_mont_inv>
   15d4c:	102c                	addi	a1,sp,40
   15d4e:	00a8                	addi	a0,sp,72
   15d50:	17d020ef          	jal	186cc <fp_mont_sqr>
   15d54:	1030                	addi	a2,sp,40
   15d56:	00ac                	addi	a1,sp,72
   15d58:	10a8                	addi	a0,sp,104
   15d5a:	426020ef          	jal	18180 <fp_mont_mul>
   15d5e:	00b0                	addi	a2,sp,72
   15d60:	85ce                	mv	a1,s3
   15d62:	0128                	addi	a0,sp,136
   15d64:	41c020ef          	jal	18180 <fp_mont_mul>
   15d68:	10b0                	addi	a2,sp,104
   15d6a:	02098593          	addi	a1,s3,32
   15d6e:	1128                	addi	a0,sp,168
   15d70:	410020ef          	jal	18180 <fp_mont_mul>
   15d74:	012c                	addi	a1,sp,136
   15d76:	01a8                	addi	a0,sp,200
   15d78:	ecefd0ef          	jal	13446 <fp_copy>
   15d7c:	112c                	addi	a1,sp,168
   15d7e:	11a8                	addi	a0,sp,232
   15d80:	ec6fd0ef          	jal	13446 <fp_copy>
   15d84:	10012423          	sw	zero,264(sp)
   15d88:	0a08                	addi	a0,sp,272
   15d8a:	ecefd0ef          	jal	13458 <fp_set_zero>
   15d8e:	1a08                	addi	a0,sp,304
   15d90:	ec8fd0ef          	jal	13458 <fp_set_zero>
   15d94:	4781                	li	a5,0
   15d96:	c091                	beqz	s1,15d9a <sm2_jacobian_mont_to_affine_mont+0xf4>
   15d98:	67d2                	ld	a5,272(sp)
   15d9a:	672e                	ld	a4,200(sp)
   15d9c:	4681                	li	a3,0
   15d9e:	8f61                	and	a4,a4,s0
   15da0:	8f5d                	or	a4,a4,a5
   15da2:	67ce                	ld	a5,208(sp)
   15da4:	e5ba                	sd	a4,200(sp)
   15da6:	8fe1                	and	a5,a5,s0
   15da8:	c091                	beqz	s1,15dac <sm2_jacobian_mont_to_affine_mont+0x106>
   15daa:	66f2                	ld	a3,280(sp)
   15dac:	8fd5                	or	a5,a5,a3
   15dae:	4701                	li	a4,0
   15db0:	e9be                	sd	a5,208(sp)
   15db2:	67ee                	ld	a5,216(sp)
   15db4:	8fe1                	and	a5,a5,s0
   15db6:	c091                	beqz	s1,15dba <sm2_jacobian_mont_to_affine_mont+0x114>
   15db8:	7712                	ld	a4,288(sp)
   15dba:	8fd9                	or	a5,a5,a4
   15dbc:	4701                	li	a4,0
   15dbe:	edbe                	sd	a5,216(sp)
   15dc0:	778e                	ld	a5,224(sp)
   15dc2:	8fe1                	and	a5,a5,s0
   15dc4:	c091                	beqz	s1,15dc8 <sm2_jacobian_mont_to_affine_mont+0x122>
   15dc6:	7732                	ld	a4,296(sp)
   15dc8:	8fd9                	or	a5,a5,a4
   15dca:	4681                	li	a3,0
   15dcc:	f1be                	sd	a5,224(sp)
   15dce:	c091                	beqz	s1,15dd2 <sm2_jacobian_mont_to_affine_mont+0x12c>
   15dd0:	76d2                	ld	a3,304(sp)
   15dd2:	77ae                	ld	a5,232(sp)
   15dd4:	4701                	li	a4,0
   15dd6:	8fe1                	and	a5,a5,s0
   15dd8:	8edd                	or	a3,a3,a5
   15dda:	f5b6                	sd	a3,232(sp)
   15ddc:	c091                	beqz	s1,15de0 <sm2_jacobian_mont_to_affine_mont+0x13a>
   15dde:	7772                	ld	a4,312(sp)
   15de0:	76ce                	ld	a3,240(sp)
   15de2:	4781                	li	a5,0
   15de4:	8ee1                	and	a3,a3,s0
   15de6:	8f55                	or	a4,a4,a3
   15de8:	f9ba                	sd	a4,240(sp)
   15dea:	c091                	beqz	s1,15dee <sm2_jacobian_mont_to_affine_mont+0x148>
   15dec:	6796                	ld	a5,320(sp)
   15dee:	776e                	ld	a4,248(sp)
   15df0:	4681                	li	a3,0
   15df2:	8f61                	and	a4,a4,s0
   15df4:	8fd9                	or	a5,a5,a4
   15df6:	6712                	ld	a4,256(sp)
   15df8:	fdbe                	sd	a5,248(sp)
   15dfa:	8c79                	and	s0,s0,a4
   15dfc:	c091                	beqz	s1,15e00 <sm2_jacobian_mont_to_affine_mont+0x15a>
   15dfe:	66b6                	ld	a3,328(sp)
   15e00:	8c55                	or	s0,s0,a3
   15e02:	e222                	sd	s0,256(sp)
   15e04:	000a1563          	bnez	s4,15e0e <sm2_jacobian_mont_to_affine_mont+0x168>
   15e08:	4785                	li	a5,1
   15e0a:	10f12423          	sw	a5,264(sp)
   15e0e:	6776                	ld	a4,344(sp)
   15e10:	df0ab783          	ld	a5,-528(s5)
   15e14:	8fb9                	xor	a5,a5,a4
   15e16:	4701                	li	a4,0
   15e18:	672e                	ld	a4,200(sp)
   15e1a:	00e93023          	sd	a4,0(s2)
   15e1e:	674e                	ld	a4,208(sp)
   15e20:	00e93423          	sd	a4,8(s2)
   15e24:	676e                	ld	a4,216(sp)
   15e26:	00e93823          	sd	a4,16(s2)
   15e2a:	770e                	ld	a4,224(sp)
   15e2c:	00e93c23          	sd	a4,24(s2)
   15e30:	772e                	ld	a4,232(sp)
   15e32:	02e93023          	sd	a4,32(s2)
   15e36:	774e                	ld	a4,240(sp)
   15e38:	02e93423          	sd	a4,40(s2)
   15e3c:	776e                	ld	a4,248(sp)
   15e3e:	02e93823          	sd	a4,48(s2)
   15e42:	6712                	ld	a4,256(sp)
   15e44:	02e93c23          	sd	a4,56(s2)
   15e48:	6732                	ld	a4,264(sp)
   15e4a:	04e93023          	sd	a4,64(s2)
   15e4e:	eb91                	bnez	a5,15e62 <sm2_jacobian_mont_to_affine_mont+0x1bc>
   15e50:	60fa                	ld	ra,408(sp)
   15e52:	645a                	ld	s0,400(sp)
   15e54:	64ba                	ld	s1,392(sp)
   15e56:	691a                	ld	s2,384(sp)
   15e58:	79f6                	ld	s3,376(sp)
   15e5a:	7a56                	ld	s4,368(sp)
   15e5c:	7ab6                	ld	s5,360(sp)
   15e5e:	611d                	addi	sp,sp,416
   15e60:	8082                	ret
   15e62:	d5ffa0ef          	jal	10bc0 <__stack_chk_fail@plt>

0000000000015e66 <sm2_jacobian_to_affine_mont>:
   15e66:	8141a783          	lw	a5,-2028(gp) # 1d0c4 <g_sm2_curve_mont_inited>
   15e6a:	7125                	addi	sp,sp,-416
   15e6c:	e34a                	sd	s2,384(sp)
   15e6e:	892a                	mv	s2,a0
   15e70:	fece                	sd	s3,376(sp)
   15e72:	89ae                	mv	s3,a1
   15e74:	f6d6                	sd	s5,360(sp)
   15e76:	6af5                	lui	s5,0x1d
   15e78:	ef06                	sd	ra,408(sp)
   15e7a:	df0ab703          	ld	a4,-528(s5) # 1cdf0 <__stack_chk_guard@GLIBC_2.27>
   15e7e:	eeba                	sd	a4,344(sp)
   15e80:	4701                	li	a4,0
   15e82:	eb22                	sd	s0,400(sp)
   15e84:	e726                	sd	s1,392(sp)
   15e86:	fad2                	sd	s4,368(sp)
   15e88:	e399                	bnez	a5,15e8e <sm2_jacobian_to_affine_mont+0x28>
   15e8a:	a6fff0ef          	jal	158f8 <sm2_curve_init_once_mont.part.0>
   15e8e:	0409ba03          	ld	s4,64(s3)
   15e92:	04098593          	addi	a1,s3,64
   15e96:	0489b683          	ld	a3,72(s3)
   15e9a:	0028                	addi	a0,sp,8
   15e9c:	0509b703          	ld	a4,80(s3)
   15ea0:	0589b783          	ld	a5,88(s3)
   15ea4:	00da6a33          	or	s4,s4,a3
   15ea8:	00ea6a33          	or	s4,s4,a4
   15eac:	00fa6a33          	or	s4,s4,a5
   15eb0:	d96fd0ef          	jal	13446 <fp_copy>
   15eb4:	67a2                	ld	a5,8(sp)
   15eb6:	001a3493          	seqz	s1,s4
   15eba:	fff48413          	addi	s0,s1,-1
   15ebe:	4701                	li	a4,0
   15ec0:	8fe1                	and	a5,a5,s0
   15ec2:	c481                	beqz	s1,15eca <sm2_jacobian_to_affine_mont+0x64>
   15ec4:	6769                	lui	a4,0x1a
   15ec6:	f1873703          	ld	a4,-232(a4) # 19f18 <FP_MONT_ONE>
   15eca:	8fd9                	or	a5,a5,a4
   15ecc:	4701                	li	a4,0
   15ece:	e43e                	sd	a5,8(sp)
   15ed0:	67c2                	ld	a5,16(sp)
   15ed2:	8fe1                	and	a5,a5,s0
   15ed4:	c481                	beqz	s1,15edc <sm2_jacobian_to_affine_mont+0x76>
   15ed6:	6769                	lui	a4,0x1a
   15ed8:	f2073703          	ld	a4,-224(a4) # 19f20 <FP_MONT_ONE+0x8>
   15edc:	8fd9                	or	a5,a5,a4
   15ede:	4701                	li	a4,0
   15ee0:	e83e                	sd	a5,16(sp)
   15ee2:	67e2                	ld	a5,24(sp)
   15ee4:	8fe1                	and	a5,a5,s0
   15ee6:	c481                	beqz	s1,15eee <sm2_jacobian_to_affine_mont+0x88>
   15ee8:	6769                	lui	a4,0x1a
   15eea:	f2873703          	ld	a4,-216(a4) # 19f28 <FP_MONT_ONE+0x10>
   15eee:	8fd9                	or	a5,a5,a4
   15ef0:	4701                	li	a4,0
   15ef2:	ec3e                	sd	a5,24(sp)
   15ef4:	7782                	ld	a5,32(sp)
   15ef6:	8fe1                	and	a5,a5,s0
   15ef8:	c481                	beqz	s1,15f00 <sm2_jacobian_to_affine_mont+0x9a>
   15efa:	6769                	lui	a4,0x1a
   15efc:	f3073703          	ld	a4,-208(a4) # 19f30 <FP_MONT_ONE+0x18>
   15f00:	8fd9                	or	a5,a5,a4
   15f02:	002c                	addi	a1,sp,8
   15f04:	1028                	addi	a0,sp,40
   15f06:	f03e                	sd	a5,32(sp)
   15f08:	ae7fd0ef          	jal	139ee <fp_mont_inv>
   15f0c:	102c                	addi	a1,sp,40
   15f0e:	00a8                	addi	a0,sp,72
   15f10:	7bc020ef          	jal	186cc <fp_mont_sqr>
   15f14:	1030                	addi	a2,sp,40
   15f16:	00ac                	addi	a1,sp,72
   15f18:	10a8                	addi	a0,sp,104
   15f1a:	266020ef          	jal	18180 <fp_mont_mul>
   15f1e:	00b0                	addi	a2,sp,72
   15f20:	85ce                	mv	a1,s3
   15f22:	0128                	addi	a0,sp,136
   15f24:	25c020ef          	jal	18180 <fp_mont_mul>
   15f28:	10b0                	addi	a2,sp,104
   15f2a:	02098593          	addi	a1,s3,32
   15f2e:	1128                	addi	a0,sp,168
   15f30:	250020ef          	jal	18180 <fp_mont_mul>
   15f34:	012c                	addi	a1,sp,136
   15f36:	01a8                	addi	a0,sp,200
   15f38:	452030ef          	jal	1938a <fp_from_mont>
   15f3c:	112c                	addi	a1,sp,168
   15f3e:	11a8                	addi	a0,sp,232
   15f40:	44a030ef          	jal	1938a <fp_from_mont>
   15f44:	10012423          	sw	zero,264(sp)
   15f48:	0a08                	addi	a0,sp,272
   15f4a:	d0efd0ef          	jal	13458 <fp_set_zero>
   15f4e:	1a08                	addi	a0,sp,304
   15f50:	d08fd0ef          	jal	13458 <fp_set_zero>
   15f54:	4781                	li	a5,0
   15f56:	c091                	beqz	s1,15f5a <sm2_jacobian_to_affine_mont+0xf4>
   15f58:	67d2                	ld	a5,272(sp)
   15f5a:	672e                	ld	a4,200(sp)
   15f5c:	4681                	li	a3,0
   15f5e:	8f61                	and	a4,a4,s0
   15f60:	8f5d                	or	a4,a4,a5
   15f62:	67ce                	ld	a5,208(sp)
   15f64:	e5ba                	sd	a4,200(sp)
   15f66:	8fe1                	and	a5,a5,s0
   15f68:	c091                	beqz	s1,15f6c <sm2_jacobian_to_affine_mont+0x106>
   15f6a:	66f2                	ld	a3,280(sp)
   15f6c:	8fd5                	or	a5,a5,a3
   15f6e:	4701                	li	a4,0
   15f70:	e9be                	sd	a5,208(sp)
   15f72:	67ee                	ld	a5,216(sp)
   15f74:	8fe1                	and	a5,a5,s0
   15f76:	c091                	beqz	s1,15f7a <sm2_jacobian_to_affine_mont+0x114>
   15f78:	7712                	ld	a4,288(sp)
   15f7a:	8fd9                	or	a5,a5,a4
   15f7c:	4701                	li	a4,0
   15f7e:	edbe                	sd	a5,216(sp)
   15f80:	778e                	ld	a5,224(sp)
   15f82:	8fe1                	and	a5,a5,s0
   15f84:	c091                	beqz	s1,15f88 <sm2_jacobian_to_affine_mont+0x122>
   15f86:	7732                	ld	a4,296(sp)
   15f88:	8fd9                	or	a5,a5,a4
   15f8a:	4681                	li	a3,0
   15f8c:	f1be                	sd	a5,224(sp)
   15f8e:	c091                	beqz	s1,15f92 <sm2_jacobian_to_affine_mont+0x12c>
   15f90:	76d2                	ld	a3,304(sp)
   15f92:	77ae                	ld	a5,232(sp)
   15f94:	4701                	li	a4,0
   15f96:	8fe1                	and	a5,a5,s0
   15f98:	8edd                	or	a3,a3,a5
   15f9a:	f5b6                	sd	a3,232(sp)
   15f9c:	c091                	beqz	s1,15fa0 <sm2_jacobian_to_affine_mont+0x13a>
   15f9e:	7772                	ld	a4,312(sp)
   15fa0:	76ce                	ld	a3,240(sp)
   15fa2:	4781                	li	a5,0
   15fa4:	8ee1                	and	a3,a3,s0
   15fa6:	8f55                	or	a4,a4,a3
   15fa8:	f9ba                	sd	a4,240(sp)
   15faa:	c091                	beqz	s1,15fae <sm2_jacobian_to_affine_mont+0x148>
   15fac:	6796                	ld	a5,320(sp)
   15fae:	776e                	ld	a4,248(sp)
   15fb0:	4681                	li	a3,0
   15fb2:	8f61                	and	a4,a4,s0
   15fb4:	8fd9                	or	a5,a5,a4
   15fb6:	6712                	ld	a4,256(sp)
   15fb8:	fdbe                	sd	a5,248(sp)
   15fba:	8c79                	and	s0,s0,a4
   15fbc:	c091                	beqz	s1,15fc0 <sm2_jacobian_to_affine_mont+0x15a>
   15fbe:	66b6                	ld	a3,328(sp)
   15fc0:	8c55                	or	s0,s0,a3
   15fc2:	e222                	sd	s0,256(sp)
   15fc4:	000a1563          	bnez	s4,15fce <sm2_jacobian_to_affine_mont+0x168>
   15fc8:	4785                	li	a5,1
   15fca:	10f12423          	sw	a5,264(sp)
   15fce:	6776                	ld	a4,344(sp)
   15fd0:	df0ab783          	ld	a5,-528(s5)
   15fd4:	8fb9                	xor	a5,a5,a4
   15fd6:	4701                	li	a4,0
   15fd8:	672e                	ld	a4,200(sp)
   15fda:	00e93023          	sd	a4,0(s2)
   15fde:	674e                	ld	a4,208(sp)
   15fe0:	00e93423          	sd	a4,8(s2)
   15fe4:	676e                	ld	a4,216(sp)
   15fe6:	00e93823          	sd	a4,16(s2)
   15fea:	770e                	ld	a4,224(sp)
   15fec:	00e93c23          	sd	a4,24(s2)
   15ff0:	772e                	ld	a4,232(sp)
   15ff2:	02e93023          	sd	a4,32(s2)
   15ff6:	774e                	ld	a4,240(sp)
   15ff8:	02e93423          	sd	a4,40(s2)
   15ffc:	776e                	ld	a4,248(sp)
   15ffe:	02e93823          	sd	a4,48(s2)
   16002:	6712                	ld	a4,256(sp)
   16004:	02e93c23          	sd	a4,56(s2)
   16008:	6732                	ld	a4,264(sp)
   1600a:	04e93023          	sd	a4,64(s2)
   1600e:	eb91                	bnez	a5,16022 <sm2_jacobian_to_affine_mont+0x1bc>
   16010:	60fa                	ld	ra,408(sp)
   16012:	645a                	ld	s0,400(sp)
   16014:	64ba                	ld	s1,392(sp)
   16016:	691a                	ld	s2,384(sp)
   16018:	79f6                	ld	s3,376(sp)
   1601a:	7a56                	ld	s4,368(sp)
   1601c:	7ab6                	ld	s5,360(sp)
   1601e:	611d                	addi	sp,sp,416
   16020:	8082                	ret
   16022:	b9ffa0ef          	jal	10bc0 <__stack_chk_fail@plt>

0000000000016026 <sm2_double_jm_a_minus3_mont>:
   16026:	7141                	addi	sp,sp,-496
   16028:	61bc                	ld	a5,64(a1)
   1602a:	efa6                	sd	s1,472(sp)
   1602c:	84ae                	mv	s1,a1
   1602e:	65ac                	ld	a1,72(a1)
   16030:	e7ce                	sd	s3,456(sp)
   16032:	68b0                	ld	a2,80(s1)
   16034:	69f5                	lui	s3,0x1d
   16036:	df09b683          	ld	a3,-528(s3) # 1cdf0 <__stack_chk_guard@GLIBC_2.27>
   1603a:	f736                	sd	a3,424(sp)
   1603c:	4681                	li	a3,0
   1603e:	ebca                	sd	s2,464(sp)
   16040:	6cb4                	ld	a3,88(s1)
   16042:	e3d2                	sd	s4,448(sp)
   16044:	00b7e933          	or	s2,a5,a1
   16048:	8141a703          	lw	a4,-2028(gp) # 1d0c4 <g_sm2_curve_mont_inited>
   1604c:	00c96933          	or	s2,s2,a2
   16050:	f3a2                	sd	s0,480(sp)
   16052:	00d96933          	or	s2,s2,a3
   16056:	f786                	sd	ra,488(sp)
   16058:	842a                	mv	s0,a0
   1605a:	ff56                	sd	s5,440(sp)
   1605c:	00193913          	seqz	s2,s2
   16060:	fb5a                	sd	s6,432(sp)
   16062:	e319                	bnez	a4,16068 <sm2_double_jm_a_minus3_mont+0x42>
   16064:	895ff0ef          	jal	158f8 <sm2_curve_init_once_mont.part.0>
   16068:	02048a93          	addi	s5,s1,32
   1606c:	0028                	addi	a0,sp,8
   1606e:	85d6                	mv	a1,s5
   16070:	04048b13          	addi	s6,s1,64
   16074:	658020ef          	jal	186cc <fp_mont_sqr>
   16078:	002c                	addi	a1,sp,8
   1607a:	1028                	addi	a0,sp,40
   1607c:	650020ef          	jal	186cc <fp_mont_sqr>
   16080:	85a6                	mv	a1,s1
   16082:	0030                	addi	a2,sp,8
   16084:	00a8                	addi	a0,sp,72
   16086:	0fa020ef          	jal	18180 <fp_mont_mul>
   1608a:	00b0                	addi	a2,sp,72
   1608c:	85b2                	mv	a1,a2
   1608e:	8532                	mv	a0,a2
   16090:	711010ef          	jal	17fa0 <fp_mont_add>
   16094:	00b0                	addi	a2,sp,72
   16096:	85b2                	mv	a1,a2
   16098:	8532                	mv	a0,a2
   1609a:	707010ef          	jal	17fa0 <fp_mont_add>
   1609e:	85da                	mv	a1,s6
   160a0:	0128                	addi	a0,sp,136
   160a2:	62a020ef          	jal	186cc <fp_mont_sqr>
   160a6:	85a6                	mv	a1,s1
   160a8:	0130                	addi	a2,sp,136
   160aa:	1128                	addi	a0,sp,168
   160ac:	799010ef          	jal	18044 <fp_mont_sub>
   160b0:	85a6                	mv	a1,s1
   160b2:	0130                	addi	a2,sp,136
   160b4:	01a8                	addi	a0,sp,200
   160b6:	6eb010ef          	jal	17fa0 <fp_mont_add>
   160ba:	82818493          	addi	s1,gp,-2008 # 1d0d8 <SM2_A_MONT>
   160be:	01b0                	addi	a2,sp,200
   160c0:	112c                	addi	a1,sp,168
   160c2:	10a8                	addi	a0,sp,104
   160c4:	0bc020ef          	jal	18180 <fp_mont_mul>
   160c8:	10ac                	addi	a1,sp,104
   160ca:	0a048613          	addi	a2,s1,160
   160ce:	852e                	mv	a0,a1
   160d0:	0b0020ef          	jal	18180 <fp_mont_mul>
   160d4:	10ac                	addi	a1,sp,104
   160d6:	11a8                	addi	a0,sp,232
   160d8:	5f4020ef          	jal	186cc <fp_mont_sqr>
   160dc:	11ac                	addi	a1,sp,232
   160de:	00b0                	addi	a2,sp,72
   160e0:	852e                	mv	a0,a1
   160e2:	763010ef          	jal	18044 <fp_mont_sub>
   160e6:	11ac                	addi	a1,sp,232
   160e8:	00b0                	addi	a2,sp,72
   160ea:	852e                	mv	a0,a1
   160ec:	759010ef          	jal	18044 <fp_mont_sub>
   160f0:	11b0                	addi	a2,sp,232
   160f2:	00ac                	addi	a1,sp,72
   160f4:	1128                	addi	a0,sp,168
   160f6:	74f010ef          	jal	18044 <fp_mont_sub>
   160fa:	1130                	addi	a2,sp,168
   160fc:	10ac                	addi	a1,sp,104
   160fe:	0228                	addi	a0,sp,264
   16100:	080020ef          	jal	18180 <fp_mont_mul>
   16104:	0c048613          	addi	a2,s1,192
   16108:	102c                	addi	a1,sp,40
   1610a:	01a8                	addi	a0,sp,200
   1610c:	074020ef          	jal	18180 <fp_mont_mul>
   16110:	022c                	addi	a1,sp,264
   16112:	01b0                	addi	a2,sp,200
   16114:	852e                	mv	a0,a1
   16116:	72f010ef          	jal	18044 <fp_mont_sub>
   1611a:	865a                	mv	a2,s6
   1611c:	85d6                	mv	a1,s5
   1611e:	1228                	addi	a0,sp,296
   16120:	060020ef          	jal	18180 <fp_mont_mul>
   16124:	122c                	addi	a1,sp,296
   16126:	08048613          	addi	a2,s1,128
   1612a:	852e                	mv	a0,a1
   1612c:	054020ef          	jal	18180 <fp_mont_mul>
   16130:	77ae                	ld	a5,232(sp)
   16132:	7752                	ld	a4,304(sp)
   16134:	e01c                	sd	a5,0(s0)
   16136:	77ce                	ld	a5,240(sp)
   16138:	e438                	sd	a4,72(s0)
   1613a:	7772                	ld	a4,312(sp)
   1613c:	e41c                	sd	a5,8(s0)
   1613e:	77ee                	ld	a5,248(sp)
   16140:	e838                	sd	a4,80(s0)
   16142:	6716                	ld	a4,320(sp)
   16144:	e81c                	sd	a5,16(s0)
   16146:	6792                	ld	a5,256(sp)
   16148:	ec38                	sd	a4,88(s0)
   1614a:	ec1c                	sd	a5,24(s0)
   1614c:	67b2                	ld	a5,264(sp)
   1614e:	f01c                	sd	a5,32(s0)
   16150:	67d2                	ld	a5,272(sp)
   16152:	f41c                	sd	a5,40(s0)
   16154:	67f2                	ld	a5,280(sp)
   16156:	f81c                	sd	a5,48(s0)
   16158:	7792                	ld	a5,288(sp)
   1615a:	fc1c                	sd	a5,56(s0)
   1615c:	77b2                	ld	a5,296(sp)
   1615e:	e03c                	sd	a5,64(s0)
   16160:	8141a783          	lw	a5,-2028(gp) # 1d0c4 <g_sm2_curve_mont_inited>
   16164:	e399                	bnez	a5,1616a <sm2_double_jm_a_minus3_mont+0x144>
   16166:	f92ff0ef          	jal	158f8 <sm2_curve_init_once_mont.part.0>
   1616a:	02a8                	addi	a0,sp,328
   1616c:	aecfd0ef          	jal	13458 <fp_set_zero>
   16170:	12a8                	addi	a0,sp,360
   16172:	65e9                	lui	a1,0x1a
   16174:	f1858593          	addi	a1,a1,-232 # 19f18 <FP_MONT_ONE>
   16178:	acefd0ef          	jal	13446 <fp_copy>
   1617c:	0328                	addi	a0,sp,392
   1617e:	adafd0ef          	jal	13458 <fp_set_zero>
   16182:	864a                	mv	a2,s2
   16184:	02ac                	addi	a1,sp,328
   16186:	8522                	mv	a0,s0
   16188:	e76ff0ef          	jal	157fe <sm2_jacobian_cmov_local>
   1618c:	773a                	ld	a4,424(sp)
   1618e:	df09b783          	ld	a5,-528(s3)
   16192:	8fb9                	xor	a5,a5,a4
   16194:	4701                	li	a4,0
   16196:	eb99                	bnez	a5,161ac <sm2_double_jm_a_minus3_mont+0x186>
   16198:	70be                	ld	ra,488(sp)
   1619a:	741e                	ld	s0,480(sp)
   1619c:	64fe                	ld	s1,472(sp)
   1619e:	695e                	ld	s2,464(sp)
   161a0:	69be                	ld	s3,456(sp)
   161a2:	6a1e                	ld	s4,448(sp)
   161a4:	7afa                	ld	s5,440(sp)
   161a6:	7b5a                	ld	s6,432(sp)
   161a8:	617d                	addi	sp,sp,496
   161aa:	8082                	ret
   161ac:	a15fa0ef          	jal	10bc0 <__stack_chk_fail@plt>

00000000000161b0 <sm2_add_ja_mont>:
   161b0:	8141a783          	lw	a5,-2028(gp) # 1d0c4 <g_sm2_curve_mont_inited>
   161b4:	c7010113          	addi	sp,sp,-912
   161b8:	38813023          	sd	s0,896(sp)
   161bc:	842a                	mv	s0,a0
   161be:	36913c23          	sd	s1,888(sp)
   161c2:	84ae                	mv	s1,a1
   161c4:	35513c23          	sd	s5,856(sp)
   161c8:	6af5                	lui	s5,0x1d
   161ca:	35613823          	sd	s6,848(sp)
   161ce:	df0ab703          	ld	a4,-528(s5) # 1cdf0 <__stack_chk_guard@GLIBC_2.27>
   161d2:	32e13423          	sd	a4,808(sp)
   161d6:	4701                	li	a4,0
   161d8:	38113423          	sd	ra,904(sp)
   161dc:	8b32                	mv	s6,a2
   161de:	37213823          	sd	s2,880(sp)
   161e2:	37313423          	sd	s3,872(sp)
   161e6:	37413023          	sd	s4,864(sp)
   161ea:	35713423          	sd	s7,840(sp)
   161ee:	35813023          	sd	s8,832(sp)
   161f2:	33913c23          	sd	s9,824(sp)
   161f6:	e399                	bnez	a5,161fc <sm2_add_ja_mont+0x4c>
   161f8:	f00ff0ef          	jal	158f8 <sm2_curve_init_once_mont.part.0>
   161fc:	64b0                	ld	a2,72(s1)
   161fe:	04048913          	addi	s2,s1,64
   16202:	60bc                	ld	a5,64(s1)
   16204:	85ca                	mv	a1,s2
   16206:	68b4                	ld	a3,80(s1)
   16208:	0028                	addi	a0,sp,8
   1620a:	6cb8                	ld	a4,88(s1)
   1620c:	020b0c93          	addi	s9,s6,32
   16210:	8fd1                	or	a5,a5,a2
   16212:	040b2a03          	lw	s4,64(s6)
   16216:	8fd5                	or	a5,a5,a3
   16218:	02048993          	addi	s3,s1,32
   1621c:	8fd9                	or	a5,a5,a4
   1621e:	6c69                	lui	s8,0x1a
   16220:	0017bb93          	seqz	s7,a5
   16224:	4a8020ef          	jal	186cc <fp_mont_sqr>
   16228:	0030                	addi	a2,sp,8
   1622a:	85da                	mv	a1,s6
   1622c:	00a8                	addi	a0,sp,72
   1622e:	01403a33          	snez	s4,s4
   16232:	74f010ef          	jal	18180 <fp_mont_mul>
   16236:	864a                	mv	a2,s2
   16238:	002c                	addi	a1,sp,8
   1623a:	1028                	addi	a0,sp,40
   1623c:	745010ef          	jal	18180 <fp_mont_mul>
   16240:	1030                	addi	a2,sp,40
   16242:	85e6                	mv	a1,s9
   16244:	10a8                	addi	a0,sp,104
   16246:	73b010ef          	jal	18180 <fp_mont_mul>
   1624a:	8626                	mv	a2,s1
   1624c:	00ac                	addi	a1,sp,72
   1624e:	0128                	addi	a0,sp,136
   16250:	5f5010ef          	jal	18044 <fp_mont_sub>
   16254:	864e                	mv	a2,s3
   16256:	10ac                	addi	a1,sp,104
   16258:	1128                	addi	a0,sp,168
   1625a:	5eb010ef          	jal	18044 <fp_mont_sub>
   1625e:	0130                	addi	a2,sp,136
   16260:	85ca                	mv	a1,s2
   16262:	1328                	addi	a0,sp,424
   16264:	71d010ef          	jal	18180 <fp_mont_mul>
   16268:	012c                	addi	a1,sp,136
   1626a:	01a8                	addi	a0,sp,200
   1626c:	460020ef          	jal	186cc <fp_mont_sqr>
   16270:	0130                	addi	a2,sp,136
   16272:	01ac                	addi	a1,sp,200
   16274:	11a8                	addi	a0,sp,232
   16276:	70b010ef          	jal	18180 <fp_mont_mul>
   1627a:	01b0                	addi	a2,sp,200
   1627c:	85a6                	mv	a1,s1
   1627e:	0228                	addi	a0,sp,264
   16280:	701010ef          	jal	18180 <fp_mont_mul>
   16284:	0230                	addi	a2,sp,264
   16286:	1228                	addi	a0,sp,296
   16288:	85b2                	mv	a1,a2
   1628a:	517010ef          	jal	17fa0 <fp_mont_add>
   1628e:	112c                	addi	a1,sp,168
   16290:	02a8                	addi	a0,sp,328
   16292:	43a020ef          	jal	186cc <fp_mont_sqr>
   16296:	11b0                	addi	a2,sp,232
   16298:	02ac                	addi	a1,sp,328
   1629a:	03a8                	addi	a0,sp,456
   1629c:	5a9010ef          	jal	18044 <fp_mont_sub>
   162a0:	1230                	addi	a2,sp,296
   162a2:	03ac                	addi	a1,sp,456
   162a4:	12a8                	addi	a0,sp,360
   162a6:	59f010ef          	jal	18044 <fp_mont_sub>
   162aa:	12b0                	addi	a2,sp,360
   162ac:	022c                	addi	a1,sp,264
   162ae:	03a8                	addi	a0,sp,456
   162b0:	595010ef          	jal	18044 <fp_mont_sub>
   162b4:	03b0                	addi	a2,sp,456
   162b6:	112c                	addi	a1,sp,168
   162b8:	8532                	mv	a0,a2
   162ba:	6c7010ef          	jal	18180 <fp_mont_mul>
   162be:	85ce                	mv	a1,s3
   162c0:	11b0                	addi	a2,sp,232
   162c2:	0328                	addi	a0,sp,392
   162c4:	6bd010ef          	jal	18180 <fp_mont_mul>
   162c8:	0330                	addi	a2,sp,392
   162ca:	03ac                	addi	a1,sp,456
   162cc:	8532                	mv	a0,a2
   162ce:	577010ef          	jal	18044 <fp_mont_sub>
   162d2:	692a                	ld	s2,136(sp)
   162d4:	67ca                	ld	a5,144(sp)
   162d6:	85a6                	mv	a1,s1
   162d8:	79aa                	ld	s3,168(sp)
   162da:	0428                	addi	a0,sp,520
   162dc:	00f96933          	or	s2,s2,a5
   162e0:	77ca                	ld	a5,176(sp)
   162e2:	00f9e9b3          	or	s3,s3,a5
   162e6:	77b6                	ld	a5,360(sp)
   162e8:	e01c                	sd	a5,0(s0)
   162ea:	77d6                	ld	a5,368(sp)
   162ec:	e41c                	sd	a5,8(s0)
   162ee:	77f6                	ld	a5,376(sp)
   162f0:	e81c                	sd	a5,16(s0)
   162f2:	679a                	ld	a5,384(sp)
   162f4:	ec1c                	sd	a5,24(s0)
   162f6:	67ba                	ld	a5,392(sp)
   162f8:	f01c                	sd	a5,32(s0)
   162fa:	67da                	ld	a5,400(sp)
   162fc:	f41c                	sd	a5,40(s0)
   162fe:	67fa                	ld	a5,408(sp)
   16300:	f81c                	sd	a5,48(s0)
   16302:	779a                	ld	a5,416(sp)
   16304:	fc1c                	sd	a5,56(s0)
   16306:	77ba                	ld	a5,424(sp)
   16308:	e03c                	sd	a5,64(s0)
   1630a:	77da                	ld	a5,432(sp)
   1630c:	e43c                	sd	a5,72(s0)
   1630e:	77fa                	ld	a5,440(sp)
   16310:	e83c                	sd	a5,80(s0)
   16312:	679e                	ld	a5,448(sp)
   16314:	ec3c                	sd	a5,88(s0)
   16316:	67ea                	ld	a5,152(sp)
   16318:	00f96933          	or	s2,s2,a5
   1631c:	77ea                	ld	a5,184(sp)
   1631e:	00f9e9b3          	or	s3,s3,a5
   16322:	778a                	ld	a5,160(sp)
   16324:	00f96933          	or	s2,s2,a5
   16328:	678e                	ld	a5,192(sp)
   1632a:	00f9e9b3          	or	s3,s3,a5
   1632e:	cf9ff0ef          	jal	16026 <sm2_double_jm_a_minus3_mont>
   16332:	14a8                	addi	a0,sp,616
   16334:	924fd0ef          	jal	13458 <fp_set_zero>
   16338:	f18c0593          	addi	a1,s8,-232 # 19f18 <FP_MONT_ONE>
   1633c:	0528                	addi	a0,sp,648
   1633e:	908fd0ef          	jal	13446 <fp_copy>
   16342:	1528                	addi	a0,sp,680
   16344:	914fd0ef          	jal	13458 <fp_set_zero>
   16348:	85da                	mv	a1,s6
   1634a:	05a8                	addi	a0,sp,712
   1634c:	8fafd0ef          	jal	13446 <fp_copy>
   16350:	85e6                	mv	a1,s9
   16352:	15a8                	addi	a0,sp,744
   16354:	8f2fd0ef          	jal	13446 <fp_copy>
   16358:	f18c0593          	addi	a1,s8,-232
   1635c:	0628                	addi	a0,sp,776
   1635e:	8e8fd0ef          	jal	13446 <fp_copy>
   16362:	13a8                	addi	a0,sp,488
   16364:	8f4fd0ef          	jal	13458 <fp_set_zero>
   16368:	fffa0793          	addi	a5,s4,-1
   1636c:	4701                	li	a4,0
   1636e:	000a0363          	beqz	s4,16374 <sm2_add_ja_mont+0x1c4>
   16372:	773e                	ld	a4,488(sp)
   16374:	30813603          	ld	a2,776(sp)
   16378:	4681                	li	a3,0
   1637a:	8e7d                	and	a2,a2,a5
   1637c:	8f51                	or	a4,a4,a2
   1637e:	30e13423          	sd	a4,776(sp)
   16382:	000a0363          	beqz	s4,16388 <sm2_add_ja_mont+0x1d8>
   16386:	76de                	ld	a3,496(sp)
   16388:	31013603          	ld	a2,784(sp)
   1638c:	4701                	li	a4,0
   1638e:	8e7d                	and	a2,a2,a5
   16390:	8ed1                	or	a3,a3,a2
   16392:	30d13823          	sd	a3,784(sp)
   16396:	000a0363          	beqz	s4,1639c <sm2_add_ja_mont+0x1ec>
   1639a:	777e                	ld	a4,504(sp)
   1639c:	31813683          	ld	a3,792(sp)
   163a0:	4581                	li	a1,0
   163a2:	8efd                	and	a3,a3,a5
   163a4:	8f55                	or	a4,a4,a3
   163a6:	32013683          	ld	a3,800(sp)
   163aa:	30e13c23          	sd	a4,792(sp)
   163ae:	8ff5                	and	a5,a5,a3
   163b0:	000a0463          	beqz	s4,163b8 <sm2_add_ja_mont+0x208>
   163b4:	20013583          	ld	a1,512(sp)
   163b8:	0129e633          	or	a2,s3,s2
   163bc:	8fcd                	or	a5,a5,a1
   163be:	00163613          	seqz	a2,a2
   163c2:	042c                	addi	a1,sp,520
   163c4:	8522                	mv	a0,s0
   163c6:	32f13023          	sd	a5,800(sp)
   163ca:	c34ff0ef          	jal	157fe <sm2_jacobian_cmov_local>
   163ce:	00193913          	seqz	s2,s2
   163d2:	01303633          	snez	a2,s3
   163d6:	14ac                	addi	a1,sp,616
   163d8:	01267633          	and	a2,a2,s2
   163dc:	8522                	mv	a0,s0
   163de:	c20ff0ef          	jal	157fe <sm2_jacobian_cmov_local>
   163e2:	865e                	mv	a2,s7
   163e4:	05ac                	addi	a1,sp,712
   163e6:	8522                	mv	a0,s0
   163e8:	c16ff0ef          	jal	157fe <sm2_jacobian_cmov_local>
   163ec:	32813703          	ld	a4,808(sp)
   163f0:	df0ab783          	ld	a5,-528(s5)
   163f4:	8fb9                	xor	a5,a5,a4
   163f6:	4701                	li	a4,0
   163f8:	ef95                	bnez	a5,16434 <sm2_add_ja_mont+0x284>
   163fa:	8522                	mv	a0,s0
   163fc:	38013403          	ld	s0,896(sp)
   16400:	38813083          	ld	ra,904(sp)
   16404:	8652                	mv	a2,s4
   16406:	37013903          	ld	s2,880(sp)
   1640a:	85a6                	mv	a1,s1
   1640c:	36813983          	ld	s3,872(sp)
   16410:	37813483          	ld	s1,888(sp)
   16414:	36013a03          	ld	s4,864(sp)
   16418:	35813a83          	ld	s5,856(sp)
   1641c:	35013b03          	ld	s6,848(sp)
   16420:	34813b83          	ld	s7,840(sp)
   16424:	34013c03          	ld	s8,832(sp)
   16428:	33813c83          	ld	s9,824(sp)
   1642c:	39010113          	addi	sp,sp,912
   16430:	bceff06f          	j	157fe <sm2_jacobian_cmov_local>
   16434:	f8cfa0ef          	jal	10bc0 <__stack_chk_fail@plt>

0000000000016438 <sm2_add_jj_mont>:
   16438:	c9010113          	addi	sp,sp,-880
   1643c:	6638                	ld	a4,72(a2)
   1643e:	65b4                	ld	a3,72(a1)
   16440:	35213823          	sd	s2,848(sp)
   16444:	35313423          	sd	s3,840(sp)
   16448:	04063903          	ld	s2,64(a2)
   1644c:	0405b983          	ld	s3,64(a1)
   16450:	33513c23          	sd	s5,824(sp)
   16454:	6af5                	lui	s5,0x1d
   16456:	df0ab783          	ld	a5,-528(s5) # 1cdf0 <__stack_chk_guard@GLIBC_2.27>
   1645a:	30f13423          	sd	a5,776(sp)
   1645e:	4781                	li	a5,0
   16460:	69bc                	ld	a5,80(a1)
   16462:	35413023          	sd	s4,832(sp)
   16466:	8a32                	mv	s4,a2
   16468:	6a30                	ld	a2,80(a2)
   1646a:	00d9e9b3          	or	s3,s3,a3
   1646e:	00e96933          	or	s2,s2,a4
   16472:	6db4                	ld	a3,88(a1)
   16474:	00f9e9b3          	or	s3,s3,a5
   16478:	058a3703          	ld	a4,88(s4)
   1647c:	33713423          	sd	s7,808(sp)
   16480:	8141a783          	lw	a5,-2028(gp) # 1d0c4 <g_sm2_curve_mont_inited>
   16484:	00c96933          	or	s2,s2,a2
   16488:	36813023          	sd	s0,864(sp)
   1648c:	34913c23          	sd	s1,856(sp)
   16490:	00d9e9b3          	or	s3,s3,a3
   16494:	31913c23          	sd	s9,792(sp)
   16498:	00e96933          	or	s2,s2,a4
   1649c:	31a13823          	sd	s10,784(sp)
   164a0:	84ae                	mv	s1,a1
   164a2:	36113423          	sd	ra,872(sp)
   164a6:	842a                	mv	s0,a0
   164a8:	33613823          	sd	s6,816(sp)
   164ac:	0019bd13          	seqz	s10,s3
   164b0:	33813023          	sd	s8,800(sp)
   164b4:	00193c93          	seqz	s9,s2
   164b8:	e399                	bnez	a5,164be <sm2_add_jj_mont+0x86>
   164ba:	c3eff0ef          	jal	158f8 <sm2_curve_init_once_mont.part.0>
   164be:	04048b13          	addi	s6,s1,64
   164c2:	0028                	addi	a0,sp,8
   164c4:	85da                	mv	a1,s6
   164c6:	040a0c13          	addi	s8,s4,64
   164ca:	202020ef          	jal	186cc <fp_mont_sqr>
   164ce:	013039b3          	snez	s3,s3
   164d2:	85e2                	mv	a1,s8
   164d4:	1028                	addi	a0,sp,40
   164d6:	1f6020ef          	jal	186cc <fp_mont_sqr>
   164da:	01203933          	snez	s2,s2
   164de:	85a6                	mv	a1,s1
   164e0:	1030                	addi	a2,sp,40
   164e2:	00a8                	addi	a0,sp,72
   164e4:	49d010ef          	jal	18180 <fp_mont_mul>
   164e8:	85d2                	mv	a1,s4
   164ea:	0030                	addi	a2,sp,8
   164ec:	10a8                	addi	a0,sp,104
   164ee:	493010ef          	jal	18180 <fp_mont_mul>
   164f2:	8662                	mv	a2,s8
   164f4:	102c                	addi	a1,sp,40
   164f6:	03a8                	addi	a0,sp,456
   164f8:	489010ef          	jal	18180 <fp_mont_mul>
   164fc:	865a                	mv	a2,s6
   164fe:	002c                	addi	a1,sp,8
   16500:	13a8                	addi	a0,sp,488
   16502:	47f010ef          	jal	18180 <fp_mont_mul>
   16506:	02048593          	addi	a1,s1,32
   1650a:	03b0                	addi	a2,sp,456
   1650c:	0128                	addi	a0,sp,136
   1650e:	473010ef          	jal	18180 <fp_mont_mul>
   16512:	020a0593          	addi	a1,s4,32
   16516:	13b0                	addi	a2,sp,488
   16518:	1128                	addi	a0,sp,168
   1651a:	467010ef          	jal	18180 <fp_mont_mul>
   1651e:	00b0                	addi	a2,sp,72
   16520:	10ac                	addi	a1,sp,104
   16522:	01a8                	addi	a0,sp,200
   16524:	321010ef          	jal	18044 <fp_mont_sub>
   16528:	01b0                	addi	a2,sp,200
   1652a:	11a8                	addi	a0,sp,232
   1652c:	85b2                	mv	a1,a2
   1652e:	273010ef          	jal	17fa0 <fp_mont_add>
   16532:	11ac                	addi	a1,sp,232
   16534:	852e                	mv	a0,a1
   16536:	196020ef          	jal	186cc <fp_mont_sqr>
   1653a:	11b0                	addi	a2,sp,232
   1653c:	01ac                	addi	a1,sp,200
   1653e:	0228                	addi	a0,sp,264
   16540:	441010ef          	jal	18180 <fp_mont_mul>
   16544:	0130                	addi	a2,sp,136
   16546:	112c                	addi	a1,sp,168
   16548:	1228                	addi	a0,sp,296
   1654a:	2fb010ef          	jal	18044 <fp_mont_sub>
   1654e:	1230                	addi	a2,sp,296
   16550:	85b2                	mv	a1,a2
   16552:	8532                	mv	a0,a2
   16554:	24d010ef          	jal	17fa0 <fp_mont_add>
   16558:	11b0                	addi	a2,sp,232
   1655a:	00ac                	addi	a1,sp,72
   1655c:	02a8                	addi	a0,sp,328
   1655e:	423010ef          	jal	18180 <fp_mont_mul>
   16562:	122c                	addi	a1,sp,296
   16564:	12a8                	addi	a0,sp,360
   16566:	166020ef          	jal	186cc <fp_mont_sqr>
   1656a:	12ac                	addi	a1,sp,360
   1656c:	0230                	addi	a2,sp,264
   1656e:	852e                	mv	a0,a1
   16570:	2d5010ef          	jal	18044 <fp_mont_sub>
   16574:	12ac                	addi	a1,sp,360
   16576:	02b0                	addi	a2,sp,328
   16578:	852e                	mv	a0,a1
   1657a:	2cb010ef          	jal	18044 <fp_mont_sub>
   1657e:	12ac                	addi	a1,sp,360
   16580:	02b0                	addi	a2,sp,328
   16582:	852e                	mv	a0,a1
   16584:	2c1010ef          	jal	18044 <fp_mont_sub>
   16588:	12b0                	addi	a2,sp,360
   1658a:	02ac                	addi	a1,sp,328
   1658c:	0328                	addi	a0,sp,392
   1658e:	2b7010ef          	jal	18044 <fp_mont_sub>
   16592:	032c                	addi	a1,sp,392
   16594:	1230                	addi	a2,sp,296
   16596:	852e                	mv	a0,a1
   16598:	3e9010ef          	jal	18180 <fp_mont_mul>
   1659c:	0230                	addi	a2,sp,264
   1659e:	012c                	addi	a1,sp,136
   165a0:	0428                	addi	a0,sp,520
   165a2:	3df010ef          	jal	18180 <fp_mont_mul>
   165a6:	0430                	addi	a2,sp,520
   165a8:	85b2                	mv	a1,a2
   165aa:	8532                	mv	a0,a2
   165ac:	1f5010ef          	jal	17fa0 <fp_mont_add>
   165b0:	032c                	addi	a1,sp,392
   165b2:	0430                	addi	a2,sp,520
   165b4:	852e                	mv	a0,a1
   165b6:	28f010ef          	jal	18044 <fp_mont_sub>
   165ba:	8662                	mv	a2,s8
   165bc:	85da                	mv	a1,s6
   165be:	1328                	addi	a0,sp,424
   165c0:	1e1010ef          	jal	17fa0 <fp_mont_add>
   165c4:	132c                	addi	a1,sp,424
   165c6:	852e                	mv	a0,a1
   165c8:	104020ef          	jal	186cc <fp_mont_sqr>
   165cc:	132c                	addi	a1,sp,424
   165ce:	0030                	addi	a2,sp,8
   165d0:	852e                	mv	a0,a1
   165d2:	273010ef          	jal	18044 <fp_mont_sub>
   165d6:	132c                	addi	a1,sp,424
   165d8:	1030                	addi	a2,sp,40
   165da:	852e                	mv	a0,a1
   165dc:	269010ef          	jal	18044 <fp_mont_sub>
   165e0:	132c                	addi	a1,sp,424
   165e2:	01b0                	addi	a2,sp,200
   165e4:	852e                	mv	a0,a1
   165e6:	39b010ef          	jal	18180 <fp_mont_mul>
   165ea:	77b6                	ld	a5,360(sp)
   165ec:	85d2                	mv	a1,s4
   165ee:	866a                	mv	a2,s10
   165f0:	8522                	mv	a0,s0
   165f2:	e01c                	sd	a5,0(s0)
   165f4:	77d6                	ld	a5,368(sp)
   165f6:	e41c                	sd	a5,8(s0)
   165f8:	77f6                	ld	a5,376(sp)
   165fa:	e81c                	sd	a5,16(s0)
   165fc:	679a                	ld	a5,384(sp)
   165fe:	ec1c                	sd	a5,24(s0)
   16600:	67ba                	ld	a5,392(sp)
   16602:	f01c                	sd	a5,32(s0)
   16604:	67da                	ld	a5,400(sp)
   16606:	f41c                	sd	a5,40(s0)
   16608:	67fa                	ld	a5,408(sp)
   1660a:	f81c                	sd	a5,48(s0)
   1660c:	779a                	ld	a5,416(sp)
   1660e:	fc1c                	sd	a5,56(s0)
   16610:	77ba                	ld	a5,424(sp)
   16612:	e03c                	sd	a5,64(s0)
   16614:	77da                	ld	a5,432(sp)
   16616:	e43c                	sd	a5,72(s0)
   16618:	77fa                	ld	a5,440(sp)
   1661a:	e83c                	sd	a5,80(s0)
   1661c:	679e                	ld	a5,448(sp)
   1661e:	ec3c                	sd	a5,88(s0)
   16620:	9deff0ef          	jal	157fe <sm2_jacobian_cmov_local>
   16624:	85a6                	mv	a1,s1
   16626:	8666                	mv	a2,s9
   16628:	8522                	mv	a0,s0
   1662a:	9d4ff0ef          	jal	157fe <sm2_jacobian_cmov_local>
   1662e:	6b2e                	ld	s6,200(sp)
   16630:	67ce                	ld	a5,208(sp)
   16632:	0130                	addi	a2,sp,136
   16634:	112c                	addi	a1,sp,168
   16636:	1428                	addi	a0,sp,552
   16638:	00fb6b33          	or	s6,s6,a5
   1663c:	67ee                	ld	a5,216(sp)
   1663e:	00fb6b33          	or	s6,s6,a5
   16642:	778e                	ld	a5,224(sp)
   16644:	00fb6b33          	or	s6,s6,a5
   16648:	1fd010ef          	jal	18044 <fp_mont_sub>
   1664c:	22813783          	ld	a5,552(sp)
   16650:	85a6                	mv	a1,s1
   16652:	23013483          	ld	s1,560(sp)
   16656:	04a8                	addi	a0,sp,584
   16658:	001b3a13          	seqz	s4,s6
   1665c:	8cdd                	or	s1,s1,a5
   1665e:	23813783          	ld	a5,568(sp)
   16662:	8cdd                	or	s1,s1,a5
   16664:	24013783          	ld	a5,576(sp)
   16668:	8cdd                	or	s1,s1,a5
   1666a:	9bdff0ef          	jal	16026 <sm2_double_jm_a_minus3_mont>
   1666e:	8141a783          	lw	a5,-2028(gp) # 1d0c4 <g_sm2_curve_mont_inited>
   16672:	00903c33          	snez	s8,s1
   16676:	e399                	bnez	a5,1667c <sm2_add_jj_mont+0x244>
   16678:	a80ff0ef          	jal	158f8 <sm2_curve_init_once_mont.part.0>
   1667c:	1528                	addi	a0,sp,680
   1667e:	018a7a33          	and	s4,s4,s8
   16682:	dd7fc0ef          	jal	13458 <fp_set_zero>
   16686:	05a8                	addi	a0,sp,712
   16688:	65e9                	lui	a1,0x1a
   1668a:	f1858593          	addi	a1,a1,-232 # 19f18 <FP_MONT_ONE>
   1668e:	db9fc0ef          	jal	13446 <fp_copy>
   16692:	15a8                	addi	a0,sp,744
   16694:	dc5fc0ef          	jal	13458 <fp_set_zero>
   16698:	0164e633          	or	a2,s1,s6
   1669c:	04ac                	addi	a1,sp,584
   1669e:	00163613          	seqz	a2,a2
   166a2:	8522                	mv	a0,s0
   166a4:	00c97633          	and	a2,s2,a2
   166a8:	00c9f633          	and	a2,s3,a2
   166ac:	952ff0ef          	jal	157fe <sm2_jacobian_cmov_local>
   166b0:	01497633          	and	a2,s2,s4
   166b4:	152c                	addi	a1,sp,680
   166b6:	00c9f633          	and	a2,s3,a2
   166ba:	8522                	mv	a0,s0
   166bc:	942ff0ef          	jal	157fe <sm2_jacobian_cmov_local>
   166c0:	30813703          	ld	a4,776(sp)
   166c4:	df0ab783          	ld	a5,-528(s5)
   166c8:	8fb9                	xor	a5,a5,a4
   166ca:	4701                	li	a4,0
   166cc:	ef85                	bnez	a5,16704 <sm2_add_jj_mont+0x2cc>
   166ce:	36813083          	ld	ra,872(sp)
   166d2:	36013403          	ld	s0,864(sp)
   166d6:	35813483          	ld	s1,856(sp)
   166da:	35013903          	ld	s2,848(sp)
   166de:	34813983          	ld	s3,840(sp)
   166e2:	34013a03          	ld	s4,832(sp)
   166e6:	33813a83          	ld	s5,824(sp)
   166ea:	33013b03          	ld	s6,816(sp)
   166ee:	32813b83          	ld	s7,808(sp)
   166f2:	32013c03          	ld	s8,800(sp)
   166f6:	31813c83          	ld	s9,792(sp)
   166fa:	31013d03          	ld	s10,784(sp)
   166fe:	37010113          	addi	sp,sp,880
   16702:	8082                	ret
   16704:	cbcfa0ef          	jal	10bc0 <__stack_chk_fail@plt>

0000000000016708 <sm2_batch_normalize_mont>:
   16708:	8141a783          	lw	a5,-2028(gp) # 1d0c4 <g_sm2_curve_mont_inited>
   1670c:	7145                	addi	sp,sp,-464
   1670e:	e3a2                	sd	s0,448(sp)
   16710:	8432                	mv	s0,a2
   16712:	fb4a                	sd	s2,432(sp)
   16714:	892e                	mv	s2,a1
   16716:	e75e                	sd	s7,392(sp)
   16718:	8bb6                	mv	s7,a3
   1671a:	e362                	sd	s8,384(sp)
   1671c:	6c75                	lui	s8,0x1d
   1671e:	e786                	sd	ra,456(sp)
   16720:	df0c3703          	ld	a4,-528(s8) # 1cdf0 <__stack_chk_guard@GLIBC_2.27>
   16724:	eeba                	sd	a4,344(sp)
   16726:	4701                	li	a4,0
   16728:	e42a                	sd	a0,8(sp)
   1672a:	c385                	beqz	a5,1674a <sm2_batch_normalize_mont+0x42>
   1672c:	e015                	bnez	s0,16750 <sm2_batch_normalize_mont+0x48>
   1672e:	6776                	ld	a4,344(sp)
   16730:	df0c3783          	ld	a5,-528(s8)
   16734:	8fb9                	xor	a5,a5,a4
   16736:	4701                	li	a4,0
   16738:	28079e63          	bnez	a5,169d4 <sm2_batch_normalize_mont+0x2cc>
   1673c:	60be                	ld	ra,456(sp)
   1673e:	641e                	ld	s0,448(sp)
   16740:	795a                	ld	s2,432(sp)
   16742:	6bba                	ld	s7,392(sp)
   16744:	6c1a                	ld	s8,384(sp)
   16746:	6179                	addi	sp,sp,464
   16748:	8082                	ret
   1674a:	9aeff0ef          	jal	158f8 <sm2_curve_init_once_mont.part.0>
   1674e:	d065                	beqz	s0,1672e <sm2_batch_normalize_mont+0x26>
   16750:	ff26                	sd	s1,440(sp)
   16752:	0808                	addi	a0,sp,16
   16754:	64e9                	lui	s1,0x1a
   16756:	f1848593          	addi	a1,s1,-232 # 19f18 <FP_MONT_ONE>
   1675a:	f74e                	sd	s3,424(sp)
   1675c:	f352                	sd	s4,416(sp)
   1675e:	ef56                	sd	s5,408(sp)
   16760:	eb5a                	sd	s6,400(sp)
   16762:	fee6                	sd	s9,376(sp)
   16764:	4c81                	li	s9,0
   16766:	faea                	sd	s10,368(sp)
   16768:	04090d13          	addi	s10,s2,64
   1676c:	f6ee                	sd	s11,360(sp)
   1676e:	cd9fc0ef          	jal	13446 <fp_copy>
   16772:	f1848793          	addi	a5,s1,-232
   16776:	8dde                	mv	s11,s7
   16778:	0007b983          	ld	s3,0(a5)
   1677c:	0087ba03          	ld	s4,8(a5)
   16780:	0107ba83          	ld	s5,16(a5)
   16784:	0187bb03          	ld	s6,24(a5)
   16788:	67c2                	ld	a5,16(sp)
   1678a:	85ea                	mv	a1,s10
   1678c:	0a08                	addi	a0,sp,272
   1678e:	020d8d93          	addi	s11,s11,32
   16792:	060d0d13          	addi	s10,s10,96
   16796:	fefdb023          	sd	a5,-32(s11)
   1679a:	67e2                	ld	a5,24(sp)
   1679c:	fefdb423          	sd	a5,-24(s11)
   167a0:	7782                	ld	a5,32(sp)
   167a2:	fefdb823          	sd	a5,-16(s11)
   167a6:	77a2                	ld	a5,40(sp)
   167a8:	fefdbc23          	sd	a5,-8(s11)
   167ac:	fa8d3603          	ld	a2,-88(s10)
   167b0:	fa0d3783          	ld	a5,-96(s10)
   167b4:	fb0d3683          	ld	a3,-80(s10)
   167b8:	fb8d3703          	ld	a4,-72(s10)
   167bc:	8fd1                	or	a5,a5,a2
   167be:	8fd5                	or	a5,a5,a3
   167c0:	8fd9                	or	a5,a5,a4
   167c2:	0017b493          	seqz	s1,a5
   167c6:	c81fc0ef          	jal	13446 <fp_copy>
   167ca:	68f2                	ld	a7,280(sp)
   167cc:	fff48713          	addi	a4,s1,-1
   167d0:	6352                	ld	t1,272(sp)
   167d2:	409007b3          	neg	a5,s1
   167d6:	7692                	ld	a3,288(sp)
   167d8:	00fa75b3          	and	a1,s4,a5
   167dc:	7e32                	ld	t3,296(sp)
   167de:	011778b3          	and	a7,a4,a7
   167e2:	00f9f533          	and	a0,s3,a5
   167e6:	00faf633          	and	a2,s5,a5
   167ea:	00b8e8b3          	or	a7,a7,a1
   167ee:	00677333          	and	t1,a4,t1
   167f2:	8ef9                	and	a3,a3,a4
   167f4:	00fb77b3          	and	a5,s6,a5
   167f8:	01c77733          	and	a4,a4,t3
   167fc:	080c                	addi	a1,sp,16
   167fe:	00a36333          	or	t1,t1,a0
   16802:	8ed1                	or	a3,a3,a2
   16804:	8f5d                	or	a4,a4,a5
   16806:	0a10                	addi	a2,sp,272
   16808:	852e                	mv	a0,a1
   1680a:	84e6                	mv	s1,s9
   1680c:	0c85                	addi	s9,s9,1
   1680e:	ea1a                	sd	t1,272(sp)
   16810:	ee46                	sd	a7,280(sp)
   16812:	f236                	sd	a3,288(sp)
   16814:	f63a                	sd	a4,296(sp)
   16816:	16b010ef          	jal	18180 <fp_mont_mul>
   1681a:	f79417e3          	bne	s0,s9,16788 <sm2_batch_normalize_mont+0x80>
   1681e:	080c                	addi	a1,sp,16
   16820:	1808                	addi	a0,sp,48
   16822:	9ccfd0ef          	jal	139ee <fp_mont_inv>
   16826:	20842db3          	sh1add	s11,s0,s0
   1682a:	67a2                	ld	a5,8(sp)
   1682c:	0d96                	slli	s11,s11,0x5
   1682e:	20846433          	sh3add	s0,s0,s0
   16832:	1d81                	addi	s11,s11,-32
   16834:	0496                	slli	s1,s1,0x5
   16836:	9dca                	add	s11,s11,s2
   16838:	20f46433          	sh3add	s0,s0,a5
   1683c:	9ba6                	add	s7,s7,s1
   1683e:	fb840413          	addi	s0,s0,-72
   16842:	1901                	addi	s2,s2,-32
   16844:	008db603          	ld	a2,8(s11)
   16848:	85ee                	mv	a1,s11
   1684a:	000db783          	ld	a5,0(s11)
   1684e:	0888                	addi	a0,sp,80
   16850:	010db683          	ld	a3,16(s11)
   16854:	018db703          	ld	a4,24(s11)
   16858:	8fd1                	or	a5,a5,a2
   1685a:	8fd5                	or	a5,a5,a3
   1685c:	00e7ecb3          	or	s9,a5,a4
   16860:	be7fc0ef          	jal	13446 <fp_copy>
   16864:	6346                	ld	t1,80(sp)
   16866:	001cbd13          	seqz	s10,s9
   1686a:	68e6                	ld	a7,88(sp)
   1686c:	fffd0493          	addi	s1,s10,-1
   16870:	7806                	ld	a6,96(sp)
   16872:	41a00733          	neg	a4,s10
   16876:	76a6                	ld	a3,104(sp)
   16878:	00e9f533          	and	a0,s3,a4
   1687c:	00ea75b3          	and	a1,s4,a4
   16880:	00eaf633          	and	a2,s5,a4
   16884:	0064f333          	and	t1,s1,t1
   16888:	0114f8b3          	and	a7,s1,a7
   1688c:	8ee5                	and	a3,a3,s1
   1688e:	0104f833          	and	a6,s1,a6
   16892:	00eb7733          	and	a4,s6,a4
   16896:	00a36333          	or	t1,t1,a0
   1689a:	00b8e8b3          	or	a7,a7,a1
   1689e:	00c86833          	or	a6,a6,a2
   168a2:	8f55                	or	a4,a4,a3
   168a4:	865e                	mv	a2,s7
   168a6:	180c                	addi	a1,sp,48
   168a8:	1888                	addi	a0,sp,112
   168aa:	f4ba                	sd	a4,104(sp)
   168ac:	e89a                	sd	t1,80(sp)
   168ae:	ecc6                	sd	a7,88(sp)
   168b0:	f0c2                	sd	a6,96(sp)
   168b2:	0cf010ef          	jal	18180 <fp_mont_mul>
   168b6:	180c                	addi	a1,sp,48
   168b8:	0890                	addi	a2,sp,80
   168ba:	852e                	mv	a0,a1
   168bc:	0c5010ef          	jal	18180 <fp_mont_mul>
   168c0:	188c                	addi	a1,sp,112
   168c2:	0908                	addi	a0,sp,144
   168c4:	609010ef          	jal	186cc <fp_mont_sqr>
   168c8:	1890                	addi	a2,sp,112
   168ca:	090c                	addi	a1,sp,144
   168cc:	1908                	addi	a0,sp,176
   168ce:	0b3010ef          	jal	18180 <fp_mont_mul>
   168d2:	0910                	addi	a2,sp,144
   168d4:	fc0d8593          	addi	a1,s11,-64
   168d8:	0988                	addi	a0,sp,208
   168da:	0a7010ef          	jal	18180 <fp_mont_mul>
   168de:	1910                	addi	a2,sp,176
   168e0:	fe0d8593          	addi	a1,s11,-32
   168e4:	1988                	addi	a0,sp,240
   168e6:	09b010ef          	jal	18180 <fp_mont_mul>
   168ea:	098c                	addi	a1,sp,208
   168ec:	8522                	mv	a0,s0
   168ee:	b59fc0ef          	jal	13446 <fp_copy>
   168f2:	198c                	addi	a1,sp,240
   168f4:	02040513          	addi	a0,s0,32
   168f8:	b4ffc0ef          	jal	13446 <fp_copy>
   168fc:	04042023          	sw	zero,64(s0)
   16900:	0a08                	addi	a0,sp,272
   16902:	b57fc0ef          	jal	13458 <fp_set_zero>
   16906:	1a08                	addi	a0,sp,304
   16908:	b51fc0ef          	jal	13458 <fp_set_zero>
   1690c:	6018                	ld	a4,0(s0)
   1690e:	4601                	li	a2,0
   16910:	8f65                	and	a4,a4,s1
   16912:	000d0363          	beqz	s10,16918 <sm2_batch_normalize_mont+0x210>
   16916:	6652                	ld	a2,272(sp)
   16918:	6414                	ld	a3,8(s0)
   1691a:	8f51                	or	a4,a4,a2
   1691c:	e018                	sd	a4,0(s0)
   1691e:	4601                	li	a2,0
   16920:	8ee5                	and	a3,a3,s1
   16922:	000d0363          	beqz	s10,16928 <sm2_batch_normalize_mont+0x220>
   16926:	6672                	ld	a2,280(sp)
   16928:	6818                	ld	a4,16(s0)
   1692a:	8ed1                	or	a3,a3,a2
   1692c:	e414                	sd	a3,8(s0)
   1692e:	4601                	li	a2,0
   16930:	8f65                	and	a4,a4,s1
   16932:	000d0363          	beqz	s10,16938 <sm2_batch_normalize_mont+0x230>
   16936:	7612                	ld	a2,288(sp)
   16938:	6c14                	ld	a3,24(s0)
   1693a:	8f51                	or	a4,a4,a2
   1693c:	e818                	sd	a4,16(s0)
   1693e:	4601                	li	a2,0
   16940:	8ee5                	and	a3,a3,s1
   16942:	000d0363          	beqz	s10,16948 <sm2_batch_normalize_mont+0x240>
   16946:	7632                	ld	a2,296(sp)
   16948:	7018                	ld	a4,32(s0)
   1694a:	8ed1                	or	a3,a3,a2
   1694c:	ec14                	sd	a3,24(s0)
   1694e:	4601                	li	a2,0
   16950:	8f65                	and	a4,a4,s1
   16952:	000d0363          	beqz	s10,16958 <sm2_batch_normalize_mont+0x250>
   16956:	7652                	ld	a2,304(sp)
   16958:	7414                	ld	a3,40(s0)
   1695a:	8f51                	or	a4,a4,a2
   1695c:	f018                	sd	a4,32(s0)
   1695e:	4601                	li	a2,0
   16960:	8ee5                	and	a3,a3,s1
   16962:	000d0363          	beqz	s10,16968 <sm2_batch_normalize_mont+0x260>
   16966:	7672                	ld	a2,312(sp)
   16968:	7818                	ld	a4,48(s0)
   1696a:	8ed1                	or	a3,a3,a2
   1696c:	f414                	sd	a3,40(s0)
   1696e:	4681                	li	a3,0
   16970:	8f65                	and	a4,a4,s1
   16972:	000d0363          	beqz	s10,16978 <sm2_batch_normalize_mont+0x270>
   16976:	6696                	ld	a3,320(sp)
   16978:	7c10                	ld	a2,56(s0)
   1697a:	8f55                	or	a4,a4,a3
   1697c:	f818                	sd	a4,48(s0)
   1697e:	4701                	li	a4,0
   16980:	8cf1                	and	s1,s1,a2
   16982:	000d0363          	beqz	s10,16988 <sm2_batch_normalize_mont+0x280>
   16986:	6736                	ld	a4,328(sp)
   16988:	8cd9                	or	s1,s1,a4
   1698a:	fc04                	sd	s1,56(s0)
   1698c:	020c9463          	bnez	s9,169b4 <sm2_batch_normalize_mont+0x2ac>
   16990:	4785                	li	a5,1
   16992:	fa0d8d93          	addi	s11,s11,-96
   16996:	c03c                	sw	a5,64(s0)
   16998:	1b81                	addi	s7,s7,-32
   1699a:	fb840413          	addi	s0,s0,-72
   1699e:	eb2d93e3          	bne	s11,s2,16844 <sm2_batch_normalize_mont+0x13c>
   169a2:	74fa                	ld	s1,440(sp)
   169a4:	79ba                	ld	s3,424(sp)
   169a6:	7a1a                	ld	s4,416(sp)
   169a8:	6afa                	ld	s5,408(sp)
   169aa:	6b5a                	ld	s6,400(sp)
   169ac:	7cf6                	ld	s9,376(sp)
   169ae:	7d56                	ld	s10,368(sp)
   169b0:	7db6                	ld	s11,360(sp)
   169b2:	bbb5                	j	1672e <sm2_batch_normalize_mont+0x26>
   169b4:	fa0d8d93          	addi	s11,s11,-96
   169b8:	1b81                	addi	s7,s7,-32
   169ba:	fb840413          	addi	s0,s0,-72
   169be:	e92d93e3          	bne	s11,s2,16844 <sm2_batch_normalize_mont+0x13c>
   169c2:	74fa                	ld	s1,440(sp)
   169c4:	79ba                	ld	s3,424(sp)
   169c6:	7a1a                	ld	s4,416(sp)
   169c8:	6afa                	ld	s5,408(sp)
   169ca:	6b5a                	ld	s6,400(sp)
   169cc:	7cf6                	ld	s9,376(sp)
   169ce:	7d56                	ld	s10,368(sp)
   169d0:	7db6                	ld	s11,360(sp)
   169d2:	bbb1                	j	1672e <sm2_batch_normalize_mont+0x26>
   169d4:	ff26                	sd	s1,440(sp)
   169d6:	f74e                	sd	s3,424(sp)
   169d8:	f352                	sd	s4,416(sp)
   169da:	ef56                	sd	s5,408(sp)
   169dc:	eb5a                	sd	s6,400(sp)
   169de:	fee6                	sd	s9,376(sp)
   169e0:	faea                	sd	s10,368(sp)
   169e2:	f6ee                	sd	s11,360(sp)
   169e4:	9dcfa0ef          	jal	10bc0 <__stack_chk_fail@plt>

00000000000169e8 <sm2_jacobian_cmov>:
   169e8:	6194                	ld	a3,0(a1)
   169ea:	00167793          	andi	a5,a2,1
   169ee:	40f00733          	neg	a4,a5
   169f2:	0085b303          	ld	t1,8(a1)
   169f6:	00053803          	ld	a6,0(a0)
   169fa:	17fd                	addi	a5,a5,-1
   169fc:	6510                	ld	a2,8(a0)
   169fe:	00d77e33          	and	t3,a4,a3
   16a02:	0105b883          	ld	a7,16(a1)
   16a06:	00677333          	and	t1,a4,t1
   16a0a:	6914                	ld	a3,16(a0)
   16a0c:	0107f833          	and	a6,a5,a6
   16a10:	8e7d                	and	a2,a2,a5
   16a12:	01c86833          	or	a6,a6,t3
   16a16:	00666633          	or	a2,a2,t1
   16a1a:	011778b3          	and	a7,a4,a7
   16a1e:	8efd                	and	a3,a3,a5
   16a20:	0185bf03          	ld	t5,24(a1)
   16a24:	01053023          	sd	a6,0(a0)
   16a28:	0116e6b3          	or	a3,a3,a7
   16a2c:	e510                	sd	a2,8(a0)
   16a2e:	01853883          	ld	a7,24(a0)
   16a32:	0205be83          	ld	t4,32(a1)
   16a36:	e914                	sd	a3,16(a0)
   16a38:	0285be03          	ld	t3,40(a1)
   16a3c:	01e77f33          	and	t5,a4,t5
   16a40:	02053803          	ld	a6,32(a0)
   16a44:	0117f8b3          	and	a7,a5,a7
   16a48:	7510                	ld	a2,40(a0)
   16a4a:	01d77eb3          	and	t4,a4,t4
   16a4e:	0305b303          	ld	t1,48(a1)
   16a52:	01c77e33          	and	t3,a4,t3
   16a56:	7914                	ld	a3,48(a0)
   16a58:	01e8e8b3          	or	a7,a7,t5
   16a5c:	0107f833          	and	a6,a5,a6
   16a60:	8e7d                	and	a2,a2,a5
   16a62:	01d86833          	or	a6,a6,t4
   16a66:	01c66633          	or	a2,a2,t3
   16a6a:	00677333          	and	t1,a4,t1
   16a6e:	01153c23          	sd	a7,24(a0)
   16a72:	8efd                	and	a3,a3,a5
   16a74:	0385bf03          	ld	t5,56(a1)
   16a78:	0066e6b3          	or	a3,a3,t1
   16a7c:	03053023          	sd	a6,32(a0)
   16a80:	f510                	sd	a2,40(a0)
   16a82:	0405b803          	ld	a6,64(a1)
   16a86:	65b0                	ld	a2,72(a1)
   16a88:	f914                	sd	a3,48(a0)
   16a8a:	03853883          	ld	a7,56(a0)
   16a8e:	01e77f33          	and	t5,a4,t5
   16a92:	04053e83          	ld	t4,64(a0)
   16a96:	01077833          	and	a6,a4,a6
   16a9a:	04853e03          	ld	t3,72(a0)
   16a9e:	8e79                	and	a2,a2,a4
   16aa0:	0505b303          	ld	t1,80(a1)
   16aa4:	0117f8b3          	and	a7,a5,a7
   16aa8:	6934                	ld	a3,80(a0)
   16aaa:	01d7feb3          	and	t4,a5,t4
   16aae:	01c7fe33          	and	t3,a5,t3
   16ab2:	01e8e8b3          	or	a7,a7,t5
   16ab6:	01c66633          	or	a2,a2,t3
   16aba:	00677333          	and	t1,a4,t1
   16abe:	8efd                	and	a3,a3,a5
   16ac0:	01d86833          	or	a6,a6,t4
   16ac4:	0066e6b3          	or	a3,a3,t1
   16ac8:	e530                	sd	a2,72(a0)
   16aca:	03153c23          	sd	a7,56(a0)
   16ace:	05053023          	sd	a6,64(a0)
   16ad2:	e934                	sd	a3,80(a0)
   16ad4:	6d30                	ld	a2,88(a0)
   16ad6:	6db4                	ld	a3,88(a1)
   16ad8:	8ff1                	and	a5,a5,a2
   16ada:	8f75                	and	a4,a4,a3
   16adc:	8fd9                	or	a5,a5,a4
   16ade:	ed3c                	sd	a5,88(a0)
   16ae0:	8082                	ret

0000000000016ae2 <sm2_add_ja_mont_scalar_ct>:
   16ae2:	d4010113          	addi	sp,sp,-704
   16ae6:	29413823          	sd	s4,656(sp)
   16aea:	6a75                	lui	s4,0x1d
   16aec:	df0a3783          	ld	a5,-528(s4) # 1cdf0 <__stack_chk_guard@GLIBC_2.27>
   16af0:	26f13423          	sd	a5,616(sp)
   16af4:	4781                	li	a5,0
   16af6:	2a113c23          	sd	ra,696(sp)
   16afa:	2a813823          	sd	s0,688(sp)
   16afe:	842a                	mv	s0,a0
   16b00:	2a913423          	sd	s1,680(sp)
   16b04:	84ae                	mv	s1,a1
   16b06:	2b213023          	sd	s2,672(sp)
   16b0a:	29313c23          	sd	s3,664(sp)
   16b0e:	29513423          	sd	s5,648(sp)
   16b12:	8ab2                	mv	s5,a2
   16b14:	29613023          	sd	s6,640(sp)
   16b18:	04048b13          	addi	s6,s1,64
   16b1c:	27713c23          	sd	s7,632(sp)
   16b20:	020a8b93          	addi	s7,s5,32
   16b24:	27813823          	sd	s8,624(sp)
   16b28:	ecbfe0ef          	jal	159f2 <sm2_curve_init_once_mont>
   16b2c:	64b4                	ld	a3,72(s1)
   16b2e:	85da                	mv	a1,s6
   16b30:	0404b903          	ld	s2,64(s1)
   16b34:	0028                	addi	a0,sp,8
   16b36:	68b8                	ld	a4,80(s1)
   16b38:	02048c13          	addi	s8,s1,32
   16b3c:	6cbc                	ld	a5,88(s1)
   16b3e:	00d96933          	or	s2,s2,a3
   16b42:	040aa983          	lw	s3,64(s5)
   16b46:	00e96933          	or	s2,s2,a4
   16b4a:	00f96933          	or	s2,s2,a5
   16b4e:	37f010ef          	jal	186cc <fp_mont_sqr>
   16b52:	0030                	addi	a2,sp,8
   16b54:	85d6                	mv	a1,s5
   16b56:	00a8                	addi	a0,sp,72
   16b58:	013039b3          	snez	s3,s3
   16b5c:	624010ef          	jal	18180 <fp_mont_mul>
   16b60:	00193913          	seqz	s2,s2
   16b64:	865a                	mv	a2,s6
   16b66:	002c                	addi	a1,sp,8
   16b68:	1028                	addi	a0,sp,40
   16b6a:	616010ef          	jal	18180 <fp_mont_mul>
   16b6e:	1030                	addi	a2,sp,40
   16b70:	85de                	mv	a1,s7
   16b72:	10a8                	addi	a0,sp,104
   16b74:	60c010ef          	jal	18180 <fp_mont_mul>
   16b78:	8626                	mv	a2,s1
   16b7a:	00ac                	addi	a1,sp,72
   16b7c:	0128                	addi	a0,sp,136
   16b7e:	4c6010ef          	jal	18044 <fp_mont_sub>
   16b82:	8662                	mv	a2,s8
   16b84:	10ac                	addi	a1,sp,104
   16b86:	1128                	addi	a0,sp,168
   16b88:	4bc010ef          	jal	18044 <fp_mont_sub>
   16b8c:	0130                	addi	a2,sp,136
   16b8e:	85da                	mv	a1,s6
   16b90:	1328                	addi	a0,sp,424
   16b92:	5ee010ef          	jal	18180 <fp_mont_mul>
   16b96:	012c                	addi	a1,sp,136
   16b98:	01a8                	addi	a0,sp,200
   16b9a:	333010ef          	jal	186cc <fp_mont_sqr>
   16b9e:	0130                	addi	a2,sp,136
   16ba0:	01ac                	addi	a1,sp,200
   16ba2:	11a8                	addi	a0,sp,232
   16ba4:	5dc010ef          	jal	18180 <fp_mont_mul>
   16ba8:	01b0                	addi	a2,sp,200
   16baa:	85a6                	mv	a1,s1
   16bac:	0228                	addi	a0,sp,264
   16bae:	5d2010ef          	jal	18180 <fp_mont_mul>
   16bb2:	0230                	addi	a2,sp,264
   16bb4:	1228                	addi	a0,sp,296
   16bb6:	85b2                	mv	a1,a2
   16bb8:	3e8010ef          	jal	17fa0 <fp_mont_add>
   16bbc:	112c                	addi	a1,sp,168
   16bbe:	02a8                	addi	a0,sp,328
   16bc0:	30d010ef          	jal	186cc <fp_mont_sqr>
   16bc4:	11b0                	addi	a2,sp,232
   16bc6:	02ac                	addi	a1,sp,328
   16bc8:	03a8                	addi	a0,sp,456
   16bca:	47a010ef          	jal	18044 <fp_mont_sub>
   16bce:	1230                	addi	a2,sp,296
   16bd0:	03ac                	addi	a1,sp,456
   16bd2:	12a8                	addi	a0,sp,360
   16bd4:	470010ef          	jal	18044 <fp_mont_sub>
   16bd8:	12b0                	addi	a2,sp,360
   16bda:	022c                	addi	a1,sp,264
   16bdc:	03a8                	addi	a0,sp,456
   16bde:	466010ef          	jal	18044 <fp_mont_sub>
   16be2:	03b0                	addi	a2,sp,456
   16be4:	112c                	addi	a1,sp,168
   16be6:	8532                	mv	a0,a2
   16be8:	598010ef          	jal	18180 <fp_mont_mul>
   16bec:	11b0                	addi	a2,sp,232
   16bee:	85e2                	mv	a1,s8
   16bf0:	0328                	addi	a0,sp,392
   16bf2:	58e010ef          	jal	18180 <fp_mont_mul>
   16bf6:	0330                	addi	a2,sp,392
   16bf8:	03ac                	addi	a1,sp,456
   16bfa:	8532                	mv	a0,a2
   16bfc:	448010ef          	jal	18044 <fp_mont_sub>
   16c00:	77b6                	ld	a5,360(sp)
   16c02:	85d6                	mv	a1,s5
   16c04:	0428                	addi	a0,sp,520
   16c06:	e01c                	sd	a5,0(s0)
   16c08:	77d6                	ld	a5,368(sp)
   16c0a:	e41c                	sd	a5,8(s0)
   16c0c:	77f6                	ld	a5,376(sp)
   16c0e:	e81c                	sd	a5,16(s0)
   16c10:	679a                	ld	a5,384(sp)
   16c12:	ec1c                	sd	a5,24(s0)
   16c14:	67ba                	ld	a5,392(sp)
   16c16:	f01c                	sd	a5,32(s0)
   16c18:	67da                	ld	a5,400(sp)
   16c1a:	f41c                	sd	a5,40(s0)
   16c1c:	67fa                	ld	a5,408(sp)
   16c1e:	f81c                	sd	a5,48(s0)
   16c20:	779a                	ld	a5,416(sp)
   16c22:	fc1c                	sd	a5,56(s0)
   16c24:	77ba                	ld	a5,424(sp)
   16c26:	e03c                	sd	a5,64(s0)
   16c28:	77da                	ld	a5,432(sp)
   16c2a:	e43c                	sd	a5,72(s0)
   16c2c:	77fa                	ld	a5,440(sp)
   16c2e:	e83c                	sd	a5,80(s0)
   16c30:	679e                	ld	a5,448(sp)
   16c32:	ec3c                	sd	a5,88(s0)
   16c34:	813fc0ef          	jal	13446 <fp_copy>
   16c38:	85de                	mv	a1,s7
   16c3a:	1428                	addi	a0,sp,552
   16c3c:	80bfc0ef          	jal	13446 <fp_copy>
   16c40:	04a8                	addi	a0,sp,584
   16c42:	65e9                	lui	a1,0x1a
   16c44:	f1858593          	addi	a1,a1,-232 # 19f18 <FP_MONT_ONE>
   16c48:	ffefc0ef          	jal	13446 <fp_copy>
   16c4c:	13a8                	addi	a0,sp,488
   16c4e:	80bfc0ef          	jal	13458 <fp_set_zero>
   16c52:	fff98793          	addi	a5,s3,-1
   16c56:	4701                	li	a4,0
   16c58:	00098363          	beqz	s3,16c5e <sm2_add_ja_mont_scalar_ct+0x17c>
   16c5c:	773e                	ld	a4,488(sp)
   16c5e:	24813683          	ld	a3,584(sp)
   16c62:	4601                	li	a2,0
   16c64:	8efd                	and	a3,a3,a5
   16c66:	8ed9                	or	a3,a3,a4
   16c68:	25013703          	ld	a4,592(sp)
   16c6c:	24d13423          	sd	a3,584(sp)
   16c70:	8f7d                	and	a4,a4,a5
   16c72:	00098363          	beqz	s3,16c78 <sm2_add_ja_mont_scalar_ct+0x196>
   16c76:	765e                	ld	a2,496(sp)
   16c78:	8f51                	or	a4,a4,a2
   16c7a:	4681                	li	a3,0
   16c7c:	24e13823          	sd	a4,592(sp)
   16c80:	25813703          	ld	a4,600(sp)
   16c84:	8f7d                	and	a4,a4,a5
   16c86:	00098363          	beqz	s3,16c8c <sm2_add_ja_mont_scalar_ct+0x1aa>
   16c8a:	76fe                	ld	a3,504(sp)
   16c8c:	8f55                	or	a4,a4,a3
   16c8e:	26013683          	ld	a3,608(sp)
   16c92:	24e13c23          	sd	a4,600(sp)
   16c96:	4701                	li	a4,0
   16c98:	8ff5                	and	a5,a5,a3
   16c9a:	00098463          	beqz	s3,16ca2 <sm2_add_ja_mont_scalar_ct+0x1c0>
   16c9e:	20013703          	ld	a4,512(sp)
   16ca2:	8fd9                	or	a5,a5,a4
   16ca4:	864a                	mv	a2,s2
   16ca6:	042c                	addi	a1,sp,520
   16ca8:	8522                	mv	a0,s0
   16caa:	26f13023          	sd	a5,608(sp)
   16cae:	d3bff0ef          	jal	169e8 <sm2_jacobian_cmov>
   16cb2:	26813703          	ld	a4,616(sp)
   16cb6:	df0a3783          	ld	a5,-528(s4)
   16cba:	8fb9                	xor	a5,a5,a4
   16cbc:	4701                	li	a4,0
   16cbe:	eb9d                	bnez	a5,16cf4 <sm2_add_ja_mont_scalar_ct+0x212>
   16cc0:	8522                	mv	a0,s0
   16cc2:	2b013403          	ld	s0,688(sp)
   16cc6:	2b813083          	ld	ra,696(sp)
   16cca:	864e                	mv	a2,s3
   16ccc:	2a013903          	ld	s2,672(sp)
   16cd0:	85a6                	mv	a1,s1
   16cd2:	29813983          	ld	s3,664(sp)
   16cd6:	2a813483          	ld	s1,680(sp)
   16cda:	29013a03          	ld	s4,656(sp)
   16cde:	28813a83          	ld	s5,648(sp)
   16ce2:	28013b03          	ld	s6,640(sp)
   16ce6:	27813b83          	ld	s7,632(sp)
   16cea:	27013c03          	ld	s8,624(sp)
   16cee:	2c010113          	addi	sp,sp,704
   16cf2:	b9dd                	j	169e8 <sm2_jacobian_cmov>
   16cf4:	ecdf90ef          	jal	10bc0 <__stack_chk_fail@plt>

0000000000016cf8 <sm2_init_fixedbase_table_mont>:
   16cf8:	7129                	addi	sp,sp,-320
   16cfa:	72fd                	lui	t0,0xfffff
   16cfc:	f9e2                	sd	s8,240(sp)
   16cfe:	6685                	lui	a3,0x1
   16d00:	f5e6                	sd	s9,232(sp)
   16d02:	0a868613          	addi	a2,a3,168 # 10a8 <__abi_tag-0xf210>
   16d06:	fe06                	sd	ra,312(sp)
   16d08:	fa22                	sd	s0,304(sp)
   16d0a:	8181a783          	lw	a5,-2024(gp) # 1d0c8 <T_base_mont_ready>
   16d0e:	f626                	sd	s1,296(sp)
   16d10:	6cf5                	lui	s9,0x1d
   16d12:	f24a                	sd	s2,288(sp)
   16d14:	ee4e                	sd	s3,280(sp)
   16d16:	ea52                	sd	s4,272(sp)
   16d18:	e656                	sd	s5,264(sp)
   16d1a:	e25a                	sd	s6,256(sp)
   16d1c:	fdde                	sd	s7,248(sp)
   16d1e:	9116                	add	sp,sp,t0
   16d20:	1818                	addi	a4,sp,48
   16d22:	963a                	add	a2,a2,a4
   16d24:	df0cb703          	ld	a4,-528(s9) # 1cdf0 <__stack_chk_guard@GLIBC_2.27>
   16d28:	e218                	sd	a4,0(a2)
   16d2a:	4701                	li	a4,0
   16d2c:	cf85                	beqz	a5,16d64 <sm2_init_fixedbase_table_mont+0x6c>
   16d2e:	1818                	addi	a4,sp,48
   16d30:	6785                	lui	a5,0x1
   16d32:	0a878793          	addi	a5,a5,168 # 10a8 <__abi_tag-0xf210>
   16d36:	97ba                	add	a5,a5,a4
   16d38:	6398                	ld	a4,0(a5)
   16d3a:	df0cb783          	ld	a5,-528(s9)
   16d3e:	8fb9                	xor	a5,a5,a4
   16d40:	4701                	li	a4,0
   16d42:	18079d63          	bnez	a5,16edc <sm2_init_fixedbase_table_mont+0x1e4>
   16d46:	6285                	lui	t0,0x1
   16d48:	9116                	add	sp,sp,t0
   16d4a:	70f2                	ld	ra,312(sp)
   16d4c:	7452                	ld	s0,304(sp)
   16d4e:	74b2                	ld	s1,296(sp)
   16d50:	7912                	ld	s2,288(sp)
   16d52:	69f2                	ld	s3,280(sp)
   16d54:	6a52                	ld	s4,272(sp)
   16d56:	6ab2                	ld	s5,264(sp)
   16d58:	6b12                	ld	s6,256(sp)
   16d5a:	7bee                	ld	s7,248(sp)
   16d5c:	7c4e                	ld	s8,240(sp)
   16d5e:	7cae                	ld	s9,232(sp)
   16d60:	6131                	addi	sp,sp,320
   16d62:	8082                	ret
   16d64:	0b068713          	addi	a4,a3,176
   16d68:	77fd                	lui	a5,0xfffff
   16d6a:	f5078793          	addi	a5,a5,-176 # ffffffffffffef50 <__BSS_END__+0xfffffffffffc5838>
   16d6e:	8436                	mv	s0,a3
   16d70:	973e                	add	a4,a4,a5
   16d72:	181c                	addi	a5,sp,48
   16d74:	97ba                	add	a5,a5,a4
   16d76:	7a7d                	lui	s4,0xfffff
   16d78:	853e                	mv	a0,a5
   16d7a:	e43e                	sd	a5,8(sp)
   16d7c:	cc7fe0ef          	jal	15a42 <sm2_get_base_affine_mont>
   16d80:	1a61                	addi	s4,s4,-8 # ffffffffffffeff8 <__BSS_END__+0xfffffffffffc58e0>
   16d82:	0b040713          	addi	a4,s0,176
   16d86:	77fd                	lui	a5,0xfffff
   16d88:	45878793          	addi	a5,a5,1112 # fffffffffffff458 <__BSS_END__+0xfffffffffffc5d40>
   16d8c:	0b040613          	addi	a2,s0,176
   16d90:	973e                	add	a4,a4,a5
   16d92:	181c                	addi	a5,sp,48
   16d94:	97ba                	add	a5,a5,a4
   16d96:	777d                	lui	a4,0xfffff
   16d98:	f9870713          	addi	a4,a4,-104 # ffffffffffffef98 <__BSS_END__+0xfffffffffffc5880>
   16d9c:	ec3e                	sd	a5,24(sp)
   16d9e:	963a                	add	a2,a2,a4
   16da0:	1818                	addi	a4,sp,48
   16da2:	9732                	add	a4,a4,a2
   16da4:	0b040613          	addi	a2,s0,176
   16da8:	f03a                	sd	a4,32(sp)
   16daa:	777d                	lui	a4,0xfffff
   16dac:	963a                	add	a2,a2,a4
   16dae:	1818                	addi	a4,sp,48
   16db0:	9732                	add	a4,a4,a2
   16db2:	77fd                	lui	a5,0xfffff
   16db4:	e83a                	sd	a4,16(sp)
   16db6:	6762                	ld	a4,24(sp)
   16db8:	05878793          	addi	a5,a5,88 # fffffffffffff058 <__BSS_END__+0xfffffffffffc5940>
   16dbc:	6905                	lui	s2,0x1
   16dbe:	6af5                	lui	s5,0x1d
   16dc0:	8b890913          	addi	s2,s2,-1864 # 8b8 <__abi_tag-0xfa00>
   16dc4:	06070b93          	addi	s7,a4,96 # fffffffffffff060 <__BSS_END__+0xfffffffffffc5948>
   16dc8:	0b040713          	addi	a4,s0,176
   16dcc:	973e                	add	a4,a4,a5
   16dce:	181c                	addi	a5,sp,48
   16dd0:	97ba                	add	a5,a5,a4
   16dd2:	1b8a8a93          	addi	s5,s5,440 # 1d1b8 <T_base_mont>
   16dd6:	f43e                	sd	a5,40(sp)
   16dd8:	0b040793          	addi	a5,s0,176
   16ddc:	97d2                	add	a5,a5,s4
   16dde:	1818                	addi	a4,sp,48
   16de0:	6b71                	lui	s6,0x1c
   16de2:	560b0b13          	addi	s6,s6,1376 # 1c560 <__FRAME_END__+0x1258>
   16de6:	9956                	add	s2,s2,s5
   16de8:	9b56                	add	s6,s6,s5
   16dea:	00e78a33          	add	s4,a5,a4
   16dee:	65a2                	ld	a1,8(sp)
   16df0:	4489                	li	s1,2
   16df2:	7502                	ld	a0,32(sp)
   16df4:	49fd                	li	s3,31
   16df6:	dfdfe0ef          	jal	15bf2 <sm2_affine_mont_to_jacobian_mont>
   16dfa:	6442                	ld	s0,16(sp)
   16dfc:	67c2                	ld	a5,16(sp)
   16dfe:	855e                	mv	a0,s7
   16e00:	66c2                	ld	a3,16(sp)
   16e02:	6622                	ld	a2,8(sp)
   16e04:	f987b703          	ld	a4,-104(a5)
   16e08:	fa07b783          	ld	a5,-96(a5)
   16e0c:	fa86b883          	ld	a7,-88(a3)
   16e10:	fb06b803          	ld	a6,-80(a3)
   16e14:	44e43c23          	sd	a4,1112(s0)
   16e18:	fb86b683          	ld	a3,-72(a3)
   16e1c:	46f43023          	sd	a5,1120(s0)
   16e20:	fc043703          	ld	a4,-64(s0)
   16e24:	47143423          	sd	a7,1128(s0)
   16e28:	fc843783          	ld	a5,-56(s0)
   16e2c:	47043823          	sd	a6,1136(s0)
   16e30:	fd043883          	ld	a7,-48(s0)
   16e34:	46d43c23          	sd	a3,1144(s0)
   16e38:	fd843803          	ld	a6,-40(s0)
   16e3c:	48e43023          	sd	a4,1152(s0)
   16e40:	fe043683          	ld	a3,-32(s0)
   16e44:	48f43423          	sd	a5,1160(s0)
   16e48:	fe843703          	ld	a4,-24(s0)
   16e4c:	49143823          	sd	a7,1168(s0)
   16e50:	ff043783          	ld	a5,-16(s0)
   16e54:	49043c23          	sd	a6,1176(s0)
   16e58:	65e2                	ld	a1,24(sp)
   16e5a:	4ad43023          	sd	a3,1184(s0)
   16e5e:	4ae43423          	sd	a4,1192(s0)
   16e62:	4af43823          	sd	a5,1200(s0)
   16e66:	b4aff0ef          	jal	161b0 <sm2_add_ja_mont>
   16e6a:	67e2                	ld	a5,24(sp)
   16e6c:	0c078413          	addi	s0,a5,192
   16e70:	6622                	ld	a2,8(sp)
   16e72:	fa040593          	addi	a1,s0,-96
   16e76:	8522                	mv	a0,s0
   16e78:	2485                	addiw	s1,s1,1
   16e7a:	06040413          	addi	s0,s0,96
   16e7e:	c65ff0ef          	jal	16ae2 <sm2_add_ja_mont_scalar_ct>
   16e82:	ff3497e3          	bne	s1,s3,16e70 <sm2_init_fixedbase_table_mont+0x178>
   16e86:	76a2                	ld	a3,40(sp)
   16e88:	8556                	mv	a0,s5
   16e8a:	65e2                	ld	a1,24(sp)
   16e8c:	467d                	li	a2,31
   16e8e:	87bff0ef          	jal	16708 <sm2_batch_normalize_mont>
   16e92:	87d6                	mv	a5,s5
   16e94:	0407a023          	sw	zero,64(a5)
   16e98:	04878793          	addi	a5,a5,72
   16e9c:	ff279ce3          	bne	a5,s2,16e94 <sm2_init_fixedbase_table_mont+0x19c>
   16ea0:	01679663          	bne	a5,s6,16eac <sm2_init_fixedbase_table_mont+0x1b4>
   16ea4:	4785                	li	a5,1
   16ea6:	80f1ac23          	sw	a5,-2024(gp) # 1d0c8 <T_base_mont_ready>
   16eaa:	b551                	j	16d2e <sm2_init_fixedbase_table_mont+0x36>
   16eac:	65a2                	ld	a1,8(sp)
   16eae:	8552                	mv	a0,s4
   16eb0:	4415                	li	s0,5
   16eb2:	d41fe0ef          	jal	15bf2 <sm2_affine_mont_to_jacobian_mont>
   16eb6:	85d2                	mv	a1,s4
   16eb8:	8552                	mv	a0,s4
   16eba:	347d                	addiw	s0,s0,-1
   16ebc:	96aff0ef          	jal	16026 <sm2_double_jm_a_minus3_mont>
   16ec0:	f87d                	bnez	s0,16eb6 <sm2_init_fixedbase_table_mont+0x1be>
   16ec2:	6522                	ld	a0,8(sp)
   16ec4:	85d2                	mv	a1,s4
   16ec6:	de1fe0ef          	jal	15ca6 <sm2_jacobian_mont_to_affine_mont>
   16eca:	67c2                	ld	a5,16(sp)
   16ecc:	f807a823          	sw	zero,-112(a5)
   16ed0:	6785                	lui	a5,0x1
   16ed2:	8b878793          	addi	a5,a5,-1864 # 8b8 <__abi_tag-0xfa00>
   16ed6:	9abe                	add	s5,s5,a5
   16ed8:	993e                	add	s2,s2,a5
   16eda:	bf11                	j	16dee <sm2_init_fixedbase_table_mont+0xf6>
   16edc:	ce5f90ef          	jal	10bc0 <__stack_chk_fail@plt>

0000000000016ee0 <sm2_scalar_mul_window_ct_schemeB_mont_core.part.0>:
   16ee0:	81010113          	addi	sp,sp,-2032
   16ee4:	6705                	lui	a4,0x1
   16ee6:	7e113423          	sd	ra,2024(sp)
   16eea:	d1070693          	addi	a3,a4,-752 # d10 <__abi_tag-0xf5a8>
   16eee:	7e813023          	sd	s0,2016(sp)
   16ef2:	77fd                	lui	a5,0xfffff
   16ef4:	7c913c23          	sd	s1,2008(sp)
   16ef8:	2f878793          	addi	a5,a5,760 # fffffffffffff2f8 <__BSS_END__+0xfffffffffffc5be0>
   16efc:	7d213823          	sd	s2,2000(sp)
   16f00:	96be                	add	a3,a3,a5
   16f02:	7d313423          	sd	s3,1992(sp)
   16f06:	84ba                	mv	s1,a4
   16f08:	7d413023          	sd	s4,1984(sp)
   16f0c:	d0870713          	addi	a4,a4,-760
   16f10:	7b513c23          	sd	s5,1976(sp)
   16f14:	89aa                	mv	s3,a0
   16f16:	7b613823          	sd	s6,1968(sp)
   16f1a:	8a2e                	mv	s4,a1
   16f1c:	7b713423          	sd	s7,1960(sp)
   16f20:	8432                	mv	s0,a2
   16f22:	7b813023          	sd	s8,1952(sp)
   16f26:	4909                	li	s2,2
   16f28:	79913c23          	sd	s9,1944(sp)
   16f2c:	4ac1                	li	s5,16
   16f2e:	79a13823          	sd	s10,1936(sp)
   16f32:	79b13423          	sd	s11,1928(sp)
   16f36:	a4010113          	addi	sp,sp,-1472
   16f3a:	181c                	addi	a5,sp,48
   16f3c:	973e                	add	a4,a4,a5
   16f3e:	00f68533          	add	a0,a3,a5
   16f42:	66f5                	lui	a3,0x1d
   16f44:	df06b783          	ld	a5,-528(a3) # 1cdf0 <__stack_chk_guard@GLIBC_2.27>
   16f48:	e31c                	sd	a5,0(a4)
   16f4a:	4781                	li	a5,0
   16f4c:	ca7fe0ef          	jal	15bf2 <sm2_affine_mont_to_jacobian_mont>
   16f50:	d1048713          	addi	a4,s1,-752
   16f54:	77fd                	lui	a5,0xfffff
   16f56:	973e                	add	a4,a4,a5
   16f58:	181c                	addi	a5,sp,48
   16f5a:	97ba                	add	a5,a5,a4
   16f5c:	8652                	mv	a2,s4
   16f5e:	e43e                	sd	a5,8(sp)
   16f60:	2f87b703          	ld	a4,760(a5) # fffffffffffff2f8 <__BSS_END__+0xfffffffffffc5be0>
   16f64:	3007b783          	ld	a5,768(a5)
   16f68:	73810593          	addi	a1,sp,1848
   16f6c:	66a2                	ld	a3,8(sp)
   16f6e:	79810513          	addi	a0,sp,1944
   16f72:	72e13c23          	sd	a4,1848(sp)
   16f76:	6722                	ld	a4,8(sp)
   16f78:	74f13023          	sd	a5,1856(sp)
   16f7c:	67a2                	ld	a5,8(sp)
   16f7e:	64a2                	ld	s1,8(sp)
   16f80:	3086b883          	ld	a7,776(a3)
   16f84:	3106b803          	ld	a6,784(a3)
   16f88:	32073703          	ld	a4,800(a4)
   16f8c:	3186b683          	ld	a3,792(a3)
   16f90:	75113423          	sd	a7,1864(sp)
   16f94:	3287b783          	ld	a5,808(a5)
   16f98:	75013823          	sd	a6,1872(sp)
   16f9c:	3304b883          	ld	a7,816(s1)
   16fa0:	76e13023          	sd	a4,1888(sp)
   16fa4:	3384b803          	ld	a6,824(s1)
   16fa8:	74d13c23          	sd	a3,1880(sp)
   16fac:	3484b703          	ld	a4,840(s1)
   16fb0:	76f13423          	sd	a5,1896(sp)
   16fb4:	3404b683          	ld	a3,832(s1)
   16fb8:	77113823          	sd	a7,1904(sp)
   16fbc:	3504b783          	ld	a5,848(s1)
   16fc0:	7f810493          	addi	s1,sp,2040
   16fc4:	77013c23          	sd	a6,1912(sp)
   16fc8:	78d13023          	sd	a3,1920(sp)
   16fcc:	78e13423          	sd	a4,1928(sp)
   16fd0:	78f13823          	sd	a5,1936(sp)
   16fd4:	9dcff0ef          	jal	161b0 <sm2_add_ja_mont>
   16fd8:	fa048593          	addi	a1,s1,-96
   16fdc:	8526                	mv	a0,s1
   16fde:	8652                	mv	a2,s4
   16fe0:	2905                	addiw	s2,s2,1
   16fe2:	06048493          	addi	s1,s1,96
   16fe6:	afdff0ef          	jal	16ae2 <sm2_add_ja_mont_scalar_ct>
   16fea:	ff5917e3          	bne	s2,s5,16fd8 <sm2_scalar_mul_window_ct_schemeB_mont_core.part.0+0xf8>
   16fee:	6705                	lui	a4,0x1
   16ff0:	77fd                	lui	a5,0xfffff
   16ff2:	d1070693          	addi	a3,a4,-752 # d10 <__abi_tag-0xf5a8>
   16ff6:	35878793          	addi	a5,a5,856 # fffffffffffff358 <__BSS_END__+0xfffffffffffc5c40>
   16ffa:	96be                	add	a3,a3,a5
   16ffc:	181c                	addi	a5,sp,48
   16ffe:	97b6                	add	a5,a5,a3
   17000:	7a7d                	lui	s4,0xfffff
   17002:	86be                	mv	a3,a5
   17004:	e83e                	sd	a5,16(sp)
   17006:	578a0a13          	addi	s4,s4,1400 # fffffffffffff578 <__BSS_END__+0xfffffffffffc5e60>
   1700a:	d1070793          	addi	a5,a4,-752
   1700e:	84ba                	mv	s1,a4
   17010:	97d2                	add	a5,a5,s4
   17012:	1818                	addi	a4,sp,48
   17014:	73810593          	addi	a1,sp,1848
   17018:	00e78533          	add	a0,a5,a4
   1701c:	4641                	li	a2,16
   1701e:	eeaff0ef          	jal	16708 <sm2_batch_normalize_mont>
   17022:	58012023          	sw	zero,1408(sp)
   17026:	00044783          	lbu	a5,0(s0)
   1702a:	d1048613          	addi	a2,s1,-752
   1702e:	00144703          	lbu	a4,1(s0)
   17032:	76fd                	lui	a3,0xfffff
   17034:	00244583          	lbu	a1,2(s0)
   17038:	9636                	add	a2,a2,a3
   1703a:	07a2                	slli	a5,a5,0x8
   1703c:	1814                	addi	a3,sp,48
   1703e:	8fd9                	or	a5,a5,a4
   17040:	96b2                	add	a3,a3,a2
   17042:	07a2                	slli	a5,a5,0x8
   17044:	00344603          	lbu	a2,3(s0)
   17048:	8fcd                	or	a5,a5,a1
   1704a:	00944303          	lbu	t1,9(s0)
   1704e:	07a2                	slli	a5,a5,0x8
   17050:	00a44503          	lbu	a0,10(s0)
   17054:	8e5d                	or	a2,a2,a5
   17056:	00844783          	lbu	a5,8(s0)
   1705a:	00444703          	lbu	a4,4(s0)
   1705e:	e436                	sd	a3,8(sp)
   17060:	00b44583          	lbu	a1,11(s0)
   17064:	5a06ac23          	sw	zero,1464(a3) # fffffffffffff5b8 <__BSS_END__+0xfffffffffffc5ea0>
   17068:	07a2                	slli	a5,a5,0x8
   1706a:	00544683          	lbu	a3,5(s0)
   1706e:	0067e7b3          	or	a5,a5,t1
   17072:	0622                	slli	a2,a2,0x8
   17074:	07a2                	slli	a5,a5,0x8
   17076:	8f51                	or	a4,a4,a2
   17078:	8fc9                	or	a5,a5,a0
   1707a:	00c44603          	lbu	a2,12(s0)
   1707e:	07a2                	slli	a5,a5,0x8
   17080:	00644803          	lbu	a6,6(s0)
   17084:	0722                	slli	a4,a4,0x8
   17086:	8fcd                	or	a5,a5,a1
   17088:	64a2                	ld	s1,8(sp)
   1708a:	8ed9                	or	a3,a3,a4
   1708c:	07a2                	slli	a5,a5,0x8
   1708e:	00d44703          	lbu	a4,13(s0)
   17092:	06a2                	slli	a3,a3,0x8
   17094:	8fd1                	or	a5,a5,a2
   17096:	00d86833          	or	a6,a6,a3
   1709a:	07a2                	slli	a5,a5,0x8
   1709c:	00e44683          	lbu	a3,14(s0)
   170a0:	8fd9                	or	a5,a5,a4
   170a2:	6004a023          	sw	zero,1536(s1)
   170a6:	00744883          	lbu	a7,7(s0)
   170aa:	6404a423          	sw	zero,1608(s1)
   170ae:	07a2                	slli	a5,a5,0x8
   170b0:	6804a823          	sw	zero,1680(s1)
   170b4:	8edd                	or	a3,a3,a5
   170b6:	6c04ac23          	sw	zero,1752(s1)
   170ba:	06a2                	slli	a3,a3,0x8
   170bc:	7204a023          	sw	zero,1824(s1)
   170c0:	0822                	slli	a6,a6,0x8
   170c2:	7604a423          	sw	zero,1896(s1)
   170c6:	0108e833          	or	a6,a7,a6
   170ca:	7a04a823          	sw	zero,1968(s1)
   170ce:	854e                	mv	a0,s3
   170d0:	7e04ac23          	sw	zero,2040(s1)
   170d4:	0fe00b93          	li	s7,254
   170d8:	5c012423          	sw	zero,1480(sp)
   170dc:	03300c13          	li	s8,51
   170e0:	60012823          	sw	zero,1552(sp)
   170e4:	64012c23          	sw	zero,1624(sp)
   170e8:	6a012023          	sw	zero,1696(sp)
   170ec:	6e012423          	sw	zero,1768(sp)
   170f0:	72012823          	sw	zero,1840(sp)
   170f4:	00f44583          	lbu	a1,15(s0)
   170f8:	01044703          	lbu	a4,16(s0)
   170fc:	3104b823          	sd	a6,784(s1)
   17100:	01844783          	lbu	a5,24(s0)
   17104:	01144603          	lbu	a2,17(s0)
   17108:	8dd5                	or	a1,a1,a3
   1710a:	01944683          	lbu	a3,25(s0)
   1710e:	0722                	slli	a4,a4,0x8
   17110:	01244883          	lbu	a7,18(s0)
   17114:	07a2                	slli	a5,a5,0x8
   17116:	01a44803          	lbu	a6,26(s0)
   1711a:	8f51                	or	a4,a4,a2
   1711c:	8fd5                	or	a5,a5,a3
   1711e:	01344603          	lbu	a2,19(s0)
   17122:	01b44683          	lbu	a3,27(s0)
   17126:	0722                	slli	a4,a4,0x8
   17128:	07a2                	slli	a5,a5,0x8
   1712a:	00e8e733          	or	a4,a7,a4
   1712e:	00f867b3          	or	a5,a6,a5
   17132:	01444883          	lbu	a7,20(s0)
   17136:	01c44803          	lbu	a6,28(s0)
   1713a:	0722                	slli	a4,a4,0x8
   1713c:	07a2                	slli	a5,a5,0x8
   1713e:	8f51                	or	a4,a4,a2
   17140:	8fd5                	or	a5,a5,a3
   17142:	01544603          	lbu	a2,21(s0)
   17146:	01d44683          	lbu	a3,29(s0)
   1714a:	0722                	slli	a4,a4,0x8
   1714c:	07a2                	slli	a5,a5,0x8
   1714e:	00e8e8b3          	or	a7,a7,a4
   17152:	00f86833          	or	a6,a6,a5
   17156:	01644703          	lbu	a4,22(s0)
   1715a:	01e44783          	lbu	a5,30(s0)
   1715e:	08a2                	slli	a7,a7,0x8
   17160:	0822                	slli	a6,a6,0x8
   17162:	01166633          	or	a2,a2,a7
   17166:	0106e6b3          	or	a3,a3,a6
   1716a:	0622                	slli	a2,a2,0x8
   1716c:	01744803          	lbu	a6,23(s0)
   17170:	06a2                	slli	a3,a3,0x8
   17172:	01f44403          	lbu	s0,31(s0)
   17176:	8f51                	or	a4,a4,a2
   17178:	8fd5                	or	a5,a5,a3
   1717a:	0722                	slli	a4,a4,0x8
   1717c:	07a2                	slli	a5,a5,0x8
   1717e:	00e86733          	or	a4,a6,a4
   17182:	8c5d                	or	s0,s0,a5
   17184:	30e4b023          	sd	a4,768(s1)
   17188:	2e84bc23          	sd	s0,760(s1)
   1718c:	30b4b423          	sd	a1,776(s1)
   17190:	97bfe0ef          	jal	15b0a <sm2_jacobian_set_infinity_mont>
   17194:	0014179b          	slliw	a5,s0,0x1
   17198:	6742                	ld	a4,16(sp)
   1719a:	887d                	andi	s0,s0,31
   1719c:	8bfd                	andi	a5,a5,31
   1719e:	40878d3b          	subw	s10,a5,s0
   171a2:	f46a                	sd	s10,40(sp)
   171a4:	02070c93          	addi	s9,a4,32
   171a8:	8d52                	mv	s10,s4
   171aa:	85ce                	mv	a1,s3
   171ac:	854e                	mv	a0,s3
   171ae:	e79fe0ef          	jal	16026 <sm2_double_jm_a_minus3_mont>
   171b2:	85ce                	mv	a1,s3
   171b4:	854e                	mv	a0,s3
   171b6:	e71fe0ef          	jal	16026 <sm2_double_jm_a_minus3_mont>
   171ba:	85ce                	mv	a1,s3
   171bc:	854e                	mv	a0,s3
   171be:	e69fe0ef          	jal	16026 <sm2_double_jm_a_minus3_mont>
   171c2:	85ce                	mv	a1,s3
   171c4:	854e                	mv	a0,s3
   171c6:	e61fe0ef          	jal	16026 <sm2_double_jm_a_minus3_mont>
   171ca:	85ce                	mv	a1,s3
   171cc:	854e                	mv	a0,s3
   171ce:	e59fe0ef          	jal	16026 <sm2_double_jm_a_minus3_mont>
   171d2:	77a2                	ld	a5,40(sp)
   171d4:	040c0a63          	beqz	s8,17228 <sm2_scalar_mul_window_ct_schemeB_mont_core.part.0+0x348>
   171d8:	1810                	addi	a2,sp,48
   171da:	6785                	lui	a5,0x1
   171dc:	d1078793          	addi	a5,a5,-752 # d10 <__abi_tag-0xf5a8>
   171e0:	406bd713          	srai	a4,s7,0x6
   171e4:	97b2                	add	a5,a5,a2
   171e6:	03fbf693          	andi	a3,s7,63
   171ea:	20f76733          	sh3add	a4,a4,a5
   171ee:	04000793          	li	a5,64
   171f2:	40d7863b          	subw	a2,a5,a3
   171f6:	77fd                	lui	a5,0xfffff
   171f8:	973e                	add	a4,a4,a5
   171fa:	000b859b          	sext.w	a1,s7
   171fe:	2f873783          	ld	a5,760(a4)
   17202:	00d7d7b3          	srl	a5,a5,a3
   17206:	4695                	li	a3,5
   17208:	00c6cb63          	blt	a3,a2,1721e <sm2_scalar_mul_window_ct_schemeB_mont_core.part.0+0x33e>
   1720c:	0bf00693          	li	a3,191
   17210:	00b6c763          	blt	a3,a1,1721e <sm2_scalar_mul_window_ct_schemeB_mont_core.part.0+0x33e>
   17214:	30073703          	ld	a4,768(a4)
   17218:	00c71733          	sll	a4,a4,a2
   1721c:	8fd9                	or	a5,a5,a4
   1721e:	0017d713          	srli	a4,a5,0x1
   17222:	8bfd                	andi	a5,a5,31
   17224:	8b7d                	andi	a4,a4,31
   17226:	9f99                	subw	a5,a5,a4
   17228:	6542                	ld	a0,16(sp)
   1722a:	41f7d41b          	sraiw	s0,a5,0x1f
   1722e:	8fa1                	xor	a5,a5,s0
   17230:	4b45                	li	s6,17
   17232:	40878abb          	subw	s5,a5,s0
   17236:	a22fc0ef          	jal	13458 <fp_set_zero>
   1723a:	8566                	mv	a0,s9
   1723c:	a1cfc0ef          	jal	13458 <fp_set_zero>
   17240:	f062                	sd	s8,32(sp)
   17242:	67a2                	ld	a5,8(sp)
   17244:	1818                	addi	a4,sp,48
   17246:	8c5e                	mv	s8,s7
   17248:	ec22                	sd	s0,24(sp)
   1724a:	8bce                	mv	s7,s3
   1724c:	4605                	li	a2,1
   1724e:	3587b903          	ld	s2,856(a5) # fffffffffffff358 <__BSS_END__+0xfffffffffffc5c40>
   17252:	4585                	li	a1,1
   17254:	3607b483          	ld	s1,864(a5)
   17258:	6785                	lui	a5,0x1
   1725a:	d1078793          	addi	a5,a5,-752 # d10 <__abi_tag-0xf5a8>
   1725e:	97ea                	add	a5,a5,s10
   17260:	973e                	add	a4,a4,a5
   17262:	67a2                	ld	a5,8(sp)
   17264:	3887b803          	ld	a6,904(a5)
   17268:	3687b083          	ld	ra,872(a5)
   1726c:	3707b283          	ld	t0,880(a5)
   17270:	3787bf03          	ld	t5,888(a5)
   17274:	8ec2                	mv	t4,a6
   17276:	3807be03          	ld	t3,896(a5)
   1727a:	3907ba03          	ld	s4,912(a5)
   1727e:	00bac7b3          	xor	a5,s5,a1
   17282:	04072303          	lw	t1,64(a4)
   17286:	fff7869b          	addiw	a3,a5,-1
   1728a:	00073883          	ld	a7,0(a4)
   1728e:	40f6f7b3          	andn	a5,a3,a5
   17292:	00873803          	ld	a6,8(a4)
   17296:	01f7d39b          	srliw	t2,a5,0x1f
   1729a:	6b08                	ld	a0,16(a4)
   1729c:	01873983          	ld	s3,24(a4)
   172a0:	40767633          	andn	a2,a2,t2
   172a4:	7300                	ld	s0,32(a4)
   172a6:	00737333          	and	t1,t1,t2
   172aa:	03073f83          	ld	t6,48(a4)
   172ae:	01f7d79b          	srliw	a5,a5,0x1f
   172b2:	02873383          	ld	t2,40(a4)
   172b6:	40f006b3          	neg	a3,a5
   172ba:	03873d83          	ld	s11,56(a4)
   172be:	17fd                	addi	a5,a5,-1
   172c0:	0116f8b3          	and	a7,a3,a7
   172c4:	00f97933          	and	s2,s2,a5
   172c8:	0106f833          	and	a6,a3,a6
   172cc:	8cfd                	and	s1,s1,a5
   172ce:	8d75                	and	a0,a0,a3
   172d0:	00f0f0b3          	and	ra,ra,a5
   172d4:	0136f9b3          	and	s3,a3,s3
   172d8:	00f2f2b3          	and	t0,t0,a5
   172dc:	8c75                	and	s0,s0,a3
   172de:	00ff7f33          	and	t5,t5,a5
   172e2:	0076f3b3          	and	t2,a3,t2
   172e6:	00fe7e33          	and	t3,t3,a5
   172ea:	01f6ffb3          	and	t6,a3,t6
   172ee:	00fefeb3          	and	t4,t4,a5
   172f2:	01b6f6b3          	and	a3,a3,s11
   172f6:	00fa77b3          	and	a5,s4,a5
   172fa:	00666633          	or	a2,a2,t1
   172fe:	2585                	addiw	a1,a1,1
   17300:	0128e933          	or	s2,a7,s2
   17304:	009864b3          	or	s1,a6,s1
   17308:	001560b3          	or	ra,a0,ra
   1730c:	0059e2b3          	or	t0,s3,t0
   17310:	01e46f33          	or	t5,s0,t5
   17314:	01c3ee33          	or	t3,t2,t3
   17318:	01dfeeb3          	or	t4,t6,t4
   1731c:	00f6ea33          	or	s4,a3,a5
   17320:	2601                	sext.w	a2,a2
   17322:	04870713          	addi	a4,a4,72
   17326:	f5659ce3          	bne	a1,s6,1727e <sm2_scalar_mul_window_ct_schemeB_mont_core.part.0+0x39e>
   1732a:	67a2                	ld	a5,8(sp)
   1732c:	85e6                	mv	a1,s9
   1732e:	73810513          	addi	a0,sp,1848
   17332:	89de                	mv	s3,s7
   17334:	6462                	ld	s0,24(sp)
   17336:	8be2                	mv	s7,s8
   17338:	3617b423          	sd	ra,872(a5)
   1733c:	7c02                	ld	s8,32(sp)
   1733e:	3657b823          	sd	t0,880(a5)
   17342:	3bed                	addiw	s7,s7,-5
   17344:	37e7bc23          	sd	t5,888(a5)
   17348:	39c7b023          	sd	t3,896(a5)
   1734c:	3c7d                	addiw	s8,s8,-1
   1734e:	39d7b423          	sd	t4,904(a5)
   17352:	38c7ac23          	sw	a2,920(a5)
   17356:	3527bc23          	sd	s2,856(a5)
   1735a:	3697b023          	sd	s1,864(a5)
   1735e:	3947b823          	sd	s4,912(a5)
   17362:	58f000ef          	jal	180f0 <fp_mont_neg>
   17366:	67a2                	ld	a5,8(sp)
   17368:	6722                	ld	a4,8(sp)
   1736a:	73813883          	ld	a7,1848(sp)
   1736e:	3787b603          	ld	a2,888(a5)
   17372:	00147793          	andi	a5,s0,1
   17376:	38073583          	ld	a1,896(a4)
   1737a:	40f00733          	neg	a4,a5
   1737e:	74013803          	ld	a6,1856(sp)
   17382:	17fd                	addi	a5,a5,-1
   17384:	66a2                	ld	a3,8(sp)
   17386:	8e7d                	and	a2,a2,a5
   17388:	6522                	ld	a0,8(sp)
   1738a:	8dfd                	and	a1,a1,a5
   1738c:	011778b3          	and	a7,a4,a7
   17390:	01077833          	and	a6,a4,a6
   17394:	3886b683          	ld	a3,904(a3)
   17398:	00c8e8b3          	or	a7,a7,a2
   1739c:	39053503          	ld	a0,912(a0)
   173a0:	00b86833          	or	a6,a6,a1
   173a4:	74813603          	ld	a2,1864(sp)
   173a8:	75013583          	ld	a1,1872(sp)
   173ac:	8efd                	and	a3,a3,a5
   173ae:	8fe9                	and	a5,a5,a0
   173b0:	73810513          	addi	a0,sp,1848
   173b4:	8e79                	and	a2,a2,a4
   173b6:	8f6d                	and	a4,a4,a1
   173b8:	8ed1                	or	a3,a3,a2
   173ba:	8fd9                	or	a5,a5,a4
   173bc:	6722                	ld	a4,8(sp)
   173be:	6642                	ld	a2,16(sp)
   173c0:	85ce                	mv	a1,s3
   173c2:	38f73823          	sd	a5,912(a4)
   173c6:	37173c23          	sd	a7,888(a4)
   173ca:	39073023          	sd	a6,896(a4)
   173ce:	38d73423          	sd	a3,904(a4)
   173d2:	f10ff0ef          	jal	16ae2 <sm2_add_ja_mont_scalar_ct>
   173d6:	73813703          	ld	a4,1848(sp)
   173da:	57fd                	li	a5,-1
   173dc:	00e9b023          	sd	a4,0(s3)
   173e0:	74013703          	ld	a4,1856(sp)
   173e4:	00e9b423          	sd	a4,8(s3)
   173e8:	74813703          	ld	a4,1864(sp)
   173ec:	00e9b823          	sd	a4,16(s3)
   173f0:	75013703          	ld	a4,1872(sp)
   173f4:	00e9bc23          	sd	a4,24(s3)
   173f8:	75813703          	ld	a4,1880(sp)
   173fc:	02e9b023          	sd	a4,32(s3)
   17400:	76013703          	ld	a4,1888(sp)
   17404:	02e9b423          	sd	a4,40(s3)
   17408:	76813703          	ld	a4,1896(sp)
   1740c:	02e9b823          	sd	a4,48(s3)
   17410:	77013703          	ld	a4,1904(sp)
   17414:	02e9bc23          	sd	a4,56(s3)
   17418:	77813703          	ld	a4,1912(sp)
   1741c:	04e9b023          	sd	a4,64(s3)
   17420:	78013703          	ld	a4,1920(sp)
   17424:	04e9b423          	sd	a4,72(s3)
   17428:	78813703          	ld	a4,1928(sp)
   1742c:	04e9b823          	sd	a4,80(s3)
   17430:	79013703          	ld	a4,1936(sp)
   17434:	04e9bc23          	sd	a4,88(s3)
   17438:	d6fc19e3          	bne	s8,a5,171aa <sm2_scalar_mul_window_ct_schemeB_mont_core.part.0+0x2ca>
   1743c:	1818                	addi	a4,sp,48
   1743e:	6785                	lui	a5,0x1
   17440:	d0878793          	addi	a5,a5,-760 # d08 <__abi_tag-0xf5b0>
   17444:	66f5                	lui	a3,0x1d
   17446:	97ba                	add	a5,a5,a4
   17448:	6398                	ld	a4,0(a5)
   1744a:	df06b783          	ld	a5,-528(a3) # 1cdf0 <__stack_chk_guard@GLIBC_2.27>
   1744e:	8fb9                	xor	a5,a5,a4
   17450:	4701                	li	a4,0
   17452:	e3a1                	bnez	a5,17492 <sm2_scalar_mul_window_ct_schemeB_mont_core.part.0+0x5b2>
   17454:	5c010113          	addi	sp,sp,1472
   17458:	7e813083          	ld	ra,2024(sp)
   1745c:	7e013403          	ld	s0,2016(sp)
   17460:	7d813483          	ld	s1,2008(sp)
   17464:	7d013903          	ld	s2,2000(sp)
   17468:	7c813983          	ld	s3,1992(sp)
   1746c:	7c013a03          	ld	s4,1984(sp)
   17470:	7b813a83          	ld	s5,1976(sp)
   17474:	7b013b03          	ld	s6,1968(sp)
   17478:	7a813b83          	ld	s7,1960(sp)
   1747c:	7a013c03          	ld	s8,1952(sp)
   17480:	79813c83          	ld	s9,1944(sp)
   17484:	79013d03          	ld	s10,1936(sp)
   17488:	78813d83          	ld	s11,1928(sp)
   1748c:	7f010113          	addi	sp,sp,2032
   17490:	8082                	ret
   17492:	f2ef90ef          	jal	10bc0 <__stack_chk_fail@plt>

0000000000017496 <sm2_scalar_mul_window_ct_schemeB_mont_core>:
   17496:	7161                	addi	sp,sp,-432
   17498:	f322                	sd	s0,416(sp)
   1749a:	842a                	mv	s0,a0
   1749c:	e6ee                	sd	s11,328(sp)
   1749e:	852e                	mv	a0,a1
   174a0:	6df5                	lui	s11,0x1d
   174a2:	df0db783          	ld	a5,-528(s11) # 1cdf0 <__stack_chk_guard@GLIBC_2.27>
   174a6:	fe3e                	sd	a5,312(sp)
   174a8:	4781                	li	a5,0
   174aa:	ef26                	sd	s1,408(sp)
   174ac:	84b2                	mv	s1,a2
   174ae:	eb4a                	sd	s2,400(sp)
   174b0:	892e                	mv	s2,a1
   174b2:	f706                	sd	ra,424(sp)
   174b4:	d0cfe0ef          	jal	159c0 <sm2_affine_is_infinity>
   174b8:	1c051963          	bnez	a0,1768a <sm2_scalar_mul_window_ct_schemeB_mont_core+0x1f4>
   174bc:	4090073b          	negw	a4,s1
   174c0:	00777613          	andi	a2,a4,7
   174c4:	50060063          	beqz	a2,179c4 <sm2_scalar_mul_window_ct_schemeB_mont_core+0x52e>
   174c8:	00677693          	andi	a3,a4,6
   174cc:	0004c783          	lbu	a5,0(s1)
   174d0:	4e068f63          	beqz	a3,179ce <sm2_scalar_mul_window_ct_schemeB_mont_core+0x538>
   174d4:	0014c583          	lbu	a1,1(s1)
   174d8:	4689                	li	a3,2
   174da:	8fcd                	or	a5,a5,a1
   174dc:	4ec6fc63          	bgeu	a3,a2,179d4 <sm2_scalar_mul_window_ct_schemeB_mont_core+0x53e>
   174e0:	0024c683          	lbu	a3,2(s1)
   174e4:	8b11                	andi	a4,a4,4
   174e6:	8fd5                	or	a5,a5,a3
   174e8:	1c070163          	beqz	a4,176aa <sm2_scalar_mul_window_ct_schemeB_mont_core+0x214>
   174ec:	0034c683          	lbu	a3,3(s1)
   174f0:	4711                	li	a4,4
   174f2:	8fd5                	or	a5,a5,a3
   174f4:	4cc77563          	bgeu	a4,a2,179be <sm2_scalar_mul_window_ct_schemeB_mont_core+0x528>
   174f8:	0044c683          	lbu	a3,4(s1)
   174fc:	4715                	li	a4,5
   174fe:	8fd5                	or	a5,a5,a3
   17500:	4ae60c63          	beq	a2,a4,179b8 <sm2_scalar_mul_window_ct_schemeB_mont_core+0x522>
   17504:	0054c683          	lbu	a3,5(s1)
   17508:	471d                	li	a4,7
   1750a:	8fd5                	or	a5,a5,a3
   1750c:	4ee61163          	bne	a2,a4,179ee <sm2_scalar_mul_window_ct_schemeB_mont_core+0x558>
   17510:	0064c703          	lbu	a4,6(s1)
   17514:	45e5                	li	a1,25
   17516:	469d                	li	a3,7
   17518:	8fd9                	or	a5,a5,a4
   1751a:	00c48833          	add	a6,s1,a2
   1751e:	02000513          	li	a0,32
   17522:	00083703          	ld	a4,0(a6)
   17526:	9d11                	subw	a0,a0,a2
   17528:	00883e03          	ld	t3,8(a6)
   1752c:	0035589b          	srliw	a7,a0,0x3
   17530:	01083303          	ld	t1,16(a6)
   17534:	4611                	li	a2,4
   17536:	01c76733          	or	a4,a4,t3
   1753a:	00676733          	or	a4,a4,t1
   1753e:	00c89563          	bne	a7,a2,17548 <sm2_scalar_mul_window_ct_schemeB_mont_core+0xb2>
   17542:	01883603          	ld	a2,24(a6)
   17546:	8f51                	or	a4,a4,a2
   17548:	00875613          	srli	a2,a4,0x8
   1754c:	01075893          	srli	a7,a4,0x10
   17550:	8e59                	or	a2,a2,a4
   17552:	01875813          	srli	a6,a4,0x18
   17556:	8fd1                	or	a5,a5,a2
   17558:	02075613          	srli	a2,a4,0x20
   1755c:	0117e7b3          	or	a5,a5,a7
   17560:	02875893          	srli	a7,a4,0x28
   17564:	0107e7b3          	or	a5,a5,a6
   17568:	03075813          	srli	a6,a4,0x30
   1756c:	8fd1                	or	a5,a5,a2
   1756e:	9361                	srli	a4,a4,0x38
   17570:	0117e7b3          	or	a5,a5,a7
   17574:	ff857613          	andi	a2,a0,-8
   17578:	0107e7b3          	or	a5,a5,a6
   1757c:	9eb1                	addw	a3,a3,a2
   1757e:	8fd9                	or	a5,a5,a4
   17580:	891d                	andi	a0,a0,7
   17582:	0ff7f793          	zext.b	a5,a5
   17586:	0006871b          	sext.w	a4,a3
   1758a:	40c5863b          	subw	a2,a1,a2
   1758e:	c93d                	beqz	a0,17604 <sm2_scalar_mul_window_ct_schemeB_mont_core+0x16e>
   17590:	9726                	add	a4,a4,s1
   17592:	0016859b          	addiw	a1,a3,1
   17596:	00074503          	lbu	a0,0(a4)
   1759a:	4705                	li	a4,1
   1759c:	8fc9                	or	a5,a5,a0
   1759e:	06e60363          	beq	a2,a4,17604 <sm2_scalar_mul_window_ct_schemeB_mont_core+0x16e>
   175a2:	95a6                	add	a1,a1,s1
   175a4:	0026871b          	addiw	a4,a3,2
   175a8:	0005c503          	lbu	a0,0(a1)
   175ac:	4589                	li	a1,2
   175ae:	8fc9                	or	a5,a5,a0
   175b0:	04b60a63          	beq	a2,a1,17604 <sm2_scalar_mul_window_ct_schemeB_mont_core+0x16e>
   175b4:	9726                	add	a4,a4,s1
   175b6:	0036859b          	addiw	a1,a3,3
   175ba:	00074503          	lbu	a0,0(a4)
   175be:	470d                	li	a4,3
   175c0:	8fc9                	or	a5,a5,a0
   175c2:	04e60163          	beq	a2,a4,17604 <sm2_scalar_mul_window_ct_schemeB_mont_core+0x16e>
   175c6:	95a6                	add	a1,a1,s1
   175c8:	0046871b          	addiw	a4,a3,4
   175cc:	0005c503          	lbu	a0,0(a1)
   175d0:	4591                	li	a1,4
   175d2:	8fc9                	or	a5,a5,a0
   175d4:	02b60863          	beq	a2,a1,17604 <sm2_scalar_mul_window_ct_schemeB_mont_core+0x16e>
   175d8:	9726                	add	a4,a4,s1
   175da:	0056859b          	addiw	a1,a3,5
   175de:	00074503          	lbu	a0,0(a4)
   175e2:	4715                	li	a4,5
   175e4:	8fc9                	or	a5,a5,a0
   175e6:	00e60f63          	beq	a2,a4,17604 <sm2_scalar_mul_window_ct_schemeB_mont_core+0x16e>
   175ea:	95a6                	add	a1,a1,s1
   175ec:	0066871b          	addiw	a4,a3,6
   175f0:	0005c583          	lbu	a1,0(a1)
   175f4:	4699                	li	a3,6
   175f6:	8fcd                	or	a5,a5,a1
   175f8:	00d60663          	beq	a2,a3,17604 <sm2_scalar_mul_window_ct_schemeB_mont_core+0x16e>
   175fc:	9726                	add	a4,a4,s1
   175fe:	00074703          	lbu	a4,0(a4)
   17602:	8fd9                	or	a5,a5,a4
   17604:	c3d9                	beqz	a5,1768a <sm2_scalar_mul_window_ct_schemeB_mont_core+0x1f4>
   17606:	00a8                	addi	a0,sp,72
   17608:	e352                	sd	s4,384(sp)
   1760a:	c38fe0ef          	jal	15a42 <sm2_get_base_affine_mont>
   1760e:	02093703          	ld	a4,32(s2)
   17612:	77a6                	ld	a5,104(sp)
   17614:	00093683          	ld	a3,0(s2)
   17618:	00893603          	ld	a2,8(s2)
   1761c:	8fb9                	xor	a5,a5,a4
   1761e:	6726                	ld	a4,72(sp)
   17620:	03093583          	ld	a1,48(s2)
   17624:	8f35                	xor	a4,a4,a3
   17626:	02893683          	ld	a3,40(s2)
   1762a:	8fd9                	or	a5,a5,a4
   1762c:	6746                	ld	a4,80(sp)
   1762e:	8f31                	xor	a4,a4,a2
   17630:	01093603          	ld	a2,16(s2)
   17634:	8fd9                	or	a5,a5,a4
   17636:	7746                	ld	a4,112(sp)
   17638:	8f35                	xor	a4,a4,a3
   1763a:	01893683          	ld	a3,24(s2)
   1763e:	8fd9                	or	a5,a5,a4
   17640:	6766                	ld	a4,88(sp)
   17642:	8f31                	xor	a4,a4,a2
   17644:	7666                	ld	a2,120(sp)
   17646:	8fd9                	or	a5,a5,a4
   17648:	03893703          	ld	a4,56(s2)
   1764c:	8e2d                	xor	a2,a2,a1
   1764e:	8fd1                	or	a5,a5,a2
   17650:	7606                	ld	a2,96(sp)
   17652:	8eb1                	xor	a3,a3,a2
   17654:	8fd5                	or	a5,a5,a3
   17656:	668a                	ld	a3,128(sp)
   17658:	8f35                	xor	a4,a4,a3
   1765a:	00e7ea33          	or	s4,a5,a4
   1765e:	040a0963          	beqz	s4,176b0 <sm2_scalar_mul_window_ct_schemeB_mont_core+0x21a>
   17662:	8626                	mv	a2,s1
   17664:	85ca                	mv	a1,s2
   17666:	8522                	mv	a0,s0
   17668:	879ff0ef          	jal	16ee0 <sm2_scalar_mul_window_ct_schemeB_mont_core.part.0>
   1766c:	7772                	ld	a4,312(sp)
   1766e:	df0db783          	ld	a5,-528(s11)
   17672:	8fb9                	xor	a5,a5,a4
   17674:	4701                	li	a4,0
   17676:	36079f63          	bnez	a5,179f4 <sm2_scalar_mul_window_ct_schemeB_mont_core+0x55e>
   1767a:	70ba                	ld	ra,424(sp)
   1767c:	741a                	ld	s0,416(sp)
   1767e:	6a1a                	ld	s4,384(sp)
   17680:	64fa                	ld	s1,408(sp)
   17682:	695a                	ld	s2,400(sp)
   17684:	6db6                	ld	s11,328(sp)
   17686:	615d                	addi	sp,sp,432
   17688:	8082                	ret
   1768a:	7772                	ld	a4,312(sp)
   1768c:	df0db783          	ld	a5,-528(s11)
   17690:	8fb9                	xor	a5,a5,a4
   17692:	4701                	li	a4,0
   17694:	34079363          	bnez	a5,179da <sm2_scalar_mul_window_ct_schemeB_mont_core+0x544>
   17698:	8522                	mv	a0,s0
   1769a:	741a                	ld	s0,416(sp)
   1769c:	70ba                	ld	ra,424(sp)
   1769e:	64fa                	ld	s1,408(sp)
   176a0:	695a                	ld	s2,400(sp)
   176a2:	6db6                	ld	s11,328(sp)
   176a4:	615d                	addi	sp,sp,432
   176a6:	c64fe06f          	j	15b0a <sm2_jacobian_set_infinity_mont>
   176aa:	45f5                	li	a1,29
   176ac:	468d                	li	a3,3
   176ae:	b5b5                	j	1751a <sm2_scalar_mul_window_ct_schemeB_mont_core+0x84>
   176b0:	e74e                	sd	s3,392(sp)
   176b2:	8922                	mv	s2,s0
   176b4:	fada                	sd	s6,368(sp)
   176b6:	4981                	li	s3,0
   176b8:	f6de                	sd	s7,360(sp)
   176ba:	02000b13          	li	s6,32
   176be:	f2e2                	sd	s8,352(sp)
   176c0:	6c05                	lui	s8,0x1
   176c2:	eee6                	sd	s9,344(sp)
   176c4:	8b8c0c13          	addi	s8,s8,-1864 # 8b8 <__abi_tag-0xfa00>
   176c8:	eaea                	sd	s10,336(sp)
   176ca:	6cf1                	lui	s9,0x1c
   176cc:	fed6                	sd	s5,376(sp)
   176ce:	e2aff0ef          	jal	16cf8 <sm2_init_fixedbase_table_mont>
   176d2:	0004c683          	lbu	a3,0(s1)
   176d6:	8522                	mv	a0,s0
   176d8:	0084c703          	lbu	a4,8(s1)
   176dc:	560c8c93          	addi	s9,s9,1376 # 1c560 <__FRAME_END__+0x1258>
   176e0:	0104c783          	lbu	a5,16(s1)
   176e4:	4d11                	li	s10,4
   176e6:	0014c803          	lbu	a6,1(s1)
   176ea:	06a2                	slli	a3,a3,0x8
   176ec:	0094c583          	lbu	a1,9(s1)
   176f0:	0722                	slli	a4,a4,0x8
   176f2:	0114c603          	lbu	a2,17(s1)
   176f6:	07a2                	slli	a5,a5,0x8
   176f8:	00a4c303          	lbu	t1,10(s1)
   176fc:	0106e6b3          	or	a3,a3,a6
   17700:	0124c883          	lbu	a7,18(s1)
   17704:	8f4d                	or	a4,a4,a1
   17706:	0024ce03          	lbu	t3,2(s1)
   1770a:	8fd1                	or	a5,a5,a2
   1770c:	0034c803          	lbu	a6,3(s1)
   17710:	06a2                	slli	a3,a3,0x8
   17712:	0134c603          	lbu	a2,19(s1)
   17716:	0722                	slli	a4,a4,0x8
   17718:	00b4c583          	lbu	a1,11(s1)
   1771c:	07a2                	slli	a5,a5,0x8
   1771e:	00de6e33          	or	t3,t3,a3
   17722:	00e366b3          	or	a3,t1,a4
   17726:	00f8e733          	or	a4,a7,a5
   1772a:	0044cf03          	lbu	t5,4(s1)
   1772e:	008e1893          	slli	a7,t3,0x8
   17732:	00c4ce83          	lbu	t4,12(s1)
   17736:	0144ce03          	lbu	t3,20(s1)
   1773a:	06a2                	slli	a3,a3,0x8
   1773c:	0722                	slli	a4,a4,0x8
   1773e:	8dd5                	or	a1,a1,a3
   17740:	0184c783          	lbu	a5,24(s1)
   17744:	01186833          	or	a6,a6,a7
   17748:	8f51                	or	a4,a4,a2
   1774a:	0194cf83          	lbu	t6,25(s1)
   1774e:	00859613          	slli	a2,a1,0x8
   17752:	0054c303          	lbu	t1,5(s1)
   17756:	00d4c883          	lbu	a7,13(s1)
   1775a:	0822                	slli	a6,a6,0x8
   1775c:	0154c683          	lbu	a3,21(s1)
   17760:	0722                	slli	a4,a4,0x8
   17762:	010f6f33          	or	t5,t5,a6
   17766:	00ceeeb3          	or	t4,t4,a2
   1776a:	00ee6e33          	or	t3,t3,a4
   1776e:	0064c803          	lbu	a6,6(s1)
   17772:	00e4c583          	lbu	a1,14(s1)
   17776:	0f22                	slli	t5,t5,0x8
   17778:	0164c603          	lbu	a2,22(s1)
   1777c:	0ea2                	slli	t4,t4,0x8
   1777e:	01a4c703          	lbu	a4,26(s1)
   17782:	0e22                	slli	t3,t3,0x8
   17784:	07a2                	slli	a5,a5,0x8
   17786:	01e36333          	or	t1,t1,t5
   1778a:	01d8e8b3          	or	a7,a7,t4
   1778e:	01c6e6b3          	or	a3,a3,t3
   17792:	01f7e7b3          	or	a5,a5,t6
   17796:	0074ce83          	lbu	t4,7(s1)
   1779a:	01b4cf83          	lbu	t6,27(s1)
   1779e:	0322                	slli	t1,t1,0x8
   177a0:	00f4ce03          	lbu	t3,15(s1)
   177a4:	08a2                	slli	a7,a7,0x8
   177a6:	0174cf03          	lbu	t5,23(s1)
   177aa:	06a2                	slli	a3,a3,0x8
   177ac:	07a2                	slli	a5,a5,0x8
   177ae:	00686833          	or	a6,a6,t1
   177b2:	0115e5b3          	or	a1,a1,a7
   177b6:	8e55                	or	a2,a2,a3
   177b8:	8f5d                	or	a4,a4,a5
   177ba:	01c4c683          	lbu	a3,28(s1)
   177be:	0822                	slli	a6,a6,0x8
   177c0:	05a2                	slli	a1,a1,0x8
   177c2:	0622                	slli	a2,a2,0x8
   177c4:	0722                	slli	a4,a4,0x8
   177c6:	00cf6f33          	or	t5,t5,a2
   177ca:	00efe7b3          	or	a5,t6,a4
   177ce:	010eeeb3          	or	t4,t4,a6
   177d2:	00be6e33          	or	t3,t3,a1
   177d6:	e0f6                	sd	t4,64(sp)
   177d8:	07a2                	slli	a5,a5,0x8
   177da:	fc72                	sd	t3,56(sp)
   177dc:	8edd                	or	a3,a3,a5
   177de:	f87a                	sd	t5,48(sp)
   177e0:	01d4c703          	lbu	a4,29(s1)
   177e4:	06a2                	slli	a3,a3,0x8
   177e6:	01e4c783          	lbu	a5,30(s1)
   177ea:	01f4c603          	lbu	a2,31(s1)
   177ee:	8f55                	or	a4,a4,a3
   177f0:	0722                	slli	a4,a4,0x8
   177f2:	8fd9                	or	a5,a5,a4
   177f4:	07a2                	slli	a5,a5,0x8
   177f6:	8fd1                	or	a5,a5,a2
   177f8:	f43e                	sd	a5,40(sp)
   177fa:	b10fe0ef          	jal	15b0a <sm2_jacobian_set_infinity_mont>
   177fe:	67f5                	lui	a5,0x1d
   17800:	ec66                	sd	s9,24(sp)
   17802:	1b878b93          	addi	s7,a5,440 # 1d1b8 <T_base_mont>
   17806:	8ce2                	mv	s9,s8
   17808:	8c52                	mv	s8,s4
   1780a:	0294                	addi	a3,sp,320
   1780c:	0069d79b          	srliw	a5,s3,0x6
   17810:	20d7e7b3          	sh3add	a5,a5,a3
   17814:	03f9f713          	andi	a4,s3,63
   17818:	ee87b783          	ld	a5,-280(a5)
   1781c:	0069d69b          	srliw	a3,s3,0x6
   17820:	00e7d7b3          	srl	a5,a5,a4
   17824:	c315                	beqz	a4,17848 <sm2_scalar_mul_window_ct_schemeB_mont_core+0x3b2>
   17826:	2685                	addiw	a3,a3,1
   17828:	0006861b          	sext.w	a2,a3
   1782c:	01a60e63          	beq	a2,s10,17848 <sm2_scalar_mul_window_ct_schemeB_mont_core+0x3b2>
   17830:	0290                	addi	a2,sp,320
   17832:	20c6e6bb          	sh3add.uw	a3,a3,a2
   17836:	04000613          	li	a2,64
   1783a:	ee86b683          	ld	a3,-280(a3)
   1783e:	40e6073b          	subw	a4,a2,a4
   17842:	00e69733          	sll	a4,a3,a4
   17846:	8fd9                	or	a5,a5,a4
   17848:	0908                	addi	a0,sp,144
   1784a:	01f7fa93          	andi	s5,a5,31
   1784e:	c0bfb0ef          	jal	13458 <fp_set_zero>
   17852:	1908                	addi	a0,sp,176
   17854:	c05fb0ef          	jal	13458 <fp_set_zero>
   17858:	6a2e                	ld	s4,200(sp)
   1785a:	7f6a                	ld	t5,184(sp)
   1785c:	875e                	mv	a4,s7
   1785e:	6e0e                	ld	t3,192(sp)
   17860:	e062                	sd	s8,0(sp)
   17862:	64ca                	ld	s1,144(sp)
   17864:	e45e                	sd	s7,8(sp)
   17866:	646a                	ld	s0,152(sp)
   17868:	8bd6                	mv	s7,s5
   1786a:	708a                	ld	ra,160(sp)
   1786c:	8ad2                	mv	s5,s4
   1786e:	72aa                	ld	t0,168(sp)
   17870:	4f85                	li	t6,1
   17872:	784a                	ld	a6,176(sp)
   17874:	867e                	mv	a2,t6
   17876:	8ef2                	mv	t4,t3
   17878:	8a7a                	mv	s4,t5
   1787a:	e84e                	sd	s3,16(sp)
   1787c:	8c4a                	mv	s8,s2
   1787e:	4585                	li	a1,1
   17880:	00bbc7b3          	xor	a5,s7,a1
   17884:	01873903          	ld	s2,24(a4)
   17888:	fff7869b          	addiw	a3,a5,-1
   1788c:	02073f83          	ld	t6,32(a4)
   17890:	40f6f7b3          	andn	a5,a3,a5
   17894:	04072e03          	lw	t3,64(a4)
   17898:	01f7d39b          	srliw	t2,a5,0x1f
   1789c:	01f7d79b          	srliw	a5,a5,0x1f
   178a0:	40f006b3          	neg	a3,a5
   178a4:	17fd                	addi	a5,a5,-1
   178a6:	0126f9b3          	and	s3,a3,s2
   178aa:	01f6f933          	and	s2,a3,t6
   178ae:	02873f83          	ld	t6,40(a4)
   178b2:	40767633          	andn	a2,a2,t2
   178b6:	00073303          	ld	t1,0(a4)
   178ba:	007e7e33          	and	t3,t3,t2
   178be:	00873883          	ld	a7,8(a4)
   178c2:	8cfd                	and	s1,s1,a5
   178c4:	01f6f3b3          	and	t2,a3,t6
   178c8:	6b08                	ld	a0,16(a4)
   178ca:	00fa7fb3          	and	t6,s4,a5
   178ce:	03073f03          	ld	t5,48(a4)
   178d2:	03873a03          	ld	s4,56(a4)
   178d6:	0066f333          	and	t1,a3,t1
   178da:	0116f8b3          	and	a7,a3,a7
   178de:	8c7d                	and	s0,s0,a5
   178e0:	8d75                	and	a0,a0,a3
   178e2:	00f0f0b3          	and	ra,ra,a5
   178e6:	00f2f2b3          	and	t0,t0,a5
   178ea:	00f87833          	and	a6,a6,a5
   178ee:	01e6ff33          	and	t5,a3,t5
   178f2:	00fefeb3          	and	t4,t4,a5
   178f6:	0146f6b3          	and	a3,a3,s4
   178fa:	00faf7b3          	and	a5,s5,a5
   178fe:	01c66633          	or	a2,a2,t3
   17902:	2585                	addiw	a1,a1,1
   17904:	009364b3          	or	s1,t1,s1
   17908:	0088e433          	or	s0,a7,s0
   1790c:	001560b3          	or	ra,a0,ra
   17910:	0059e2b3          	or	t0,s3,t0
   17914:	01096833          	or	a6,s2,a6
   17918:	01f3ea33          	or	s4,t2,t6
   1791c:	01df6eb3          	or	t4,t5,t4
   17920:	00f6eab3          	or	s5,a3,a5
   17924:	2601                	sext.w	a2,a2
   17926:	04870713          	addi	a4,a4,72
   1792a:	f5659be3          	bne	a1,s6,17880 <sm2_scalar_mul_window_ct_schemeB_mont_core+0x3ea>
   1792e:	8962                	mv	s2,s8
   17930:	8fb2                	mv	t6,a2
   17932:	85ca                	mv	a1,s2
   17934:	0910                	addi	a2,sp,144
   17936:	09a8                	addi	a0,sp,216
   17938:	6ba2                	ld	s7,8(sp)
   1793a:	69c2                	ld	s3,16(sp)
   1793c:	e926                	sd	s1,144(sp)
   1793e:	6c02                	ld	s8,0(sp)
   17940:	ed22                	sd	s0,152(sp)
   17942:	f106                	sd	ra,160(sp)
   17944:	9be6                	add	s7,s7,s9
   17946:	f516                	sd	t0,168(sp)
   17948:	2995                	addiw	s3,s3,5
   1794a:	f942                	sd	a6,176(sp)
   1794c:	9c66                	add	s8,s8,s9
   1794e:	fd52                	sd	s4,184(sp)
   17950:	e1f6                	sd	t4,192(sp)
   17952:	e5d6                	sd	s5,200(sp)
   17954:	c9fe                	sw	t6,208(sp)
   17956:	98cff0ef          	jal	16ae2 <sm2_add_ja_mont_scalar_ct>
   1795a:	67ee                	ld	a5,216(sp)
   1795c:	00f93023          	sd	a5,0(s2)
   17960:	778e                	ld	a5,224(sp)
   17962:	00f93423          	sd	a5,8(s2)
   17966:	77ae                	ld	a5,232(sp)
   17968:	00f93823          	sd	a5,16(s2)
   1796c:	77ce                	ld	a5,240(sp)
   1796e:	00f93c23          	sd	a5,24(s2)
   17972:	77ee                	ld	a5,248(sp)
   17974:	02f93023          	sd	a5,32(s2)
   17978:	6792                	ld	a5,256(sp)
   1797a:	02f93423          	sd	a5,40(s2)
   1797e:	67b2                	ld	a5,264(sp)
   17980:	02f93823          	sd	a5,48(s2)
   17984:	67d2                	ld	a5,272(sp)
   17986:	02f93c23          	sd	a5,56(s2)
   1798a:	67f2                	ld	a5,280(sp)
   1798c:	04f93023          	sd	a5,64(s2)
   17990:	7792                	ld	a5,288(sp)
   17992:	04f93423          	sd	a5,72(s2)
   17996:	77b2                	ld	a5,296(sp)
   17998:	04f93823          	sd	a5,80(s2)
   1799c:	77d2                	ld	a5,304(sp)
   1799e:	04f93c23          	sd	a5,88(s2)
   179a2:	67e2                	ld	a5,24(sp)
   179a4:	e6fc13e3          	bne	s8,a5,1780a <sm2_scalar_mul_window_ct_schemeB_mont_core+0x374>
   179a8:	69ba                	ld	s3,392(sp)
   179aa:	7af6                	ld	s5,376(sp)
   179ac:	7b56                	ld	s6,368(sp)
   179ae:	7bb6                	ld	s7,360(sp)
   179b0:	7c16                	ld	s8,352(sp)
   179b2:	6cf6                	ld	s9,344(sp)
   179b4:	6d56                	ld	s10,336(sp)
   179b6:	b95d                	j	1766c <sm2_scalar_mul_window_ct_schemeB_mont_core+0x1d6>
   179b8:	45ed                	li	a1,27
   179ba:	4695                	li	a3,5
   179bc:	beb9                	j	1751a <sm2_scalar_mul_window_ct_schemeB_mont_core+0x84>
   179be:	45f1                	li	a1,28
   179c0:	4691                	li	a3,4
   179c2:	bea1                	j	1751a <sm2_scalar_mul_window_ct_schemeB_mont_core+0x84>
   179c4:	86aa                	mv	a3,a0
   179c6:	02000593          	li	a1,32
   179ca:	4781                	li	a5,0
   179cc:	b6b9                	j	1751a <sm2_scalar_mul_window_ct_schemeB_mont_core+0x84>
   179ce:	45fd                	li	a1,31
   179d0:	4685                	li	a3,1
   179d2:	b6a1                	j	1751a <sm2_scalar_mul_window_ct_schemeB_mont_core+0x84>
   179d4:	45f9                	li	a1,30
   179d6:	4689                	li	a3,2
   179d8:	b689                	j	1751a <sm2_scalar_mul_window_ct_schemeB_mont_core+0x84>
   179da:	e74e                	sd	s3,392(sp)
   179dc:	e352                	sd	s4,384(sp)
   179de:	fed6                	sd	s5,376(sp)
   179e0:	fada                	sd	s6,368(sp)
   179e2:	f6de                	sd	s7,360(sp)
   179e4:	f2e2                	sd	s8,352(sp)
   179e6:	eee6                	sd	s9,344(sp)
   179e8:	eaea                	sd	s10,336(sp)
   179ea:	9d6f90ef          	jal	10bc0 <__stack_chk_fail@plt>
   179ee:	45e9                	li	a1,26
   179f0:	4699                	li	a3,6
   179f2:	b625                	j	1751a <sm2_scalar_mul_window_ct_schemeB_mont_core+0x84>
   179f4:	e74e                	sd	s3,392(sp)
   179f6:	b7e5                	j	179de <sm2_scalar_mul_window_ct_schemeB_mont_core+0x548>

00000000000179f8 <sm2_scalar_mul_window_ct_schemeB_mont>:
   179f8:	7119                	addi	sp,sp,-128
   179fa:	f8a2                	sd	s0,112(sp)
   179fc:	842a                	mv	s0,a0
   179fe:	ecce                	sd	s3,88(sp)
   17a00:	852e                	mv	a0,a1
   17a02:	69f5                	lui	s3,0x1d
   17a04:	df09b783          	ld	a5,-528(s3) # 1cdf0 <__stack_chk_guard@GLIBC_2.27>
   17a08:	e4be                	sd	a5,72(sp)
   17a0a:	4781                	li	a5,0
   17a0c:	f4a6                	sd	s1,104(sp)
   17a0e:	84ae                	mv	s1,a1
   17a10:	f0ca                	sd	s2,96(sp)
   17a12:	8932                	mv	s2,a2
   17a14:	fc86                	sd	ra,120(sp)
   17a16:	fabfd0ef          	jal	159c0 <sm2_affine_is_infinity>
   17a1a:	16051b63          	bnez	a0,17b90 <sm2_scalar_mul_window_ct_schemeB_mont+0x198>
   17a1e:	4120073b          	negw	a4,s2
   17a22:	00777693          	andi	a3,a4,7
   17a26:	18068763          	beqz	a3,17bb4 <sm2_scalar_mul_window_ct_schemeB_mont+0x1bc>
   17a2a:	00677613          	andi	a2,a4,6
   17a2e:	00094783          	lbu	a5,0(s2)
   17a32:	18060563          	beqz	a2,17bbc <sm2_scalar_mul_window_ct_schemeB_mont+0x1c4>
   17a36:	00194583          	lbu	a1,1(s2)
   17a3a:	4609                	li	a2,2
   17a3c:	8fcd                	or	a5,a5,a1
   17a3e:	18d67263          	bgeu	a2,a3,17bc2 <sm2_scalar_mul_window_ct_schemeB_mont+0x1ca>
   17a42:	00294603          	lbu	a2,2(s2)
   17a46:	8b11                	andi	a4,a4,4
   17a48:	8fd1                	or	a5,a5,a2
   17a4a:	16070263          	beqz	a4,17bae <sm2_scalar_mul_window_ct_schemeB_mont+0x1b6>
   17a4e:	00394603          	lbu	a2,3(s2)
   17a52:	4711                	li	a4,4
   17a54:	8fd1                	or	a5,a5,a2
   17a56:	16d77963          	bgeu	a4,a3,17bc8 <sm2_scalar_mul_window_ct_schemeB_mont+0x1d0>
   17a5a:	00494603          	lbu	a2,4(s2)
   17a5e:	4715                	li	a4,5
   17a60:	8fd1                	or	a5,a5,a2
   17a62:	16e68663          	beq	a3,a4,17bce <sm2_scalar_mul_window_ct_schemeB_mont+0x1d6>
   17a66:	00594603          	lbu	a2,5(s2)
   17a6a:	471d                	li	a4,7
   17a6c:	8fd1                	or	a5,a5,a2
   17a6e:	16e69363          	bne	a3,a4,17bd4 <sm2_scalar_mul_window_ct_schemeB_mont+0x1dc>
   17a72:	00694703          	lbu	a4,6(s2)
   17a76:	45e5                	li	a1,25
   17a78:	451d                	li	a0,7
   17a7a:	8fd9                	or	a5,a5,a4
   17a7c:	00d90633          	add	a2,s2,a3
   17a80:	02000813          	li	a6,32
   17a84:	6618                	ld	a4,8(a2)
   17a86:	40d806bb          	subw	a3,a6,a3
   17a8a:	00063e03          	ld	t3,0(a2)
   17a8e:	0036d89b          	srliw	a7,a3,0x3
   17a92:	01063303          	ld	t1,16(a2)
   17a96:	4811                	li	a6,4
   17a98:	01c76733          	or	a4,a4,t3
   17a9c:	00676733          	or	a4,a4,t1
   17aa0:	01089463          	bne	a7,a6,17aa8 <sm2_scalar_mul_window_ct_schemeB_mont+0xb0>
   17aa4:	6e10                	ld	a2,24(a2)
   17aa6:	8f51                	or	a4,a4,a2
   17aa8:	00875613          	srli	a2,a4,0x8
   17aac:	01075893          	srli	a7,a4,0x10
   17ab0:	8e59                	or	a2,a2,a4
   17ab2:	01875313          	srli	t1,a4,0x18
   17ab6:	8fd1                	or	a5,a5,a2
   17ab8:	02075813          	srli	a6,a4,0x20
   17abc:	0117e7b3          	or	a5,a5,a7
   17ac0:	02875893          	srli	a7,a4,0x28
   17ac4:	0067e7b3          	or	a5,a5,t1
   17ac8:	03075613          	srli	a2,a4,0x30
   17acc:	0107e7b3          	or	a5,a5,a6
   17ad0:	9361                	srli	a4,a4,0x38
   17ad2:	0117e7b3          	or	a5,a5,a7
   17ad6:	ff86f813          	andi	a6,a3,-8
   17ada:	8fd1                	or	a5,a5,a2
   17adc:	8a9d                	andi	a3,a3,7
   17ade:	8fd9                	or	a5,a5,a4
   17ae0:	00a8063b          	addw	a2,a6,a0
   17ae4:	8532                	mv	a0,a2
   17ae6:	0ff7f793          	zext.b	a5,a5
   17aea:	4105873b          	subw	a4,a1,a6
   17aee:	cab5                	beqz	a3,17b62 <sm2_scalar_mul_window_ct_schemeB_mont+0x16a>
   17af0:	964a                	add	a2,a2,s2
   17af2:	0015069b          	addiw	a3,a0,1
   17af6:	00064583          	lbu	a1,0(a2)
   17afa:	4605                	li	a2,1
   17afc:	8fcd                	or	a5,a5,a1
   17afe:	06c70263          	beq	a4,a2,17b62 <sm2_scalar_mul_window_ct_schemeB_mont+0x16a>
   17b02:	96ca                	add	a3,a3,s2
   17b04:	0025061b          	addiw	a2,a0,2
   17b08:	0006c583          	lbu	a1,0(a3)
   17b0c:	4689                	li	a3,2
   17b0e:	8fcd                	or	a5,a5,a1
   17b10:	04d70963          	beq	a4,a3,17b62 <sm2_scalar_mul_window_ct_schemeB_mont+0x16a>
   17b14:	964a                	add	a2,a2,s2
   17b16:	0035069b          	addiw	a3,a0,3
   17b1a:	00064583          	lbu	a1,0(a2)
   17b1e:	460d                	li	a2,3
   17b20:	8fcd                	or	a5,a5,a1
   17b22:	04c70063          	beq	a4,a2,17b62 <sm2_scalar_mul_window_ct_schemeB_mont+0x16a>
   17b26:	96ca                	add	a3,a3,s2
   17b28:	0045061b          	addiw	a2,a0,4
   17b2c:	0006c583          	lbu	a1,0(a3)
   17b30:	4691                	li	a3,4
   17b32:	8fcd                	or	a5,a5,a1
   17b34:	02d70763          	beq	a4,a3,17b62 <sm2_scalar_mul_window_ct_schemeB_mont+0x16a>
   17b38:	964a                	add	a2,a2,s2
   17b3a:	0055069b          	addiw	a3,a0,5
   17b3e:	00064583          	lbu	a1,0(a2)
   17b42:	4615                	li	a2,5
   17b44:	8fcd                	or	a5,a5,a1
   17b46:	00c70e63          	beq	a4,a2,17b62 <sm2_scalar_mul_window_ct_schemeB_mont+0x16a>
   17b4a:	96ca                	add	a3,a3,s2
   17b4c:	2519                	addiw	a0,a0,6
   17b4e:	0006c603          	lbu	a2,0(a3)
   17b52:	4699                	li	a3,6
   17b54:	8fd1                	or	a5,a5,a2
   17b56:	00d70663          	beq	a4,a3,17b62 <sm2_scalar_mul_window_ct_schemeB_mont+0x16a>
   17b5a:	954a                	add	a0,a0,s2
   17b5c:	00054703          	lbu	a4,0(a0)
   17b60:	8fd9                	or	a5,a5,a4
   17b62:	c79d                	beqz	a5,17b90 <sm2_scalar_mul_window_ct_schemeB_mont+0x198>
   17b64:	85a6                	mv	a1,s1
   17b66:	850a                	mv	a0,sp
   17b68:	f17fd0ef          	jal	15a7e <sm2_affine_to_mont>
   17b6c:	864a                	mv	a2,s2
   17b6e:	858a                	mv	a1,sp
   17b70:	8522                	mv	a0,s0
   17b72:	925ff0ef          	jal	17496 <sm2_scalar_mul_window_ct_schemeB_mont_core>
   17b76:	6726                	ld	a4,72(sp)
   17b78:	df09b783          	ld	a5,-528(s3)
   17b7c:	8fb9                	xor	a5,a5,a4
   17b7e:	4701                	li	a4,0
   17b80:	efa9                	bnez	a5,17bda <sm2_scalar_mul_window_ct_schemeB_mont+0x1e2>
   17b82:	70e6                	ld	ra,120(sp)
   17b84:	7446                	ld	s0,112(sp)
   17b86:	74a6                	ld	s1,104(sp)
   17b88:	7906                	ld	s2,96(sp)
   17b8a:	69e6                	ld	s3,88(sp)
   17b8c:	6109                	addi	sp,sp,128
   17b8e:	8082                	ret
   17b90:	6726                	ld	a4,72(sp)
   17b92:	df09b783          	ld	a5,-528(s3)
   17b96:	8fb9                	xor	a5,a5,a4
   17b98:	4701                	li	a4,0
   17b9a:	e3a1                	bnez	a5,17bda <sm2_scalar_mul_window_ct_schemeB_mont+0x1e2>
   17b9c:	8522                	mv	a0,s0
   17b9e:	7446                	ld	s0,112(sp)
   17ba0:	70e6                	ld	ra,120(sp)
   17ba2:	74a6                	ld	s1,104(sp)
   17ba4:	7906                	ld	s2,96(sp)
   17ba6:	69e6                	ld	s3,88(sp)
   17ba8:	6109                	addi	sp,sp,128
   17baa:	f61fd06f          	j	15b0a <sm2_jacobian_set_infinity_mont>
   17bae:	45f5                	li	a1,29
   17bb0:	450d                	li	a0,3
   17bb2:	b5e9                	j	17a7c <sm2_scalar_mul_window_ct_schemeB_mont+0x84>
   17bb4:	02000593          	li	a1,32
   17bb8:	4781                	li	a5,0
   17bba:	b5c9                	j	17a7c <sm2_scalar_mul_window_ct_schemeB_mont+0x84>
   17bbc:	45fd                	li	a1,31
   17bbe:	4505                	li	a0,1
   17bc0:	bd75                	j	17a7c <sm2_scalar_mul_window_ct_schemeB_mont+0x84>
   17bc2:	45f9                	li	a1,30
   17bc4:	4509                	li	a0,2
   17bc6:	bd5d                	j	17a7c <sm2_scalar_mul_window_ct_schemeB_mont+0x84>
   17bc8:	45f1                	li	a1,28
   17bca:	4511                	li	a0,4
   17bcc:	bd45                	j	17a7c <sm2_scalar_mul_window_ct_schemeB_mont+0x84>
   17bce:	45ed                	li	a1,27
   17bd0:	4515                	li	a0,5
   17bd2:	b56d                	j	17a7c <sm2_scalar_mul_window_ct_schemeB_mont+0x84>
   17bd4:	45e9                	li	a1,26
   17bd6:	4519                	li	a0,6
   17bd8:	b555                	j	17a7c <sm2_scalar_mul_window_ct_schemeB_mont+0x84>
   17bda:	fe7f80ef          	jal	10bc0 <__stack_chk_fail@plt>

0000000000017bde <sm2_scalar_mul_window_ct_schemeB_mont_to_affine>:
   17bde:	7115                	addi	sp,sp,-224
   17be0:	e9a2                	sd	s0,208(sp)
   17be2:	842a                	mv	s0,a0
   17be4:	fd4e                	sd	s3,184(sp)
   17be6:	852e                	mv	a0,a1
   17be8:	69f5                	lui	s3,0x1d
   17bea:	df09b783          	ld	a5,-528(s3) # 1cdf0 <__stack_chk_guard@GLIBC_2.27>
   17bee:	f53e                	sd	a5,168(sp)
   17bf0:	4781                	li	a5,0
   17bf2:	e5a6                	sd	s1,200(sp)
   17bf4:	84ae                	mv	s1,a1
   17bf6:	e1ca                	sd	s2,192(sp)
   17bf8:	8932                	mv	s2,a2
   17bfa:	ed86                	sd	ra,216(sp)
   17bfc:	dc5fd0ef          	jal	159c0 <sm2_affine_is_infinity>
   17c00:	16051363          	bnez	a0,17d66 <sm2_scalar_mul_window_ct_schemeB_mont_to_affine+0x188>
   17c04:	4120073b          	negw	a4,s2
   17c08:	00777693          	andi	a3,a4,7
   17c0c:	16068f63          	beqz	a3,17d8a <sm2_scalar_mul_window_ct_schemeB_mont_to_affine+0x1ac>
   17c10:	00677613          	andi	a2,a4,6
   17c14:	00094783          	lbu	a5,0(s2)
   17c18:	16060663          	beqz	a2,17d84 <sm2_scalar_mul_window_ct_schemeB_mont_to_affine+0x1a6>
   17c1c:	00194583          	lbu	a1,1(s2)
   17c20:	4609                	li	a2,2
   17c22:	8fcd                	or	a5,a5,a1
   17c24:	16d67763          	bgeu	a2,a3,17d92 <sm2_scalar_mul_window_ct_schemeB_mont_to_affine+0x1b4>
   17c28:	00294603          	lbu	a2,2(s2)
   17c2c:	8b11                	andi	a4,a4,4
   17c2e:	8fd1                	or	a5,a5,a2
   17c30:	16070463          	beqz	a4,17d98 <sm2_scalar_mul_window_ct_schemeB_mont_to_affine+0x1ba>
   17c34:	00394603          	lbu	a2,3(s2)
   17c38:	4711                	li	a4,4
   17c3a:	8fd1                	or	a5,a5,a2
   17c3c:	16d77163          	bgeu	a4,a3,17d9e <sm2_scalar_mul_window_ct_schemeB_mont_to_affine+0x1c0>
   17c40:	00494603          	lbu	a2,4(s2)
   17c44:	4715                	li	a4,5
   17c46:	8fd1                	or	a5,a5,a2
   17c48:	14e68e63          	beq	a3,a4,17da4 <sm2_scalar_mul_window_ct_schemeB_mont_to_affine+0x1c6>
   17c4c:	00594603          	lbu	a2,5(s2)
   17c50:	471d                	li	a4,7
   17c52:	8fd1                	or	a5,a5,a2
   17c54:	14e69b63          	bne	a3,a4,17daa <sm2_scalar_mul_window_ct_schemeB_mont_to_affine+0x1cc>
   17c58:	00694703          	lbu	a4,6(s2)
   17c5c:	45e5                	li	a1,25
   17c5e:	451d                	li	a0,7
   17c60:	8fd9                	or	a5,a5,a4
   17c62:	00d90633          	add	a2,s2,a3
   17c66:	02000813          	li	a6,32
   17c6a:	6618                	ld	a4,8(a2)
   17c6c:	40d806bb          	subw	a3,a6,a3
   17c70:	00063e03          	ld	t3,0(a2)
   17c74:	0036d89b          	srliw	a7,a3,0x3
   17c78:	01063303          	ld	t1,16(a2)
   17c7c:	4811                	li	a6,4
   17c7e:	01c76733          	or	a4,a4,t3
   17c82:	00676733          	or	a4,a4,t1
   17c86:	01089463          	bne	a7,a6,17c8e <sm2_scalar_mul_window_ct_schemeB_mont_to_affine+0xb0>
   17c8a:	6e10                	ld	a2,24(a2)
   17c8c:	8f51                	or	a4,a4,a2
   17c8e:	00875613          	srli	a2,a4,0x8
   17c92:	01075893          	srli	a7,a4,0x10
   17c96:	8e59                	or	a2,a2,a4
   17c98:	01875313          	srli	t1,a4,0x18
   17c9c:	8fd1                	or	a5,a5,a2
   17c9e:	02075813          	srli	a6,a4,0x20
   17ca2:	0117e7b3          	or	a5,a5,a7
   17ca6:	02875893          	srli	a7,a4,0x28
   17caa:	0067e7b3          	or	a5,a5,t1
   17cae:	03075613          	srli	a2,a4,0x30
   17cb2:	0107e7b3          	or	a5,a5,a6
   17cb6:	9361                	srli	a4,a4,0x38
   17cb8:	0117e7b3          	or	a5,a5,a7
   17cbc:	ff86f813          	andi	a6,a3,-8
   17cc0:	8fd1                	or	a5,a5,a2
   17cc2:	8a9d                	andi	a3,a3,7
   17cc4:	8fd9                	or	a5,a5,a4
   17cc6:	00a8063b          	addw	a2,a6,a0
   17cca:	8532                	mv	a0,a2
   17ccc:	0ff7f793          	zext.b	a5,a5
   17cd0:	4105873b          	subw	a4,a1,a6
   17cd4:	cab5                	beqz	a3,17d48 <sm2_scalar_mul_window_ct_schemeB_mont_to_affine+0x16a>
   17cd6:	964a                	add	a2,a2,s2
   17cd8:	0015069b          	addiw	a3,a0,1
   17cdc:	00064583          	lbu	a1,0(a2)
   17ce0:	4605                	li	a2,1
   17ce2:	8fcd                	or	a5,a5,a1
   17ce4:	06c70263          	beq	a4,a2,17d48 <sm2_scalar_mul_window_ct_schemeB_mont_to_affine+0x16a>
   17ce8:	96ca                	add	a3,a3,s2
   17cea:	0025061b          	addiw	a2,a0,2
   17cee:	0006c583          	lbu	a1,0(a3)
   17cf2:	4689                	li	a3,2
   17cf4:	8fcd                	or	a5,a5,a1
   17cf6:	04d70963          	beq	a4,a3,17d48 <sm2_scalar_mul_window_ct_schemeB_mont_to_affine+0x16a>
   17cfa:	964a                	add	a2,a2,s2
   17cfc:	0035069b          	addiw	a3,a0,3
   17d00:	00064583          	lbu	a1,0(a2)
   17d04:	460d                	li	a2,3
   17d06:	8fcd                	or	a5,a5,a1
   17d08:	04c70063          	beq	a4,a2,17d48 <sm2_scalar_mul_window_ct_schemeB_mont_to_affine+0x16a>
   17d0c:	96ca                	add	a3,a3,s2
   17d0e:	0045061b          	addiw	a2,a0,4
   17d12:	0006c583          	lbu	a1,0(a3)
   17d16:	4691                	li	a3,4
   17d18:	8fcd                	or	a5,a5,a1
   17d1a:	02d70763          	beq	a4,a3,17d48 <sm2_scalar_mul_window_ct_schemeB_mont_to_affine+0x16a>
   17d1e:	964a                	add	a2,a2,s2
   17d20:	0055069b          	addiw	a3,a0,5
   17d24:	00064583          	lbu	a1,0(a2)
   17d28:	4615                	li	a2,5
   17d2a:	8fcd                	or	a5,a5,a1
   17d2c:	00c70e63          	beq	a4,a2,17d48 <sm2_scalar_mul_window_ct_schemeB_mont_to_affine+0x16a>
   17d30:	96ca                	add	a3,a3,s2
   17d32:	2519                	addiw	a0,a0,6
   17d34:	0006c603          	lbu	a2,0(a3)
   17d38:	4699                	li	a3,6
   17d3a:	8fd1                	or	a5,a5,a2
   17d3c:	00d70663          	beq	a4,a3,17d48 <sm2_scalar_mul_window_ct_schemeB_mont_to_affine+0x16a>
   17d40:	954a                	add	a0,a0,s2
   17d42:	00054703          	lbu	a4,0(a0)
   17d46:	8fd9                	or	a5,a5,a4
   17d48:	cf99                	beqz	a5,17d66 <sm2_scalar_mul_window_ct_schemeB_mont_to_affine+0x188>
   17d4a:	85a6                	mv	a1,s1
   17d4c:	850a                	mv	a0,sp
   17d4e:	d31fd0ef          	jal	15a7e <sm2_affine_to_mont>
   17d52:	858a                	mv	a1,sp
   17d54:	00a8                	addi	a0,sp,72
   17d56:	864a                	mv	a2,s2
   17d58:	f3eff0ef          	jal	17496 <sm2_scalar_mul_window_ct_schemeB_mont_core>
   17d5c:	00ac                	addi	a1,sp,72
   17d5e:	8522                	mv	a0,s0
   17d60:	906fe0ef          	jal	15e66 <sm2_jacobian_to_affine_mont>
   17d64:	a019                	j	17d6a <sm2_scalar_mul_window_ct_schemeB_mont_to_affine+0x18c>
   17d66:	4785                	li	a5,1
   17d68:	c03c                	sw	a5,64(s0)
   17d6a:	772a                	ld	a4,168(sp)
   17d6c:	df09b783          	ld	a5,-528(s3)
   17d70:	8fb9                	xor	a5,a5,a4
   17d72:	4701                	li	a4,0
   17d74:	ef95                	bnez	a5,17db0 <sm2_scalar_mul_window_ct_schemeB_mont_to_affine+0x1d2>
   17d76:	60ee                	ld	ra,216(sp)
   17d78:	644e                	ld	s0,208(sp)
   17d7a:	64ae                	ld	s1,200(sp)
   17d7c:	690e                	ld	s2,192(sp)
   17d7e:	79ea                	ld	s3,184(sp)
   17d80:	612d                	addi	sp,sp,224
   17d82:	8082                	ret
   17d84:	45fd                	li	a1,31
   17d86:	4505                	li	a0,1
   17d88:	bde9                	j	17c62 <sm2_scalar_mul_window_ct_schemeB_mont_to_affine+0x84>
   17d8a:	02000593          	li	a1,32
   17d8e:	4781                	li	a5,0
   17d90:	bdc9                	j	17c62 <sm2_scalar_mul_window_ct_schemeB_mont_to_affine+0x84>
   17d92:	45f9                	li	a1,30
   17d94:	4509                	li	a0,2
   17d96:	b5f1                	j	17c62 <sm2_scalar_mul_window_ct_schemeB_mont_to_affine+0x84>
   17d98:	45f5                	li	a1,29
   17d9a:	450d                	li	a0,3
   17d9c:	b5d9                	j	17c62 <sm2_scalar_mul_window_ct_schemeB_mont_to_affine+0x84>
   17d9e:	45f1                	li	a1,28
   17da0:	4511                	li	a0,4
   17da2:	b5c1                	j	17c62 <sm2_scalar_mul_window_ct_schemeB_mont_to_affine+0x84>
   17da4:	45ed                	li	a1,27
   17da6:	4515                	li	a0,5
   17da8:	bd6d                	j	17c62 <sm2_scalar_mul_window_ct_schemeB_mont_to_affine+0x84>
   17daa:	45e9                	li	a1,26
   17dac:	4519                	li	a0,6
   17dae:	bd55                	j	17c62 <sm2_scalar_mul_window_ct_schemeB_mont_to_affine+0x84>
   17db0:	e11f80ef          	jal	10bc0 <__stack_chk_fail@plt>

0000000000017db4 <sm2_scalar_mul_window_ct_schemeB_mont_affine_to_jacobian_mont>:
   17db4:	ee2ff06f          	j	17496 <sm2_scalar_mul_window_ct_schemeB_mont_core>

0000000000017db8 <sm2_scalar_mul_window_ct_schemeB_mont_jacobian_to_jacobian_mont>:
   17db8:	7119                	addi	sp,sp,-128
   17dba:	f8a2                	sd	s0,112(sp)
   17dbc:	842a                	mv	s0,a0
   17dbe:	ecce                	sd	s3,88(sp)
   17dc0:	852e                	mv	a0,a1
   17dc2:	69f5                	lui	s3,0x1d
   17dc4:	df09b783          	ld	a5,-528(s3) # 1cdf0 <__stack_chk_guard@GLIBC_2.27>
   17dc8:	e4be                	sd	a5,72(sp)
   17dca:	4781                	li	a5,0
   17dcc:	f4a6                	sd	s1,104(sp)
   17dce:	84ae                	mv	s1,a1
   17dd0:	f0ca                	sd	s2,96(sp)
   17dd2:	8932                	mv	s2,a2
   17dd4:	fc86                	sd	ra,120(sp)
   17dd6:	bf3fd0ef          	jal	159c8 <sm2_jacobian_is_infinity>
   17dda:	16051b63          	bnez	a0,17f50 <sm2_scalar_mul_window_ct_schemeB_mont_jacobian_to_jacobian_mont+0x198>
   17dde:	4120073b          	negw	a4,s2
   17de2:	00777693          	andi	a3,a4,7
   17de6:	18068763          	beqz	a3,17f74 <sm2_scalar_mul_window_ct_schemeB_mont_jacobian_to_jacobian_mont+0x1bc>
   17dea:	00677613          	andi	a2,a4,6
   17dee:	00094783          	lbu	a5,0(s2)
   17df2:	18060563          	beqz	a2,17f7c <sm2_scalar_mul_window_ct_schemeB_mont_jacobian_to_jacobian_mont+0x1c4>
   17df6:	00194583          	lbu	a1,1(s2)
   17dfa:	4609                	li	a2,2
   17dfc:	8fcd                	or	a5,a5,a1
   17dfe:	18d67263          	bgeu	a2,a3,17f82 <sm2_scalar_mul_window_ct_schemeB_mont_jacobian_to_jacobian_mont+0x1ca>
   17e02:	00294603          	lbu	a2,2(s2)
   17e06:	8b11                	andi	a4,a4,4
   17e08:	8fd1                	or	a5,a5,a2
   17e0a:	16070263          	beqz	a4,17f6e <sm2_scalar_mul_window_ct_schemeB_mont_jacobian_to_jacobian_mont+0x1b6>
   17e0e:	00394603          	lbu	a2,3(s2)
   17e12:	4711                	li	a4,4
   17e14:	8fd1                	or	a5,a5,a2
   17e16:	16d77963          	bgeu	a4,a3,17f88 <sm2_scalar_mul_window_ct_schemeB_mont_jacobian_to_jacobian_mont+0x1d0>
   17e1a:	00494603          	lbu	a2,4(s2)
   17e1e:	4715                	li	a4,5
   17e20:	8fd1                	or	a5,a5,a2
   17e22:	16e68663          	beq	a3,a4,17f8e <sm2_scalar_mul_window_ct_schemeB_mont_jacobian_to_jacobian_mont+0x1d6>
   17e26:	00594603          	lbu	a2,5(s2)
   17e2a:	471d                	li	a4,7
   17e2c:	8fd1                	or	a5,a5,a2
   17e2e:	16e69363          	bne	a3,a4,17f94 <sm2_scalar_mul_window_ct_schemeB_mont_jacobian_to_jacobian_mont+0x1dc>
   17e32:	00694703          	lbu	a4,6(s2)
   17e36:	45e5                	li	a1,25
   17e38:	451d                	li	a0,7
   17e3a:	8fd9                	or	a5,a5,a4
   17e3c:	00d90633          	add	a2,s2,a3
   17e40:	02000813          	li	a6,32
   17e44:	6618                	ld	a4,8(a2)
   17e46:	40d806bb          	subw	a3,a6,a3
   17e4a:	00063e03          	ld	t3,0(a2)
   17e4e:	0036d89b          	srliw	a7,a3,0x3
   17e52:	01063303          	ld	t1,16(a2)
   17e56:	4811                	li	a6,4
   17e58:	01c76733          	or	a4,a4,t3
   17e5c:	00676733          	or	a4,a4,t1
   17e60:	01089463          	bne	a7,a6,17e68 <sm2_scalar_mul_window_ct_schemeB_mont_jacobian_to_jacobian_mont+0xb0>
   17e64:	6e10                	ld	a2,24(a2)
   17e66:	8f51                	or	a4,a4,a2
   17e68:	00875613          	srli	a2,a4,0x8
   17e6c:	01075893          	srli	a7,a4,0x10
   17e70:	8e59                	or	a2,a2,a4
   17e72:	01875313          	srli	t1,a4,0x18
   17e76:	8fd1                	or	a5,a5,a2
   17e78:	02075813          	srli	a6,a4,0x20
   17e7c:	0117e7b3          	or	a5,a5,a7
   17e80:	02875893          	srli	a7,a4,0x28
   17e84:	0067e7b3          	or	a5,a5,t1
   17e88:	03075613          	srli	a2,a4,0x30
   17e8c:	0107e7b3          	or	a5,a5,a6
   17e90:	9361                	srli	a4,a4,0x38
   17e92:	0117e7b3          	or	a5,a5,a7
   17e96:	ff86f813          	andi	a6,a3,-8
   17e9a:	8fd1                	or	a5,a5,a2
   17e9c:	8a9d                	andi	a3,a3,7
   17e9e:	8fd9                	or	a5,a5,a4
   17ea0:	00a8063b          	addw	a2,a6,a0
   17ea4:	8532                	mv	a0,a2
   17ea6:	0ff7f793          	zext.b	a5,a5
   17eaa:	4105873b          	subw	a4,a1,a6
   17eae:	cab5                	beqz	a3,17f22 <sm2_scalar_mul_window_ct_schemeB_mont_jacobian_to_jacobian_mont+0x16a>
   17eb0:	964a                	add	a2,a2,s2
   17eb2:	0015069b          	addiw	a3,a0,1
   17eb6:	00064583          	lbu	a1,0(a2)
   17eba:	4605                	li	a2,1
   17ebc:	8fcd                	or	a5,a5,a1
   17ebe:	06c70263          	beq	a4,a2,17f22 <sm2_scalar_mul_window_ct_schemeB_mont_jacobian_to_jacobian_mont+0x16a>
   17ec2:	96ca                	add	a3,a3,s2
   17ec4:	0025061b          	addiw	a2,a0,2
   17ec8:	0006c583          	lbu	a1,0(a3)
   17ecc:	4689                	li	a3,2
   17ece:	8fcd                	or	a5,a5,a1
   17ed0:	04d70963          	beq	a4,a3,17f22 <sm2_scalar_mul_window_ct_schemeB_mont_jacobian_to_jacobian_mont+0x16a>
   17ed4:	964a                	add	a2,a2,s2
   17ed6:	0035069b          	addiw	a3,a0,3
   17eda:	00064583          	lbu	a1,0(a2)
   17ede:	460d                	li	a2,3
   17ee0:	8fcd                	or	a5,a5,a1
   17ee2:	04c70063          	beq	a4,a2,17f22 <sm2_scalar_mul_window_ct_schemeB_mont_jacobian_to_jacobian_mont+0x16a>
   17ee6:	96ca                	add	a3,a3,s2
   17ee8:	0045061b          	addiw	a2,a0,4
   17eec:	0006c583          	lbu	a1,0(a3)
   17ef0:	4691                	li	a3,4
   17ef2:	8fcd                	or	a5,a5,a1
   17ef4:	02d70763          	beq	a4,a3,17f22 <sm2_scalar_mul_window_ct_schemeB_mont_jacobian_to_jacobian_mont+0x16a>
   17ef8:	964a                	add	a2,a2,s2
   17efa:	0055069b          	addiw	a3,a0,5
   17efe:	00064583          	lbu	a1,0(a2)
   17f02:	4615                	li	a2,5
   17f04:	8fcd                	or	a5,a5,a1
   17f06:	00c70e63          	beq	a4,a2,17f22 <sm2_scalar_mul_window_ct_schemeB_mont_jacobian_to_jacobian_mont+0x16a>
   17f0a:	96ca                	add	a3,a3,s2
   17f0c:	2519                	addiw	a0,a0,6
   17f0e:	0006c603          	lbu	a2,0(a3)
   17f12:	4699                	li	a3,6
   17f14:	8fd1                	or	a5,a5,a2
   17f16:	00d70663          	beq	a4,a3,17f22 <sm2_scalar_mul_window_ct_schemeB_mont_jacobian_to_jacobian_mont+0x16a>
   17f1a:	954a                	add	a0,a0,s2
   17f1c:	00054703          	lbu	a4,0(a0)
   17f20:	8fd9                	or	a5,a5,a4
   17f22:	c79d                	beqz	a5,17f50 <sm2_scalar_mul_window_ct_schemeB_mont_jacobian_to_jacobian_mont+0x198>
   17f24:	85a6                	mv	a1,s1
   17f26:	850a                	mv	a0,sp
   17f28:	d7ffd0ef          	jal	15ca6 <sm2_jacobian_mont_to_affine_mont>
   17f2c:	864a                	mv	a2,s2
   17f2e:	858a                	mv	a1,sp
   17f30:	8522                	mv	a0,s0
   17f32:	d64ff0ef          	jal	17496 <sm2_scalar_mul_window_ct_schemeB_mont_core>
   17f36:	6726                	ld	a4,72(sp)
   17f38:	df09b783          	ld	a5,-528(s3)
   17f3c:	8fb9                	xor	a5,a5,a4
   17f3e:	4701                	li	a4,0
   17f40:	efa9                	bnez	a5,17f9a <sm2_scalar_mul_window_ct_schemeB_mont_jacobian_to_jacobian_mont+0x1e2>
   17f42:	70e6                	ld	ra,120(sp)
   17f44:	7446                	ld	s0,112(sp)
   17f46:	74a6                	ld	s1,104(sp)
   17f48:	7906                	ld	s2,96(sp)
   17f4a:	69e6                	ld	s3,88(sp)
   17f4c:	6109                	addi	sp,sp,128
   17f4e:	8082                	ret
   17f50:	6726                	ld	a4,72(sp)
   17f52:	df09b783          	ld	a5,-528(s3)
   17f56:	8fb9                	xor	a5,a5,a4
   17f58:	4701                	li	a4,0
   17f5a:	e3a1                	bnez	a5,17f9a <sm2_scalar_mul_window_ct_schemeB_mont_jacobian_to_jacobian_mont+0x1e2>
   17f5c:	8522                	mv	a0,s0
   17f5e:	7446                	ld	s0,112(sp)
   17f60:	70e6                	ld	ra,120(sp)
   17f62:	74a6                	ld	s1,104(sp)
   17f64:	7906                	ld	s2,96(sp)
   17f66:	69e6                	ld	s3,88(sp)
   17f68:	6109                	addi	sp,sp,128
   17f6a:	ba1fd06f          	j	15b0a <sm2_jacobian_set_infinity_mont>
   17f6e:	45f5                	li	a1,29
   17f70:	450d                	li	a0,3
   17f72:	b5e9                	j	17e3c <sm2_scalar_mul_window_ct_schemeB_mont_jacobian_to_jacobian_mont+0x84>
   17f74:	02000593          	li	a1,32
   17f78:	4781                	li	a5,0
   17f7a:	b5c9                	j	17e3c <sm2_scalar_mul_window_ct_schemeB_mont_jacobian_to_jacobian_mont+0x84>
   17f7c:	45fd                	li	a1,31
   17f7e:	4505                	li	a0,1
   17f80:	bd75                	j	17e3c <sm2_scalar_mul_window_ct_schemeB_mont_jacobian_to_jacobian_mont+0x84>
   17f82:	45f9                	li	a1,30
   17f84:	4509                	li	a0,2
   17f86:	bd5d                	j	17e3c <sm2_scalar_mul_window_ct_schemeB_mont_jacobian_to_jacobian_mont+0x84>
   17f88:	45f1                	li	a1,28
   17f8a:	4511                	li	a0,4
   17f8c:	bd45                	j	17e3c <sm2_scalar_mul_window_ct_schemeB_mont_jacobian_to_jacobian_mont+0x84>
   17f8e:	45ed                	li	a1,27
   17f90:	4515                	li	a0,5
   17f92:	b56d                	j	17e3c <sm2_scalar_mul_window_ct_schemeB_mont_jacobian_to_jacobian_mont+0x84>
   17f94:	45e9                	li	a1,26
   17f96:	4519                	li	a0,6
   17f98:	b555                	j	17e3c <sm2_scalar_mul_window_ct_schemeB_mont_jacobian_to_jacobian_mont+0x84>
   17f9a:	c27f80ef          	jal	10bc0 <__stack_chk_fail@plt>
	...

0000000000017fa0 <fp_mont_add>:
   17fa0:	6194                	ld	a3,0(a1)
   17fa2:	00063283          	ld	t0,0(a2)
   17fa6:	6598                	ld	a4,8(a1)
   17fa8:	00863303          	ld	t1,8(a2)
   17fac:	699c                	ld	a5,16(a1)
   17fae:	01063383          	ld	t2,16(a2)
   17fb2:	0185b803          	ld	a6,24(a1)
   17fb6:	01863e03          	ld	t3,24(a2)
   17fba:	00568f33          	add	t5,a3,t0
   17fbe:	00df32b3          	sltu	t0,t5,a3
   17fc2:	00670fb3          	add	t6,a4,t1
   17fc6:	00efb333          	sltu	t1,t6,a4
   17fca:	9f96                	add	t6,t6,t0
   17fcc:	005fb2b3          	sltu	t0,t6,t0
   17fd0:	005362b3          	or	t0,t1,t0
   17fd4:	007788b3          	add	a7,a5,t2
   17fd8:	00f8b333          	sltu	t1,a7,a5
   17fdc:	9896                	add	a7,a7,t0
   17fde:	0058b2b3          	sltu	t0,a7,t0
   17fe2:	005362b3          	or	t0,t1,t0
   17fe6:	01c806b3          	add	a3,a6,t3
   17fea:	0106b333          	sltu	t1,a3,a6
   17fee:	9696                	add	a3,a3,t0
   17ff0:	0056b2b3          	sltu	t0,a3,t0
   17ff4:	005363b3          	or	t2,t1,t0
   17ff8:	407003b3          	neg	t2,t2
   17ffc:	0013f293          	andi	t0,t2,1
   18000:	9f16                	add	t5,t5,t0
   18002:	005f3eb3          	sltu	t4,t5,t0
   18006:	52fd                	li	t0,-1
   18008:	0202d293          	srli	t0,t0,0x20
   1800c:	0072f2b3          	and	t0,t0,t2
   18010:	9f96                	add	t6,t6,t0
   18012:	005fb333          	sltu	t1,t6,t0
   18016:	9ff6                	add	t6,t6,t4
   18018:	01dfbeb3          	sltu	t4,t6,t4
   1801c:	006eeeb3          	or	t4,t4,t1
   18020:	98f6                	add	a7,a7,t4
   18022:	01d8beb3          	sltu	t4,a7,t4
   18026:	4285                	li	t0,1
   18028:	1282                	slli	t0,t0,0x20
   1802a:	0072f2b3          	and	t0,t0,t2
   1802e:	9696                	add	a3,a3,t0
   18030:	96f6                	add	a3,a3,t4
   18032:	01e53023          	sd	t5,0(a0)
   18036:	01f53423          	sd	t6,8(a0)
   1803a:	01153823          	sd	a7,16(a0)
   1803e:	ed14                	sd	a3,24(a0)
   18040:	8082                	ret
	...

0000000000018044 <fp_mont_sub>:
   18044:	6194                	ld	a3,0(a1)
   18046:	00063283          	ld	t0,0(a2)
   1804a:	5ffd                	li	t6,-1
   1804c:	6598                	ld	a4,8(a1)
   1804e:	00863303          	ld	t1,8(a2)
   18052:	020f9e93          	slli	t4,t6,0x20
   18056:	699c                	ld	a5,16(a1)
   18058:	01063383          	ld	t2,16(a2)
   1805c:	fffe8f13          	addi	t5,t4,-1
   18060:	0185b803          	ld	a6,24(a1)
   18064:	01863e03          	ld	t3,24(a2)
   18068:	0056b8b3          	sltu	a7,a3,t0
   1806c:	405686b3          	sub	a3,a3,t0
   18070:	006735b3          	sltu	a1,a4,t1
   18074:	40670733          	sub	a4,a4,t1
   18078:	0077b2b3          	sltu	t0,a5,t2
   1807c:	407787b3          	sub	a5,a5,t2
   18080:	01173633          	sltu	a2,a4,a7
   18084:	41170733          	sub	a4,a4,a7
   18088:	00c5e8b3          	or	a7,a1,a2
   1808c:	01c835b3          	sltu	a1,a6,t3
   18090:	41c80833          	sub	a6,a6,t3
   18094:	0117b633          	sltu	a2,a5,a7
   18098:	411787b3          	sub	a5,a5,a7
   1809c:	00c2e8b3          	or	a7,t0,a2
   180a0:	01183633          	sltu	a2,a6,a7
   180a4:	41180833          	sub	a6,a6,a7
   180a8:	00c5e8b3          	or	a7,a1,a2
   180ac:	0f1fd2b3          	czero.eqz	t0,t6,a7
   180b0:	005ef333          	and	t1,t4,t0
   180b4:	005f7e33          	and	t3,t5,t0
   180b8:	9696                	add	a3,a3,t0
   180ba:	971a                	add	a4,a4,t1
   180bc:	9796                	add	a5,a5,t0
   180be:	9872                	add	a6,a6,t3
   180c0:	0056b5b3          	sltu	a1,a3,t0
   180c4:	00673633          	sltu	a2,a4,t1
   180c8:	0057b3b3          	sltu	t2,a5,t0
   180cc:	972e                	add	a4,a4,a1
   180ce:	e114                	sd	a3,0(a0)
   180d0:	00b735b3          	sltu	a1,a4,a1
   180d4:	8dd1                	or	a1,a1,a2
   180d6:	97ae                	add	a5,a5,a1
   180d8:	e518                	sd	a4,8(a0)
   180da:	00b7b5b3          	sltu	a1,a5,a1
   180de:	00b3e5b3          	or	a1,t2,a1
   180e2:	982e                	add	a6,a6,a1
   180e4:	e91c                	sd	a5,16(a0)
   180e6:	01053c23          	sd	a6,24(a0)
   180ea:	8082                	ret
   180ec:	0000                	unimp
	...

00000000000180f0 <fp_mont_neg>:
   180f0:	0005b283          	ld	t0,0(a1)
   180f4:	0085b303          	ld	t1,8(a1)
   180f8:	0105b383          	ld	t2,16(a1)
   180fc:	0185be03          	ld	t3,24(a1)
   18100:	0062eeb3          	or	t4,t0,t1
   18104:	007eeeb3          	or	t4,t4,t2
   18108:	01ceeeb3          	or	t4,t4,t3
   1810c:	01d03eb3          	snez	t4,t4
   18110:	41d00eb3          	neg	t4,t4
   18114:	fff2cf13          	not	t5,t0
   18118:	4f81                	li	t6,0
   1811a:	fff0061b          	addiw	a2,zero,-1
   1811e:	1602                	slli	a2,a2,0x20
   18120:	406606b3          	sub	a3,a2,t1
   18124:	00663733          	sltu	a4,a2,t1
   18128:	41f68333          	sub	t1,a3,t6
   1812c:	01f6bfb3          	sltu	t6,a3,t6
   18130:	01f76fb3          	or	t6,a4,t6
   18134:	fff3c693          	not	a3,t2
   18138:	41f683b3          	sub	t2,a3,t6
   1813c:	01f6bfb3          	sltu	t6,a3,t6
   18140:	fff0061b          	addiw	a2,zero,-1
   18144:	1602                	slli	a2,a2,0x20
   18146:	167d                	addi	a2,a2,-1
   18148:	41c606b3          	sub	a3,a2,t3
   1814c:	01c63733          	sltu	a4,a2,t3
   18150:	41f68e33          	sub	t3,a3,t6
   18154:	01f6bfb3          	sltu	t6,a3,t6
   18158:	01f76fb3          	or	t6,a4,t6
   1815c:	01df7f33          	and	t5,t5,t4
   18160:	01d37333          	and	t1,t1,t4
   18164:	01d3f3b3          	and	t2,t2,t4
   18168:	01de7e33          	and	t3,t3,t4
   1816c:	01e53023          	sd	t5,0(a0)
   18170:	00653423          	sd	t1,8(a0)
   18174:	00753823          	sd	t2,16(a0)
   18178:	01c53c23          	sd	t3,24(a0)
   1817c:	8082                	ret
	...

0000000000018180 <fp_mont_mul>:
   18180:	fc810113          	addi	sp,sp,-56
   18184:	e022                	sd	s0,0(sp)
   18186:	e426                	sd	s1,8(sp)
   18188:	e84a                	sd	s2,16(sp)
   1818a:	ec4e                	sd	s3,24(sp)
   1818c:	f052                	sd	s4,32(sp)
   1818e:	f456                	sd	s5,40(sp)
   18190:	f85a                	sd	s6,48(sp)
   18192:	8a2a                	mv	s4,a0
   18194:	6180                	ld	s0,0(a1)
   18196:	6584                	ld	s1,8(a1)
   18198:	0105b903          	ld	s2,16(a1)
   1819c:	0185b983          	ld	s3,24(a1)
   181a0:	fff00a9b          	addiw	s5,zero,-1
   181a4:	1a82                	slli	s5,s5,0x20
   181a6:	fff00b1b          	addiw	s6,zero,-1
   181aa:	1b02                	slli	s6,s6,0x20
   181ac:	1b7d                	addi	s6,s6,-1
   181ae:	00000293          	li	t0,0
   181b2:	00000313          	li	t1,0
   181b6:	00000393          	li	t2,0
   181ba:	00000e13          	li	t3,0
   181be:	00000e93          	li	t4,0
   181c2:	00000f13          	li	t5,0
   181c6:	620c                	ld	a1,0(a2)
   181c8:	02b406b3          	mul	a3,s0,a1
   181cc:	02b43733          	mulhu	a4,s0,a1
   181d0:	02b487b3          	mul	a5,s1,a1
   181d4:	02b4b833          	mulhu	a6,s1,a1
   181d8:	02b908b3          	mul	a7,s2,a1
   181dc:	02b93533          	mulhu	a0,s2,a1
   181e0:	92b6                	add	t0,t0,a3
   181e2:	00d2b6b3          	sltu	a3,t0,a3
   181e6:	9736                	add	a4,a4,a3
   181e8:	02b98fb3          	mul	t6,s3,a1
   181ec:	02b9b5b3          	mulhu	a1,s3,a1
   181f0:	933e                	add	t1,t1,a5
   181f2:	00f336b3          	sltu	a3,t1,a5
   181f6:	933a                	add	t1,t1,a4
   181f8:	00e33733          	sltu	a4,t1,a4
   181fc:	96ba                	add	a3,a3,a4
   181fe:	9836                	add	a6,a6,a3
   18200:	93c6                	add	t2,t2,a7
   18202:	0113b6b3          	sltu	a3,t2,a7
   18206:	93c2                	add	t2,t2,a6
   18208:	0103b733          	sltu	a4,t2,a6
   1820c:	96ba                	add	a3,a3,a4
   1820e:	9536                	add	a0,a0,a3
   18210:	9e7e                	add	t3,t3,t6
   18212:	01fe36b3          	sltu	a3,t3,t6
   18216:	9e2a                	add	t3,t3,a0
   18218:	00ae3733          	sltu	a4,t3,a0
   1821c:	96ba                	add	a3,a3,a4
   1821e:	95b6                	add	a1,a1,a3
   18220:	9eae                	add	t4,t4,a1
   18222:	00beb6b3          	sltu	a3,t4,a1
   18226:	9f36                	add	t5,t5,a3
   18228:	8f96                	mv	t6,t0
   1822a:	020f9693          	slli	a3,t6,0x20
   1822e:	020fd713          	srli	a4,t6,0x20
   18232:	00000293          	li	t0,0
   18236:	01f307b3          	add	a5,t1,t6
   1823a:	0067b833          	sltu	a6,a5,t1
   1823e:	00d7b8b3          	sltu	a7,a5,a3
   18242:	40d78333          	sub	t1,a5,a3
   18246:	010387b3          	add	a5,t2,a6
   1824a:	0077b833          	sltu	a6,a5,t2
   1824e:	00e7b533          	sltu	a0,a5,a4
   18252:	8f99                	sub	a5,a5,a4
   18254:	0117b5b3          	sltu	a1,a5,a7
   18258:	411783b3          	sub	t2,a5,a7
   1825c:	00b568b3          	or	a7,a0,a1
   18260:	010e07b3          	add	a5,t3,a6
   18264:	01c7b833          	sltu	a6,a5,t3
   18268:	00d7b533          	sltu	a0,a5,a3
   1826c:	8f95                	sub	a5,a5,a3
   1826e:	0117b5b3          	sltu	a1,a5,a7
   18272:	41178e33          	sub	t3,a5,a7
   18276:	00b568b3          	or	a7,a0,a1
   1827a:	01fe87b3          	add	a5,t4,t6
   1827e:	01d7b533          	sltu	a0,a5,t4
   18282:	97c2                	add	a5,a5,a6
   18284:	0107b5b3          	sltu	a1,a5,a6
   18288:	00b56833          	or	a6,a0,a1
   1828c:	00e7b533          	sltu	a0,a5,a4
   18290:	8f99                	sub	a5,a5,a4
   18292:	0117b5b3          	sltu	a1,a5,a7
   18296:	41178eb3          	sub	t4,a5,a7
   1829a:	00b568b3          	or	a7,a0,a1
   1829e:	010f07b3          	add	a5,t5,a6
   182a2:	41178f33          	sub	t5,a5,a7
   182a6:	660c                	ld	a1,8(a2)
   182a8:	02b406b3          	mul	a3,s0,a1
   182ac:	02b43733          	mulhu	a4,s0,a1
   182b0:	02b487b3          	mul	a5,s1,a1
   182b4:	02b4b833          	mulhu	a6,s1,a1
   182b8:	02b908b3          	mul	a7,s2,a1
   182bc:	02b93533          	mulhu	a0,s2,a1
   182c0:	9336                	add	t1,t1,a3
   182c2:	00d336b3          	sltu	a3,t1,a3
   182c6:	9736                	add	a4,a4,a3
   182c8:	02b98fb3          	mul	t6,s3,a1
   182cc:	02b9b5b3          	mulhu	a1,s3,a1
   182d0:	93be                	add	t2,t2,a5
   182d2:	00f3b6b3          	sltu	a3,t2,a5
   182d6:	93ba                	add	t2,t2,a4
   182d8:	00e3b733          	sltu	a4,t2,a4
   182dc:	96ba                	add	a3,a3,a4
   182de:	9836                	add	a6,a6,a3
   182e0:	9e46                	add	t3,t3,a7
   182e2:	011e36b3          	sltu	a3,t3,a7
   182e6:	9e42                	add	t3,t3,a6
   182e8:	010e3733          	sltu	a4,t3,a6
   182ec:	96ba                	add	a3,a3,a4
   182ee:	9536                	add	a0,a0,a3
   182f0:	9efe                	add	t4,t4,t6
   182f2:	01feb6b3          	sltu	a3,t4,t6
   182f6:	9eaa                	add	t4,t4,a0
   182f8:	00aeb733          	sltu	a4,t4,a0
   182fc:	96ba                	add	a3,a3,a4
   182fe:	95b6                	add	a1,a1,a3
   18300:	9f2e                	add	t5,t5,a1
   18302:	00bf36b3          	sltu	a3,t5,a1
   18306:	92b6                	add	t0,t0,a3
   18308:	8f9a                	mv	t6,t1
   1830a:	020f9693          	slli	a3,t6,0x20
   1830e:	020fd713          	srli	a4,t6,0x20
   18312:	00000313          	li	t1,0
   18316:	01f387b3          	add	a5,t2,t6
   1831a:	0077b833          	sltu	a6,a5,t2
   1831e:	00d7b8b3          	sltu	a7,a5,a3
   18322:	40d783b3          	sub	t2,a5,a3
   18326:	010e07b3          	add	a5,t3,a6
   1832a:	01c7b833          	sltu	a6,a5,t3
   1832e:	00e7b533          	sltu	a0,a5,a4
   18332:	8f99                	sub	a5,a5,a4
   18334:	0117b5b3          	sltu	a1,a5,a7
   18338:	41178e33          	sub	t3,a5,a7
   1833c:	00b568b3          	or	a7,a0,a1
   18340:	010e87b3          	add	a5,t4,a6
   18344:	01d7b833          	sltu	a6,a5,t4
   18348:	00d7b533          	sltu	a0,a5,a3
   1834c:	8f95                	sub	a5,a5,a3
   1834e:	0117b5b3          	sltu	a1,a5,a7
   18352:	41178eb3          	sub	t4,a5,a7
   18356:	00b568b3          	or	a7,a0,a1
   1835a:	01ff07b3          	add	a5,t5,t6
   1835e:	01e7b533          	sltu	a0,a5,t5
   18362:	97c2                	add	a5,a5,a6
   18364:	0107b5b3          	sltu	a1,a5,a6
   18368:	00b56833          	or	a6,a0,a1
   1836c:	00e7b533          	sltu	a0,a5,a4
   18370:	8f99                	sub	a5,a5,a4
   18372:	0117b5b3          	sltu	a1,a5,a7
   18376:	41178f33          	sub	t5,a5,a7
   1837a:	00b568b3          	or	a7,a0,a1
   1837e:	010287b3          	add	a5,t0,a6
   18382:	411782b3          	sub	t0,a5,a7
   18386:	6a0c                	ld	a1,16(a2)
   18388:	02b406b3          	mul	a3,s0,a1
   1838c:	02b43733          	mulhu	a4,s0,a1
   18390:	02b487b3          	mul	a5,s1,a1
   18394:	02b4b833          	mulhu	a6,s1,a1
   18398:	02b908b3          	mul	a7,s2,a1
   1839c:	02b93533          	mulhu	a0,s2,a1
   183a0:	93b6                	add	t2,t2,a3
   183a2:	00d3b6b3          	sltu	a3,t2,a3
   183a6:	9736                	add	a4,a4,a3
   183a8:	02b98fb3          	mul	t6,s3,a1
   183ac:	02b9b5b3          	mulhu	a1,s3,a1
   183b0:	9e3e                	add	t3,t3,a5
   183b2:	00fe36b3          	sltu	a3,t3,a5
   183b6:	9e3a                	add	t3,t3,a4
   183b8:	00ee3733          	sltu	a4,t3,a4
   183bc:	96ba                	add	a3,a3,a4
   183be:	9836                	add	a6,a6,a3
   183c0:	9ec6                	add	t4,t4,a7
   183c2:	011eb6b3          	sltu	a3,t4,a7
   183c6:	9ec2                	add	t4,t4,a6
   183c8:	010eb733          	sltu	a4,t4,a6
   183cc:	96ba                	add	a3,a3,a4
   183ce:	9536                	add	a0,a0,a3
   183d0:	9f7e                	add	t5,t5,t6
   183d2:	01ff36b3          	sltu	a3,t5,t6
   183d6:	9f2a                	add	t5,t5,a0
   183d8:	00af3733          	sltu	a4,t5,a0
   183dc:	96ba                	add	a3,a3,a4
   183de:	95b6                	add	a1,a1,a3
   183e0:	92ae                	add	t0,t0,a1
   183e2:	00b2b6b3          	sltu	a3,t0,a1
   183e6:	9336                	add	t1,t1,a3
   183e8:	8f9e                	mv	t6,t2
   183ea:	020f9693          	slli	a3,t6,0x20
   183ee:	020fd713          	srli	a4,t6,0x20
   183f2:	00000393          	li	t2,0
   183f6:	01fe07b3          	add	a5,t3,t6
   183fa:	01c7b833          	sltu	a6,a5,t3
   183fe:	00d7b8b3          	sltu	a7,a5,a3
   18402:	40d78e33          	sub	t3,a5,a3
   18406:	010e87b3          	add	a5,t4,a6
   1840a:	01d7b833          	sltu	a6,a5,t4
   1840e:	00e7b533          	sltu	a0,a5,a4
   18412:	8f99                	sub	a5,a5,a4
   18414:	0117b5b3          	sltu	a1,a5,a7
   18418:	41178eb3          	sub	t4,a5,a7
   1841c:	00b568b3          	or	a7,a0,a1
   18420:	010f07b3          	add	a5,t5,a6
   18424:	01e7b833          	sltu	a6,a5,t5
   18428:	00d7b533          	sltu	a0,a5,a3
   1842c:	8f95                	sub	a5,a5,a3
   1842e:	0117b5b3          	sltu	a1,a5,a7
   18432:	41178f33          	sub	t5,a5,a7
   18436:	00b568b3          	or	a7,a0,a1
   1843a:	01f287b3          	add	a5,t0,t6
   1843e:	0057b533          	sltu	a0,a5,t0
   18442:	97c2                	add	a5,a5,a6
   18444:	0107b5b3          	sltu	a1,a5,a6
   18448:	00b56833          	or	a6,a0,a1
   1844c:	00e7b533          	sltu	a0,a5,a4
   18450:	8f99                	sub	a5,a5,a4
   18452:	0117b5b3          	sltu	a1,a5,a7
   18456:	411782b3          	sub	t0,a5,a7
   1845a:	00b568b3          	or	a7,a0,a1
   1845e:	010307b3          	add	a5,t1,a6
   18462:	41178333          	sub	t1,a5,a7
   18466:	6e0c                	ld	a1,24(a2)
   18468:	02b406b3          	mul	a3,s0,a1
   1846c:	02b43733          	mulhu	a4,s0,a1
   18470:	02b487b3          	mul	a5,s1,a1
   18474:	02b4b833          	mulhu	a6,s1,a1
   18478:	02b908b3          	mul	a7,s2,a1
   1847c:	02b93533          	mulhu	a0,s2,a1
   18480:	9e36                	add	t3,t3,a3
   18482:	00de36b3          	sltu	a3,t3,a3
   18486:	9736                	add	a4,a4,a3
   18488:	02b98fb3          	mul	t6,s3,a1
   1848c:	02b9b5b3          	mulhu	a1,s3,a1
   18490:	9ebe                	add	t4,t4,a5
   18492:	00feb6b3          	sltu	a3,t4,a5
   18496:	9eba                	add	t4,t4,a4
   18498:	00eeb733          	sltu	a4,t4,a4
   1849c:	96ba                	add	a3,a3,a4
   1849e:	9836                	add	a6,a6,a3
   184a0:	9f46                	add	t5,t5,a7
   184a2:	011f36b3          	sltu	a3,t5,a7
   184a6:	9f42                	add	t5,t5,a6
   184a8:	010f3733          	sltu	a4,t5,a6
   184ac:	96ba                	add	a3,a3,a4
   184ae:	9536                	add	a0,a0,a3
   184b0:	92fe                	add	t0,t0,t6
   184b2:	01f2b6b3          	sltu	a3,t0,t6
   184b6:	92aa                	add	t0,t0,a0
   184b8:	00a2b733          	sltu	a4,t0,a0
   184bc:	96ba                	add	a3,a3,a4
   184be:	95b6                	add	a1,a1,a3
   184c0:	932e                	add	t1,t1,a1
   184c2:	00b336b3          	sltu	a3,t1,a1
   184c6:	93b6                	add	t2,t2,a3
   184c8:	8ff2                	mv	t6,t3
   184ca:	020f9693          	slli	a3,t6,0x20
   184ce:	020fd713          	srli	a4,t6,0x20
   184d2:	00000e13          	li	t3,0
   184d6:	01fe87b3          	add	a5,t4,t6
   184da:	01d7b833          	sltu	a6,a5,t4
   184de:	00d7b8b3          	sltu	a7,a5,a3
   184e2:	40d78eb3          	sub	t4,a5,a3
   184e6:	010f07b3          	add	a5,t5,a6
   184ea:	01e7b833          	sltu	a6,a5,t5
   184ee:	00e7b533          	sltu	a0,a5,a4
   184f2:	8f99                	sub	a5,a5,a4
   184f4:	0117b5b3          	sltu	a1,a5,a7
   184f8:	41178f33          	sub	t5,a5,a7
   184fc:	00b568b3          	or	a7,a0,a1
   18500:	010287b3          	add	a5,t0,a6
   18504:	0057b833          	sltu	a6,a5,t0
   18508:	00d7b533          	sltu	a0,a5,a3
   1850c:	8f95                	sub	a5,a5,a3
   1850e:	0117b5b3          	sltu	a1,a5,a7
   18512:	411782b3          	sub	t0,a5,a7
   18516:	00b568b3          	or	a7,a0,a1
   1851a:	01f307b3          	add	a5,t1,t6
   1851e:	0067b533          	sltu	a0,a5,t1
   18522:	97c2                	add	a5,a5,a6
   18524:	0107b5b3          	sltu	a1,a5,a6
   18528:	00b56833          	or	a6,a0,a1
   1852c:	00e7b533          	sltu	a0,a5,a4
   18530:	8f99                	sub	a5,a5,a4
   18532:	0117b5b3          	sltu	a1,a5,a7
   18536:	41178333          	sub	t1,a5,a7
   1853a:	00b568b3          	or	a7,a0,a1
   1853e:	010387b3          	add	a5,t2,a6
   18542:	411783b3          	sub	t2,a5,a7
   18546:	0013f813          	andi	a6,t2,1
   1854a:	87c2                	mv	a5,a6
   1854c:	410003b3          	neg	t2,a6
   18550:	9ec2                	add	t4,t4,a6
   18552:	010ebe33          	sltu	t3,t4,a6
   18556:	0203d693          	srli	a3,t2,0x20
   1855a:	00df0733          	add	a4,t5,a3
   1855e:	01e73833          	sltu	a6,a4,t5
   18562:	01c70f33          	add	t5,a4,t3
   18566:	01cf38b3          	sltu	a7,t5,t3
   1856a:	01186e33          	or	t3,a6,a7
   1856e:	92f2                	add	t0,t0,t3
   18570:	01c2be33          	sltu	t3,t0,t3
   18574:	02079693          	slli	a3,a5,0x20
   18578:	00d30733          	add	a4,t1,a3
   1857c:	00673833          	sltu	a6,a4,t1
   18580:	01c70333          	add	t1,a4,t3
   18584:	01c338b3          	sltu	a7,t1,t3
   18588:	01186e33          	or	t3,a6,a7
   1858c:	00000393          	li	t2,0
   18590:	5ffd                	li	t6,-1
   18592:	41fe8e33          	sub	t3,t4,t6
   18596:	01feb533          	sltu	a0,t4,t6
   1859a:	407e06b3          	sub	a3,t3,t2
   1859e:	007e33b3          	sltu	t2,t3,t2
   185a2:	00a3e3b3          	or	t2,t2,a0
   185a6:	415f0e33          	sub	t3,t5,s5
   185aa:	015f3533          	sltu	a0,t5,s5
   185ae:	407e0733          	sub	a4,t3,t2
   185b2:	007e33b3          	sltu	t2,t3,t2
   185b6:	00a3e3b3          	or	t2,t2,a0
   185ba:	41f28e33          	sub	t3,t0,t6
   185be:	01f2b533          	sltu	a0,t0,t6
   185c2:	407e07b3          	sub	a5,t3,t2
   185c6:	007e33b3          	sltu	t2,t3,t2
   185ca:	00a3e3b3          	or	t2,t2,a0
   185ce:	41630e33          	sub	t3,t1,s6
   185d2:	01633533          	sltu	a0,t1,s6
   185d6:	407e0833          	sub	a6,t3,t2
   185da:	007e33b3          	sltu	t2,t3,t2
   185de:	00a3e3b3          	or	t2,t2,a0
   185e2:	0013c393          	xori	t2,t2,1
   185e6:	407003b3          	neg	t2,t2
   185ea:	0076f6b3          	and	a3,a3,t2
   185ee:	407efeb3          	andn	t4,t4,t2
   185f2:	00deeeb3          	or	t4,t4,a3
   185f6:	00777733          	and	a4,a4,t2
   185fa:	407f7f33          	andn	t5,t5,t2
   185fe:	00ef6f33          	or	t5,t5,a4
   18602:	0077f7b3          	and	a5,a5,t2
   18606:	4072f2b3          	andn	t0,t0,t2
   1860a:	00f2e2b3          	or	t0,t0,a5
   1860e:	00787833          	and	a6,a6,t2
   18612:	40737333          	andn	t1,t1,t2
   18616:	01036333          	or	t1,t1,a6
   1861a:	00000393          	li	t2,0
   1861e:	41fe8e33          	sub	t3,t4,t6
   18622:	01feb533          	sltu	a0,t4,t6
   18626:	407e06b3          	sub	a3,t3,t2
   1862a:	007e33b3          	sltu	t2,t3,t2
   1862e:	00a3e3b3          	or	t2,t2,a0
   18632:	415f0e33          	sub	t3,t5,s5
   18636:	015f3533          	sltu	a0,t5,s5
   1863a:	407e0733          	sub	a4,t3,t2
   1863e:	007e33b3          	sltu	t2,t3,t2
   18642:	00a3e3b3          	or	t2,t2,a0
   18646:	41f28e33          	sub	t3,t0,t6
   1864a:	01f2b533          	sltu	a0,t0,t6
   1864e:	407e07b3          	sub	a5,t3,t2
   18652:	007e33b3          	sltu	t2,t3,t2
   18656:	00a3e3b3          	or	t2,t2,a0
   1865a:	41630e33          	sub	t3,t1,s6
   1865e:	01633533          	sltu	a0,t1,s6
   18662:	407e0833          	sub	a6,t3,t2
   18666:	007e33b3          	sltu	t2,t3,t2
   1866a:	00a3e3b3          	or	t2,t2,a0
   1866e:	0013c393          	xori	t2,t2,1
   18672:	407003b3          	neg	t2,t2
   18676:	0076f6b3          	and	a3,a3,t2
   1867a:	407efeb3          	andn	t4,t4,t2
   1867e:	00deeeb3          	or	t4,t4,a3
   18682:	00777733          	and	a4,a4,t2
   18686:	407f7f33          	andn	t5,t5,t2
   1868a:	00ef6f33          	or	t5,t5,a4
   1868e:	0077f7b3          	and	a5,a5,t2
   18692:	4072f2b3          	andn	t0,t0,t2
   18696:	00f2e2b3          	or	t0,t0,a5
   1869a:	00787833          	and	a6,a6,t2
   1869e:	40737333          	andn	t1,t1,t2
   186a2:	01036333          	or	t1,t1,a6
   186a6:	01da3023          	sd	t4,0(s4)
   186aa:	01ea3423          	sd	t5,8(s4)
   186ae:	005a3823          	sd	t0,16(s4)
   186b2:	006a3c23          	sd	t1,24(s4)
   186b6:	6402                	ld	s0,0(sp)
   186b8:	64a2                	ld	s1,8(sp)
   186ba:	6942                	ld	s2,16(sp)
   186bc:	69e2                	ld	s3,24(sp)
   186be:	7a02                	ld	s4,32(sp)
   186c0:	7aa2                	ld	s5,40(sp)
   186c2:	7b42                	ld	s6,48(sp)
   186c4:	03810113          	addi	sp,sp,56
   186c8:	8082                	ret
	...

00000000000186cc <fp_mont_sqr>:
   186cc:	fd810113          	addi	sp,sp,-40
   186d0:	00813023          	sd	s0,0(sp)
   186d4:	00913423          	sd	s1,8(sp)
   186d8:	01213823          	sd	s2,16(sp)
   186dc:	01313c23          	sd	s3,24(sp)
   186e0:	03413023          	sd	s4,32(sp)
   186e4:	00050a13          	mv	s4,a0
   186e8:	0005b403          	ld	s0,0(a1)
   186ec:	0085b483          	ld	s1,8(a1)
   186f0:	0105b903          	ld	s2,16(a1)
   186f4:	0185b983          	ld	s3,24(a1)
   186f8:	00000293          	li	t0,0
   186fc:	00000313          	li	t1,0
   18700:	00000393          	li	t2,0
   18704:	00000e13          	li	t3,0
   18708:	00000e93          	li	t4,0
   1870c:	00000f13          	li	t5,0
   18710:	00000f93          	li	t6,0
   18714:	02840633          	mul	a2,s0,s0
   18718:	028436b3          	mulhu	a3,s0,s0
   1871c:	02940733          	mul	a4,s0,s1
   18720:	029437b3          	mulhu	a5,s0,s1
   18724:	00c28833          	add	a6,t0,a2
   18728:	005838b3          	sltu	a7,a6,t0
   1872c:	00080293          	mv	t0,a6
   18730:	00d30833          	add	a6,t1,a3
   18734:	00683533          	sltu	a0,a6,t1
   18738:	01180833          	add	a6,a6,a7
   1873c:	011838b3          	sltu	a7,a6,a7
   18740:	00080313          	mv	t1,a6
   18744:	01156533          	or	a0,a0,a7
   18748:	00a38833          	add	a6,t2,a0
   1874c:	007838b3          	sltu	a7,a6,t2
   18750:	00080393          	mv	t2,a6
   18754:	011f8fb3          	add	t6,t6,a7
   18758:	03240533          	mul	a0,s0,s2
   1875c:	032435b3          	mulhu	a1,s0,s2
   18760:	03f7d693          	srli	a3,a5,0x3f
   18764:	03f75813          	srli	a6,a4,0x3f
   18768:	20072733          	sh1add	a4,a4,zero
   1876c:	2107a7b3          	sh1add	a5,a5,a6
   18770:	00e30633          	add	a2,t1,a4
   18774:	00663833          	sltu	a6,a2,t1
   18778:	00060313          	mv	t1,a2
   1877c:	00f38633          	add	a2,t2,a5
   18780:	007638b3          	sltu	a7,a2,t2
   18784:	01060633          	add	a2,a2,a6
   18788:	01063833          	sltu	a6,a2,a6
   1878c:	00060393          	mv	t2,a2
   18790:	0108e8b3          	or	a7,a7,a6
   18794:	00de0633          	add	a2,t3,a3
   18798:	01c63833          	sltu	a6,a2,t3
   1879c:	01160633          	add	a2,a2,a7
   187a0:	011638b3          	sltu	a7,a2,a7
   187a4:	00060e13          	mv	t3,a2
   187a8:	01186833          	or	a6,a6,a7
   187ac:	010f8fb3          	add	t6,t6,a6
   187b0:	03340733          	mul	a4,s0,s3
   187b4:	033437b3          	mulhu	a5,s0,s3
   187b8:	03f5d693          	srli	a3,a1,0x3f
   187bc:	03f55813          	srli	a6,a0,0x3f
   187c0:	20052533          	sh1add	a0,a0,zero
   187c4:	2105a5b3          	sh1add	a1,a1,a6
   187c8:	00a38633          	add	a2,t2,a0
   187cc:	00763833          	sltu	a6,a2,t2
   187d0:	00060393          	mv	t2,a2
   187d4:	00be0633          	add	a2,t3,a1
   187d8:	01c638b3          	sltu	a7,a2,t3
   187dc:	01060633          	add	a2,a2,a6
   187e0:	01063833          	sltu	a6,a2,a6
   187e4:	00060e13          	mv	t3,a2
   187e8:	0108e8b3          	or	a7,a7,a6
   187ec:	00de8633          	add	a2,t4,a3
   187f0:	01d63833          	sltu	a6,a2,t4
   187f4:	01160633          	add	a2,a2,a7
   187f8:	011638b3          	sltu	a7,a2,a7
   187fc:	00060e93          	mv	t4,a2
   18800:	01186833          	or	a6,a6,a7
   18804:	010f8fb3          	add	t6,t6,a6
   18808:	03f7d693          	srli	a3,a5,0x3f
   1880c:	03f75813          	srli	a6,a4,0x3f
   18810:	20072733          	sh1add	a4,a4,zero
   18814:	2107a7b3          	sh1add	a5,a5,a6
   18818:	00ee0633          	add	a2,t3,a4
   1881c:	01c63833          	sltu	a6,a2,t3
   18820:	00060e13          	mv	t3,a2
   18824:	00fe8633          	add	a2,t4,a5
   18828:	01d638b3          	sltu	a7,a2,t4
   1882c:	01060633          	add	a2,a2,a6
   18830:	01063833          	sltu	a6,a2,a6
   18834:	00060e93          	mv	t4,a2
   18838:	0108e8b3          	or	a7,a7,a6
   1883c:	00df0633          	add	a2,t5,a3
   18840:	01e63833          	sltu	a6,a2,t5
   18844:	01160633          	add	a2,a2,a7
   18848:	011638b3          	sltu	a7,a2,a7
   1884c:	00060f13          	mv	t5,a2
   18850:	01186833          	or	a6,a6,a7
   18854:	010f8fb3          	add	t6,t6,a6
   18858:	00028613          	mv	a2,t0
   1885c:	0a06169b          	slli.uw	a3,a2,0x20
   18860:	02065713          	srli	a4,a2,0x20
   18864:	00000293          	li	t0,0
   18868:	00c307b3          	add	a5,t1,a2
   1886c:	0067b833          	sltu	a6,a5,t1
   18870:	00d7b8b3          	sltu	a7,a5,a3
   18874:	40d78333          	sub	t1,a5,a3
   18878:	010387b3          	add	a5,t2,a6
   1887c:	0077b833          	sltu	a6,a5,t2
   18880:	00e7b533          	sltu	a0,a5,a4
   18884:	40e787b3          	sub	a5,a5,a4
   18888:	0117b5b3          	sltu	a1,a5,a7
   1888c:	411783b3          	sub	t2,a5,a7
   18890:	00b568b3          	or	a7,a0,a1
   18894:	010e07b3          	add	a5,t3,a6
   18898:	01c7b833          	sltu	a6,a5,t3
   1889c:	00d7b533          	sltu	a0,a5,a3
   188a0:	40d787b3          	sub	a5,a5,a3
   188a4:	0117b5b3          	sltu	a1,a5,a7
   188a8:	41178e33          	sub	t3,a5,a7
   188ac:	00b568b3          	or	a7,a0,a1
   188b0:	00ce87b3          	add	a5,t4,a2
   188b4:	01d7b533          	sltu	a0,a5,t4
   188b8:	010787b3          	add	a5,a5,a6
   188bc:	0107b5b3          	sltu	a1,a5,a6
   188c0:	00b56833          	or	a6,a0,a1
   188c4:	00e7b533          	sltu	a0,a5,a4
   188c8:	40e787b3          	sub	a5,a5,a4
   188cc:	0117b5b3          	sltu	a1,a5,a7
   188d0:	41178eb3          	sub	t4,a5,a7
   188d4:	00b568b3          	or	a7,a0,a1
   188d8:	010f07b3          	add	a5,t5,a6
   188dc:	01e7b533          	sltu	a0,a5,t5
   188e0:	0117b5b3          	sltu	a1,a5,a7
   188e4:	41178f33          	sub	t5,a5,a7
   188e8:	40bf8fb3          	sub	t6,t6,a1
   188ec:	00af82b3          	add	t0,t6,a0
   188f0:	00000f93          	li	t6,0
   188f4:	02948633          	mul	a2,s1,s1
   188f8:	0294b6b3          	mulhu	a3,s1,s1
   188fc:	03248733          	mul	a4,s1,s2
   18900:	0324b7b3          	mulhu	a5,s1,s2
   18904:	00c38833          	add	a6,t2,a2
   18908:	007838b3          	sltu	a7,a6,t2
   1890c:	00080393          	mv	t2,a6
   18910:	00de0833          	add	a6,t3,a3
   18914:	01c83533          	sltu	a0,a6,t3
   18918:	01180833          	add	a6,a6,a7
   1891c:	011838b3          	sltu	a7,a6,a7
   18920:	00080e13          	mv	t3,a6
   18924:	01156533          	or	a0,a0,a7
   18928:	00ae8833          	add	a6,t4,a0
   1892c:	01d838b3          	sltu	a7,a6,t4
   18930:	00080e93          	mv	t4,a6
   18934:	011f8fb3          	add	t6,t6,a7
   18938:	03348533          	mul	a0,s1,s3
   1893c:	0334b5b3          	mulhu	a1,s1,s3
   18940:	03f7d693          	srli	a3,a5,0x3f
   18944:	03f75813          	srli	a6,a4,0x3f
   18948:	20072733          	sh1add	a4,a4,zero
   1894c:	2107a7b3          	sh1add	a5,a5,a6
   18950:	00ee0633          	add	a2,t3,a4
   18954:	01c63833          	sltu	a6,a2,t3
   18958:	00060e13          	mv	t3,a2
   1895c:	00fe8633          	add	a2,t4,a5
   18960:	01d638b3          	sltu	a7,a2,t4
   18964:	01060633          	add	a2,a2,a6
   18968:	01063833          	sltu	a6,a2,a6
   1896c:	00060e93          	mv	t4,a2
   18970:	0108e8b3          	or	a7,a7,a6
   18974:	00df0633          	add	a2,t5,a3
   18978:	01e63833          	sltu	a6,a2,t5
   1897c:	01160633          	add	a2,a2,a7
   18980:	011638b3          	sltu	a7,a2,a7
   18984:	00060f13          	mv	t5,a2
   18988:	01186833          	or	a6,a6,a7
   1898c:	010f8fb3          	add	t6,t6,a6
   18990:	03f5d693          	srli	a3,a1,0x3f
   18994:	03f55813          	srli	a6,a0,0x3f
   18998:	20052533          	sh1add	a0,a0,zero
   1899c:	2105a5b3          	sh1add	a1,a1,a6
   189a0:	00ae8633          	add	a2,t4,a0
   189a4:	01d63833          	sltu	a6,a2,t4
   189a8:	00060e93          	mv	t4,a2
   189ac:	00bf0633          	add	a2,t5,a1
   189b0:	01e638b3          	sltu	a7,a2,t5
   189b4:	01060633          	add	a2,a2,a6
   189b8:	01063833          	sltu	a6,a2,a6
   189bc:	00060f13          	mv	t5,a2
   189c0:	0108e8b3          	or	a7,a7,a6
   189c4:	00d28633          	add	a2,t0,a3
   189c8:	00563833          	sltu	a6,a2,t0
   189cc:	01160633          	add	a2,a2,a7
   189d0:	011638b3          	sltu	a7,a2,a7
   189d4:	00060293          	mv	t0,a2
   189d8:	01186833          	or	a6,a6,a7
   189dc:	010f8fb3          	add	t6,t6,a6
   189e0:	00030613          	mv	a2,t1
   189e4:	0a06169b          	slli.uw	a3,a2,0x20
   189e8:	02065713          	srli	a4,a2,0x20
   189ec:	00000313          	li	t1,0
   189f0:	00c387b3          	add	a5,t2,a2
   189f4:	0077b833          	sltu	a6,a5,t2
   189f8:	00d7b8b3          	sltu	a7,a5,a3
   189fc:	40d783b3          	sub	t2,a5,a3
   18a00:	010e07b3          	add	a5,t3,a6
   18a04:	01c7b833          	sltu	a6,a5,t3
   18a08:	00e7b533          	sltu	a0,a5,a4
   18a0c:	40e787b3          	sub	a5,a5,a4
   18a10:	0117b5b3          	sltu	a1,a5,a7
   18a14:	41178e33          	sub	t3,a5,a7
   18a18:	00b568b3          	or	a7,a0,a1
   18a1c:	010e87b3          	add	a5,t4,a6
   18a20:	01d7b833          	sltu	a6,a5,t4
   18a24:	00d7b533          	sltu	a0,a5,a3
   18a28:	40d787b3          	sub	a5,a5,a3
   18a2c:	0117b5b3          	sltu	a1,a5,a7
   18a30:	41178eb3          	sub	t4,a5,a7
   18a34:	00b568b3          	or	a7,a0,a1
   18a38:	00cf07b3          	add	a5,t5,a2
   18a3c:	01e7b533          	sltu	a0,a5,t5
   18a40:	010787b3          	add	a5,a5,a6
   18a44:	0107b5b3          	sltu	a1,a5,a6
   18a48:	00b56833          	or	a6,a0,a1
   18a4c:	00e7b533          	sltu	a0,a5,a4
   18a50:	40e787b3          	sub	a5,a5,a4
   18a54:	0117b5b3          	sltu	a1,a5,a7
   18a58:	41178f33          	sub	t5,a5,a7
   18a5c:	00b568b3          	or	a7,a0,a1
   18a60:	010287b3          	add	a5,t0,a6
   18a64:	0057b533          	sltu	a0,a5,t0
   18a68:	0117b5b3          	sltu	a1,a5,a7
   18a6c:	411782b3          	sub	t0,a5,a7
   18a70:	40bf8fb3          	sub	t6,t6,a1
   18a74:	00af8333          	add	t1,t6,a0
   18a78:	00000f93          	li	t6,0
   18a7c:	03290633          	mul	a2,s2,s2
   18a80:	032936b3          	mulhu	a3,s2,s2
   18a84:	03390733          	mul	a4,s2,s3
   18a88:	033937b3          	mulhu	a5,s2,s3
   18a8c:	00ce8833          	add	a6,t4,a2
   18a90:	01d838b3          	sltu	a7,a6,t4
   18a94:	00080e93          	mv	t4,a6
   18a98:	00df0833          	add	a6,t5,a3
   18a9c:	01e83533          	sltu	a0,a6,t5
   18aa0:	01180833          	add	a6,a6,a7
   18aa4:	011838b3          	sltu	a7,a6,a7
   18aa8:	00080f13          	mv	t5,a6
   18aac:	01156533          	or	a0,a0,a7
   18ab0:	00a28833          	add	a6,t0,a0
   18ab4:	005838b3          	sltu	a7,a6,t0
   18ab8:	00080293          	mv	t0,a6
   18abc:	011f8fb3          	add	t6,t6,a7
   18ac0:	03f7d593          	srli	a1,a5,0x3f
   18ac4:	03f75813          	srli	a6,a4,0x3f
   18ac8:	20072733          	sh1add	a4,a4,zero
   18acc:	2107a7b3          	sh1add	a5,a5,a6
   18ad0:	00ef0533          	add	a0,t5,a4
   18ad4:	01e53833          	sltu	a6,a0,t5
   18ad8:	00050f13          	mv	t5,a0
   18adc:	00f28533          	add	a0,t0,a5
   18ae0:	005538b3          	sltu	a7,a0,t0
   18ae4:	01050533          	add	a0,a0,a6
   18ae8:	01053833          	sltu	a6,a0,a6
   18aec:	00050293          	mv	t0,a0
   18af0:	0108e8b3          	or	a7,a7,a6
   18af4:	00b30533          	add	a0,t1,a1
   18af8:	00653833          	sltu	a6,a0,t1
   18afc:	01150533          	add	a0,a0,a7
   18b00:	011538b3          	sltu	a7,a0,a7
   18b04:	00050313          	mv	t1,a0
   18b08:	01186833          	or	a6,a6,a7
   18b0c:	010f8fb3          	add	t6,t6,a6
   18b10:	00038613          	mv	a2,t2
   18b14:	0a06169b          	slli.uw	a3,a2,0x20
   18b18:	02065713          	srli	a4,a2,0x20
   18b1c:	00000393          	li	t2,0
   18b20:	00ce07b3          	add	a5,t3,a2
   18b24:	01c7b833          	sltu	a6,a5,t3
   18b28:	00d7b8b3          	sltu	a7,a5,a3
   18b2c:	40d78e33          	sub	t3,a5,a3
   18b30:	010e87b3          	add	a5,t4,a6
   18b34:	01d7b833          	sltu	a6,a5,t4
   18b38:	00e7b533          	sltu	a0,a5,a4
   18b3c:	40e787b3          	sub	a5,a5,a4
   18b40:	0117b5b3          	sltu	a1,a5,a7
   18b44:	41178eb3          	sub	t4,a5,a7
   18b48:	00b568b3          	or	a7,a0,a1
   18b4c:	010f07b3          	add	a5,t5,a6
   18b50:	01e7b833          	sltu	a6,a5,t5
   18b54:	00d7b533          	sltu	a0,a5,a3
   18b58:	40d787b3          	sub	a5,a5,a3
   18b5c:	0117b5b3          	sltu	a1,a5,a7
   18b60:	41178f33          	sub	t5,a5,a7
   18b64:	00b568b3          	or	a7,a0,a1
   18b68:	00c287b3          	add	a5,t0,a2
   18b6c:	0057b533          	sltu	a0,a5,t0
   18b70:	010787b3          	add	a5,a5,a6
   18b74:	0107b5b3          	sltu	a1,a5,a6
   18b78:	00b56833          	or	a6,a0,a1
   18b7c:	00e7b533          	sltu	a0,a5,a4
   18b80:	40e787b3          	sub	a5,a5,a4
   18b84:	0117b5b3          	sltu	a1,a5,a7
   18b88:	411782b3          	sub	t0,a5,a7
   18b8c:	00b568b3          	or	a7,a0,a1
   18b90:	010307b3          	add	a5,t1,a6
   18b94:	0067b533          	sltu	a0,a5,t1
   18b98:	0117b5b3          	sltu	a1,a5,a7
   18b9c:	41178333          	sub	t1,a5,a7
   18ba0:	40bf8fb3          	sub	t6,t6,a1
   18ba4:	00af83b3          	add	t2,t6,a0
   18ba8:	00000f93          	li	t6,0
   18bac:	03398633          	mul	a2,s3,s3
   18bb0:	0339b6b3          	mulhu	a3,s3,s3
   18bb4:	00c28833          	add	a6,t0,a2
   18bb8:	005838b3          	sltu	a7,a6,t0
   18bbc:	00080293          	mv	t0,a6
   18bc0:	00d30833          	add	a6,t1,a3
   18bc4:	00683533          	sltu	a0,a6,t1
   18bc8:	01180833          	add	a6,a6,a7
   18bcc:	011838b3          	sltu	a7,a6,a7
   18bd0:	00080313          	mv	t1,a6
   18bd4:	01156533          	or	a0,a0,a7
   18bd8:	00a38833          	add	a6,t2,a0
   18bdc:	007838b3          	sltu	a7,a6,t2
   18be0:	00080393          	mv	t2,a6
   18be4:	011f8fb3          	add	t6,t6,a7
   18be8:	000e0613          	mv	a2,t3
   18bec:	0a06169b          	slli.uw	a3,a2,0x20
   18bf0:	02065713          	srli	a4,a2,0x20
   18bf4:	00000e13          	li	t3,0
   18bf8:	00ce87b3          	add	a5,t4,a2
   18bfc:	01d7b833          	sltu	a6,a5,t4
   18c00:	00d7b8b3          	sltu	a7,a5,a3
   18c04:	40d78eb3          	sub	t4,a5,a3
   18c08:	010f07b3          	add	a5,t5,a6
   18c0c:	01e7b833          	sltu	a6,a5,t5
   18c10:	00e7b533          	sltu	a0,a5,a4
   18c14:	40e787b3          	sub	a5,a5,a4
   18c18:	0117b5b3          	sltu	a1,a5,a7
   18c1c:	41178f33          	sub	t5,a5,a7
   18c20:	00b568b3          	or	a7,a0,a1
   18c24:	010287b3          	add	a5,t0,a6
   18c28:	0057b833          	sltu	a6,a5,t0
   18c2c:	00d7b533          	sltu	a0,a5,a3
   18c30:	40d787b3          	sub	a5,a5,a3
   18c34:	0117b5b3          	sltu	a1,a5,a7
   18c38:	411782b3          	sub	t0,a5,a7
   18c3c:	00b568b3          	or	a7,a0,a1
   18c40:	00c307b3          	add	a5,t1,a2
   18c44:	0067b533          	sltu	a0,a5,t1
   18c48:	010787b3          	add	a5,a5,a6
   18c4c:	0107b5b3          	sltu	a1,a5,a6
   18c50:	00b56833          	or	a6,a0,a1
   18c54:	00e7b533          	sltu	a0,a5,a4
   18c58:	40e787b3          	sub	a5,a5,a4
   18c5c:	0117b5b3          	sltu	a1,a5,a7
   18c60:	41178333          	sub	t1,a5,a7
   18c64:	00b568b3          	or	a7,a0,a1
   18c68:	010387b3          	add	a5,t2,a6
   18c6c:	0077b533          	sltu	a0,a5,t2
   18c70:	0117b5b3          	sltu	a1,a5,a7
   18c74:	411783b3          	sub	t2,a5,a7
   18c78:	40bf8fb3          	sub	t6,t6,a1
   18c7c:	00af8e33          	add	t3,t6,a0
   18c80:	01c388b3          	add	a7,t2,t3
   18c84:	fff00513          	li	a0,-1
   18c88:	0018f813          	andi	a6,a7,1
   18c8c:	02051593          	slli	a1,a0,0x20
   18c90:	02081693          	slli	a3,a6,0x20
   18c94:	fff58613          	addi	a2,a1,-1
   18c98:	410003b3          	neg	t2,a6
   18c9c:	010e8eb3          	add	t4,t4,a6
   18ca0:	010ebe33          	sltu	t3,t4,a6
   18ca4:	0203d793          	srli	a5,t2,0x20
   18ca8:	00ff0733          	add	a4,t5,a5
   18cac:	01e738b3          	sltu	a7,a4,t5
   18cb0:	01c70f33          	add	t5,a4,t3
   18cb4:	01cf37b3          	sltu	a5,t5,t3
   18cb8:	00f8ee33          	or	t3,a7,a5
   18cbc:	01c282b3          	add	t0,t0,t3
   18cc0:	01c2be33          	sltu	t3,t0,t3
   18cc4:	00d30733          	add	a4,t1,a3
   18cc8:	006738b3          	sltu	a7,a4,t1
   18ccc:	01c70333          	add	t1,a4,t3
   18cd0:	01c337b3          	sltu	a5,t1,t3
   18cd4:	00f8ee33          	or	t3,a7,a5
   18cd8:	00128793          	addi	a5,t0,1 # 1001 <__abi_tag-0xf2b7>
   18cdc:	001e8693          	addi	a3,t4,1
   18ce0:	01d6b3b3          	sltu	t2,a3,t4
   18ce4:	40bf0733          	sub	a4,t5,a1
   18ce8:	00bf3fb3          	sltu	t6,t5,a1
   18cec:	40770733          	sub	a4,a4,t2
   18cf0:	007733b3          	sltu	t2,a4,t2
   18cf4:	01f3e3b3          	or	t2,t2,t6
   18cf8:	407787b3          	sub	a5,a5,t2
   18cfc:	0077b3b3          	sltu	t2,a5,t2
   18d00:	40c30833          	sub	a6,t1,a2
   18d04:	00c33fb3          	sltu	t6,t1,a2
   18d08:	40780833          	sub	a6,a6,t2
   18d0c:	007833b3          	sltu	t2,a6,t2
   18d10:	01f3e3b3          	or	t2,t2,t6
   18d14:	0013c393          	xori	t2,t2,1
   18d18:	40700e33          	neg	t3,t2
   18d1c:	00decfb3          	xor	t6,t4,a3
   18d20:	01cfffb3          	and	t6,t6,t3
   18d24:	01feceb3          	xor	t4,t4,t6
   18d28:	00ef4fb3          	xor	t6,t5,a4
   18d2c:	01cfffb3          	and	t6,t6,t3
   18d30:	01ff4f33          	xor	t5,t5,t6
   18d34:	00f2cfb3          	xor	t6,t0,a5
   18d38:	01cfffb3          	and	t6,t6,t3
   18d3c:	01f2c2b3          	xor	t0,t0,t6
   18d40:	01034fb3          	xor	t6,t1,a6
   18d44:	01cfffb3          	and	t6,t6,t3
   18d48:	01f34333          	xor	t1,t1,t6
   18d4c:	01da3023          	sd	t4,0(s4)
   18d50:	01ea3423          	sd	t5,8(s4)
   18d54:	005a3823          	sd	t0,16(s4)
   18d58:	006a3c23          	sd	t1,24(s4)
   18d5c:	00013403          	ld	s0,0(sp)
   18d60:	00813483          	ld	s1,8(sp)
   18d64:	01013903          	ld	s2,16(sp)
   18d68:	01813983          	ld	s3,24(sp)
   18d6c:	02013a03          	ld	s4,32(sp)
   18d70:	02810113          	addi	sp,sp,40
   18d74:	00008067          	ret

0000000000018d78 <fp_to_mont>:
   18d78:	fc810113          	addi	sp,sp,-56
   18d7c:	e022                	sd	s0,0(sp)
   18d7e:	e426                	sd	s1,8(sp)
   18d80:	e84a                	sd	s2,16(sp)
   18d82:	ec4e                	sd	s3,24(sp)
   18d84:	f052                	sd	s4,32(sp)
   18d86:	f456                	sd	s5,40(sp)
   18d88:	f85a                	sd	s6,48(sp)
   18d8a:	8a2a                	mv	s4,a0
   18d8c:	6180                	ld	s0,0(a1)
   18d8e:	6584                	ld	s1,8(a1)
   18d90:	0105b903          	ld	s2,16(a1)
   18d94:	0185b983          	ld	s3,24(a1)
   18d98:	fff00a9b          	addiw	s5,zero,-1
   18d9c:	1a82                	slli	s5,s5,0x20
   18d9e:	fff00b1b          	addiw	s6,zero,-1
   18da2:	1b02                	slli	s6,s6,0x20
   18da4:	1b7d                	addi	s6,s6,-1
   18da6:	00000293          	li	t0,0
   18daa:	00000313          	li	t1,0
   18dae:	00000393          	li	t2,0
   18db2:	00000e13          	li	t3,0
   18db6:	00000e93          	li	t4,0
   18dba:	00000f13          	li	t5,0
   18dbe:	0010059b          	addiw	a1,zero,1
   18dc2:	1586                	slli	a1,a1,0x21
   18dc4:	058d                	addi	a1,a1,3
   18dc6:	02b406b3          	mul	a3,s0,a1
   18dca:	02b43733          	mulhu	a4,s0,a1
   18dce:	02b48fb3          	mul	t6,s1,a1
   18dd2:	02b4b533          	mulhu	a0,s1,a1
   18dd6:	92b6                	add	t0,t0,a3
   18dd8:	00d2b833          	sltu	a6,t0,a3
   18ddc:	983a                	add	a6,a6,a4
   18dde:	02b906b3          	mul	a3,s2,a1
   18de2:	02b93733          	mulhu	a4,s2,a1
   18de6:	937e                	add	t1,t1,t6
   18de8:	01f338b3          	sltu	a7,t1,t6
   18dec:	9342                	add	t1,t1,a6
   18dee:	01033fb3          	sltu	t6,t1,a6
   18df2:	98fe                	add	a7,a7,t6
   18df4:	01150833          	add	a6,a0,a7
   18df8:	02b98fb3          	mul	t6,s3,a1
   18dfc:	02b9b533          	mulhu	a0,s3,a1
   18e00:	93b6                	add	t2,t2,a3
   18e02:	00d3b8b3          	sltu	a7,t2,a3
   18e06:	93c2                	add	t2,t2,a6
   18e08:	0103b6b3          	sltu	a3,t2,a6
   18e0c:	98b6                	add	a7,a7,a3
   18e0e:	01170833          	add	a6,a4,a7
   18e12:	9e7e                	add	t3,t3,t6
   18e14:	01fe38b3          	sltu	a7,t3,t6
   18e18:	9e42                	add	t3,t3,a6
   18e1a:	010e36b3          	sltu	a3,t3,a6
   18e1e:	98b6                	add	a7,a7,a3
   18e20:	01150833          	add	a6,a0,a7
   18e24:	9ec2                	add	t4,t4,a6
   18e26:	010eb8b3          	sltu	a7,t4,a6
   18e2a:	9f46                	add	t5,t5,a7
   18e2c:	8f96                	mv	t6,t0
   18e2e:	020f9693          	slli	a3,t6,0x20
   18e32:	020fd713          	srli	a4,t6,0x20
   18e36:	01f307b3          	add	a5,t1,t6
   18e3a:	0067b833          	sltu	a6,a5,t1
   18e3e:	00d7b8b3          	sltu	a7,a5,a3
   18e42:	40d78333          	sub	t1,a5,a3
   18e46:	010387b3          	add	a5,t2,a6
   18e4a:	0077b833          	sltu	a6,a5,t2
   18e4e:	00e7b533          	sltu	a0,a5,a4
   18e52:	8f99                	sub	a5,a5,a4
   18e54:	0117b5b3          	sltu	a1,a5,a7
   18e58:	411783b3          	sub	t2,a5,a7
   18e5c:	00b568b3          	or	a7,a0,a1
   18e60:	010e07b3          	add	a5,t3,a6
   18e64:	01c7b833          	sltu	a6,a5,t3
   18e68:	00d7b533          	sltu	a0,a5,a3
   18e6c:	8f95                	sub	a5,a5,a3
   18e6e:	0117b5b3          	sltu	a1,a5,a7
   18e72:	41178e33          	sub	t3,a5,a7
   18e76:	00b568b3          	or	a7,a0,a1
   18e7a:	01fe87b3          	add	a5,t4,t6
   18e7e:	01d7b533          	sltu	a0,a5,t4
   18e82:	97c2                	add	a5,a5,a6
   18e84:	0107b5b3          	sltu	a1,a5,a6
   18e88:	00b56833          	or	a6,a0,a1
   18e8c:	00e7b533          	sltu	a0,a5,a4
   18e90:	8f99                	sub	a5,a5,a4
   18e92:	0117b5b3          	sltu	a1,a5,a7
   18e96:	41178eb3          	sub	t4,a5,a7
   18e9a:	00b568b3          	or	a7,a0,a1
   18e9e:	010f07b3          	add	a5,t5,a6
   18ea2:	0107b533          	sltu	a0,a5,a6
   18ea6:	41178f33          	sub	t5,a5,a7
   18eaa:	0117b5b3          	sltu	a1,a5,a7
   18eae:	00b562b3          	or	t0,a0,a1
   18eb2:	0030059b          	addiw	a1,zero,3
   18eb6:	1582                	slli	a1,a1,0x20
   18eb8:	15fd                	addi	a1,a1,-1
   18eba:	02b406b3          	mul	a3,s0,a1
   18ebe:	02b43733          	mulhu	a4,s0,a1
   18ec2:	02b48fb3          	mul	t6,s1,a1
   18ec6:	02b4b533          	mulhu	a0,s1,a1
   18eca:	9336                	add	t1,t1,a3
   18ecc:	00d33833          	sltu	a6,t1,a3
   18ed0:	983a                	add	a6,a6,a4
   18ed2:	02b906b3          	mul	a3,s2,a1
   18ed6:	02b93733          	mulhu	a4,s2,a1
   18eda:	93fe                	add	t2,t2,t6
   18edc:	01f3b8b3          	sltu	a7,t2,t6
   18ee0:	93c2                	add	t2,t2,a6
   18ee2:	0103bfb3          	sltu	t6,t2,a6
   18ee6:	98fe                	add	a7,a7,t6
   18ee8:	01150833          	add	a6,a0,a7
   18eec:	02b98fb3          	mul	t6,s3,a1
   18ef0:	02b9b533          	mulhu	a0,s3,a1
   18ef4:	9e36                	add	t3,t3,a3
   18ef6:	00de38b3          	sltu	a7,t3,a3
   18efa:	9e42                	add	t3,t3,a6
   18efc:	010e36b3          	sltu	a3,t3,a6
   18f00:	98b6                	add	a7,a7,a3
   18f02:	01170833          	add	a6,a4,a7
   18f06:	9efe                	add	t4,t4,t6
   18f08:	01feb8b3          	sltu	a7,t4,t6
   18f0c:	9ec2                	add	t4,t4,a6
   18f0e:	010eb6b3          	sltu	a3,t4,a6
   18f12:	98b6                	add	a7,a7,a3
   18f14:	01150833          	add	a6,a0,a7
   18f18:	9f42                	add	t5,t5,a6
   18f1a:	010f38b3          	sltu	a7,t5,a6
   18f1e:	92c6                	add	t0,t0,a7
   18f20:	8f9a                	mv	t6,t1
   18f22:	020f9693          	slli	a3,t6,0x20
   18f26:	020fd713          	srli	a4,t6,0x20
   18f2a:	01f387b3          	add	a5,t2,t6
   18f2e:	0077b833          	sltu	a6,a5,t2
   18f32:	00d7b8b3          	sltu	a7,a5,a3
   18f36:	40d783b3          	sub	t2,a5,a3
   18f3a:	010e07b3          	add	a5,t3,a6
   18f3e:	01c7b833          	sltu	a6,a5,t3
   18f42:	00e7b533          	sltu	a0,a5,a4
   18f46:	8f99                	sub	a5,a5,a4
   18f48:	0117b5b3          	sltu	a1,a5,a7
   18f4c:	41178e33          	sub	t3,a5,a7
   18f50:	00b568b3          	or	a7,a0,a1
   18f54:	010e87b3          	add	a5,t4,a6
   18f58:	01d7b833          	sltu	a6,a5,t4
   18f5c:	00d7b533          	sltu	a0,a5,a3
   18f60:	8f95                	sub	a5,a5,a3
   18f62:	0117b5b3          	sltu	a1,a5,a7
   18f66:	41178eb3          	sub	t4,a5,a7
   18f6a:	00b568b3          	or	a7,a0,a1
   18f6e:	01ff07b3          	add	a5,t5,t6
   18f72:	01e7b533          	sltu	a0,a5,t5
   18f76:	97c2                	add	a5,a5,a6
   18f78:	0107b5b3          	sltu	a1,a5,a6
   18f7c:	00b56833          	or	a6,a0,a1
   18f80:	00e7b533          	sltu	a0,a5,a4
   18f84:	8f99                	sub	a5,a5,a4
   18f86:	0117b5b3          	sltu	a1,a5,a7
   18f8a:	41178f33          	sub	t5,a5,a7
   18f8e:	00b568b3          	or	a7,a0,a1
   18f92:	010287b3          	add	a5,t0,a6
   18f96:	0107b533          	sltu	a0,a5,a6
   18f9a:	411782b3          	sub	t0,a5,a7
   18f9e:	0117b5b3          	sltu	a1,a5,a7
   18fa2:	00b56333          	or	t1,a0,a1
   18fa6:	02041693          	slli	a3,s0,0x20
   18faa:	02045713          	srli	a4,s0,0x20
   18fae:	008685b3          	add	a1,a3,s0
   18fb2:	00d5b7b3          	sltu	a5,a1,a3
   18fb6:	86ae                	mv	a3,a1
   18fb8:	973e                	add	a4,a4,a5
   18fba:	02049f93          	slli	t6,s1,0x20
   18fbe:	0204d513          	srli	a0,s1,0x20
   18fc2:	009f85b3          	add	a1,t6,s1
   18fc6:	01f5b7b3          	sltu	a5,a1,t6
   18fca:	8fae                	mv	t6,a1
   18fcc:	953e                	add	a0,a0,a5
   18fce:	93b6                	add	t2,t2,a3
   18fd0:	00d3b833          	sltu	a6,t2,a3
   18fd4:	983a                	add	a6,a6,a4
   18fd6:	02091693          	slli	a3,s2,0x20
   18fda:	02095713          	srli	a4,s2,0x20
   18fde:	012685b3          	add	a1,a3,s2
   18fe2:	00d5b7b3          	sltu	a5,a1,a3
   18fe6:	86ae                	mv	a3,a1
   18fe8:	973e                	add	a4,a4,a5
   18fea:	9e7e                	add	t3,t3,t6
   18fec:	01fe38b3          	sltu	a7,t3,t6
   18ff0:	9e42                	add	t3,t3,a6
   18ff2:	010e3fb3          	sltu	t6,t3,a6
   18ff6:	98fe                	add	a7,a7,t6
   18ff8:	01150833          	add	a6,a0,a7
   18ffc:	02099f93          	slli	t6,s3,0x20
   19000:	0209d513          	srli	a0,s3,0x20
   19004:	013f85b3          	add	a1,t6,s3
   19008:	01f5b7b3          	sltu	a5,a1,t6
   1900c:	8fae                	mv	t6,a1
   1900e:	953e                	add	a0,a0,a5
   19010:	9eb6                	add	t4,t4,a3
   19012:	00deb8b3          	sltu	a7,t4,a3
   19016:	9ec2                	add	t4,t4,a6
   19018:	010eb6b3          	sltu	a3,t4,a6
   1901c:	98b6                	add	a7,a7,a3
   1901e:	01170833          	add	a6,a4,a7
   19022:	9f7e                	add	t5,t5,t6
   19024:	01ff38b3          	sltu	a7,t5,t6
   19028:	9f42                	add	t5,t5,a6
   1902a:	010f36b3          	sltu	a3,t5,a6
   1902e:	98b6                	add	a7,a7,a3
   19030:	01150833          	add	a6,a0,a7
   19034:	92c2                	add	t0,t0,a6
   19036:	0102b8b3          	sltu	a7,t0,a6
   1903a:	9346                	add	t1,t1,a7
   1903c:	8f9e                	mv	t6,t2
   1903e:	020f9693          	slli	a3,t6,0x20
   19042:	020fd713          	srli	a4,t6,0x20
   19046:	01fe07b3          	add	a5,t3,t6
   1904a:	01c7b833          	sltu	a6,a5,t3
   1904e:	00d7b8b3          	sltu	a7,a5,a3
   19052:	40d78e33          	sub	t3,a5,a3
   19056:	010e87b3          	add	a5,t4,a6
   1905a:	01d7b833          	sltu	a6,a5,t4
   1905e:	00e7b533          	sltu	a0,a5,a4
   19062:	8f99                	sub	a5,a5,a4
   19064:	0117b5b3          	sltu	a1,a5,a7
   19068:	41178eb3          	sub	t4,a5,a7
   1906c:	00b568b3          	or	a7,a0,a1
   19070:	010f07b3          	add	a5,t5,a6
   19074:	01e7b833          	sltu	a6,a5,t5
   19078:	00d7b533          	sltu	a0,a5,a3
   1907c:	8f95                	sub	a5,a5,a3
   1907e:	0117b5b3          	sltu	a1,a5,a7
   19082:	41178f33          	sub	t5,a5,a7
   19086:	00b568b3          	or	a7,a0,a1
   1908a:	01f287b3          	add	a5,t0,t6
   1908e:	0057b533          	sltu	a0,a5,t0
   19092:	97c2                	add	a5,a5,a6
   19094:	0107b5b3          	sltu	a1,a5,a6
   19098:	00b56833          	or	a6,a0,a1
   1909c:	00e7b533          	sltu	a0,a5,a4
   190a0:	8f99                	sub	a5,a5,a4
   190a2:	0117b5b3          	sltu	a1,a5,a7
   190a6:	411782b3          	sub	t0,a5,a7
   190aa:	00b568b3          	or	a7,a0,a1
   190ae:	010307b3          	add	a5,t1,a6
   190b2:	0107b533          	sltu	a0,a5,a6
   190b6:	41178333          	sub	t1,a5,a7
   190ba:	0117b5b3          	sltu	a1,a5,a7
   190be:	00b563b3          	or	t2,a0,a1
   190c2:	02241693          	slli	a3,s0,0x22
   190c6:	01e45713          	srli	a4,s0,0x1e
   190ca:	03f45793          	srli	a5,s0,0x3f
   190ce:	20d42633          	sh1add	a2,s0,a3
   190d2:	00d635b3          	sltu	a1,a2,a3
   190d6:	86b2                	mv	a3,a2
   190d8:	973e                	add	a4,a4,a5
   190da:	972e                	add	a4,a4,a1
   190dc:	02249f93          	slli	t6,s1,0x22
   190e0:	01e4d513          	srli	a0,s1,0x1e
   190e4:	03f4d793          	srli	a5,s1,0x3f
   190e8:	21f4a633          	sh1add	a2,s1,t6
   190ec:	01f635b3          	sltu	a1,a2,t6
   190f0:	8fb2                	mv	t6,a2
   190f2:	953e                	add	a0,a0,a5
   190f4:	952e                	add	a0,a0,a1
   190f6:	9e36                	add	t3,t3,a3
   190f8:	00de3833          	sltu	a6,t3,a3
   190fc:	983a                	add	a6,a6,a4
   190fe:	02291693          	slli	a3,s2,0x22
   19102:	01e95713          	srli	a4,s2,0x1e
   19106:	03f95793          	srli	a5,s2,0x3f
   1910a:	20d92633          	sh1add	a2,s2,a3
   1910e:	00d635b3          	sltu	a1,a2,a3
   19112:	86b2                	mv	a3,a2
   19114:	973e                	add	a4,a4,a5
   19116:	972e                	add	a4,a4,a1
   19118:	9efe                	add	t4,t4,t6
   1911a:	01feb8b3          	sltu	a7,t4,t6
   1911e:	9ec2                	add	t4,t4,a6
   19120:	010ebfb3          	sltu	t6,t4,a6
   19124:	98fe                	add	a7,a7,t6
   19126:	01150833          	add	a6,a0,a7
   1912a:	02299f93          	slli	t6,s3,0x22
   1912e:	01e9d513          	srli	a0,s3,0x1e
   19132:	03f9d793          	srli	a5,s3,0x3f
   19136:	21f9a633          	sh1add	a2,s3,t6
   1913a:	01f635b3          	sltu	a1,a2,t6
   1913e:	8fb2                	mv	t6,a2
   19140:	953e                	add	a0,a0,a5
   19142:	952e                	add	a0,a0,a1
   19144:	9f36                	add	t5,t5,a3
   19146:	00df38b3          	sltu	a7,t5,a3
   1914a:	9f42                	add	t5,t5,a6
   1914c:	010f36b3          	sltu	a3,t5,a6
   19150:	98b6                	add	a7,a7,a3
   19152:	01170833          	add	a6,a4,a7
   19156:	92fe                	add	t0,t0,t6
   19158:	01f2b8b3          	sltu	a7,t0,t6
   1915c:	92c2                	add	t0,t0,a6
   1915e:	0102b6b3          	sltu	a3,t0,a6
   19162:	98b6                	add	a7,a7,a3
   19164:	01150833          	add	a6,a0,a7
   19168:	9342                	add	t1,t1,a6
   1916a:	010338b3          	sltu	a7,t1,a6
   1916e:	93c6                	add	t2,t2,a7
   19170:	8ff2                	mv	t6,t3
   19172:	020f9693          	slli	a3,t6,0x20
   19176:	020fd713          	srli	a4,t6,0x20
   1917a:	01fe87b3          	add	a5,t4,t6
   1917e:	01d7b833          	sltu	a6,a5,t4
   19182:	00d7b8b3          	sltu	a7,a5,a3
   19186:	40d78eb3          	sub	t4,a5,a3
   1918a:	010f07b3          	add	a5,t5,a6
   1918e:	01e7b833          	sltu	a6,a5,t5
   19192:	00e7b533          	sltu	a0,a5,a4
   19196:	8f99                	sub	a5,a5,a4
   19198:	0117b5b3          	sltu	a1,a5,a7
   1919c:	41178f33          	sub	t5,a5,a7
   191a0:	00b568b3          	or	a7,a0,a1
   191a4:	010287b3          	add	a5,t0,a6
   191a8:	0057b833          	sltu	a6,a5,t0
   191ac:	00d7b533          	sltu	a0,a5,a3
   191b0:	8f95                	sub	a5,a5,a3
   191b2:	0117b5b3          	sltu	a1,a5,a7
   191b6:	411782b3          	sub	t0,a5,a7
   191ba:	00b568b3          	or	a7,a0,a1
   191be:	01f307b3          	add	a5,t1,t6
   191c2:	0067b533          	sltu	a0,a5,t1
   191c6:	97c2                	add	a5,a5,a6
   191c8:	0107b5b3          	sltu	a1,a5,a6
   191cc:	00b56833          	or	a6,a0,a1
   191d0:	00e7b533          	sltu	a0,a5,a4
   191d4:	8f99                	sub	a5,a5,a4
   191d6:	0117b5b3          	sltu	a1,a5,a7
   191da:	41178333          	sub	t1,a5,a7
   191de:	00b568b3          	or	a7,a0,a1
   191e2:	010387b3          	add	a5,t2,a6
   191e6:	0107b533          	sltu	a0,a5,a6
   191ea:	411783b3          	sub	t2,a5,a7
   191ee:	0117b5b3          	sltu	a1,a5,a7
   191f2:	00b56e33          	or	t3,a0,a1
   191f6:	0013f393          	andi	t2,t2,1
   191fa:	407003b3          	neg	t2,t2
   191fe:	4685                	li	a3,1
   19200:	0076f6b3          	and	a3,a3,t2
   19204:	9eb6                	add	t4,t4,a3
   19206:	00debe33          	sltu	t3,t4,a3
   1920a:	fffac693          	not	a3,s5
   1920e:	0076f6b3          	and	a3,a3,t2
   19212:	00df0733          	add	a4,t5,a3
   19216:	01e737b3          	sltu	a5,a4,t5
   1921a:	01c70f33          	add	t5,a4,t3
   1921e:	01cf3833          	sltu	a6,t5,t3
   19222:	0107ee33          	or	t3,a5,a6
   19226:	92f2                	add	t0,t0,t3
   19228:	01c2be33          	sltu	t3,t0,t3
   1922c:	020ad693          	srli	a3,s5,0x20
   19230:	0685                	addi	a3,a3,1
   19232:	0076f6b3          	and	a3,a3,t2
   19236:	00d30733          	add	a4,t1,a3
   1923a:	006737b3          	sltu	a5,a4,t1
   1923e:	01c70333          	add	t1,a4,t3
   19242:	01c33833          	sltu	a6,t1,t3
   19246:	0107ee33          	or	t3,a5,a6
   1924a:	00000393          	li	t2,0
   1924e:	fff04f93          	not	t6,zero
   19252:	41fe8e33          	sub	t3,t4,t6
   19256:	01feb533          	sltu	a0,t4,t6
   1925a:	407e06b3          	sub	a3,t3,t2
   1925e:	007e33b3          	sltu	t2,t3,t2
   19262:	00a3e3b3          	or	t2,t2,a0
   19266:	415f0e33          	sub	t3,t5,s5
   1926a:	015f3533          	sltu	a0,t5,s5
   1926e:	407e0733          	sub	a4,t3,t2
   19272:	007e33b3          	sltu	t2,t3,t2
   19276:	00a3e3b3          	or	t2,t2,a0
   1927a:	41f28e33          	sub	t3,t0,t6
   1927e:	01f2b533          	sltu	a0,t0,t6
   19282:	407e07b3          	sub	a5,t3,t2
   19286:	007e33b3          	sltu	t2,t3,t2
   1928a:	00a3e3b3          	or	t2,t2,a0
   1928e:	41630e33          	sub	t3,t1,s6
   19292:	01633533          	sltu	a0,t1,s6
   19296:	407e0833          	sub	a6,t3,t2
   1929a:	007e33b3          	sltu	t2,t3,t2
   1929e:	00a3e3b3          	or	t2,t2,a0
   192a2:	0013c393          	xori	t2,t2,1
   192a6:	407003b3          	neg	t2,t2
   192aa:	0076f6b3          	and	a3,a3,t2
   192ae:	407efeb3          	andn	t4,t4,t2
   192b2:	00deeeb3          	or	t4,t4,a3
   192b6:	00777733          	and	a4,a4,t2
   192ba:	407f7f33          	andn	t5,t5,t2
   192be:	00ef6f33          	or	t5,t5,a4
   192c2:	0077f7b3          	and	a5,a5,t2
   192c6:	4072f2b3          	andn	t0,t0,t2
   192ca:	00f2e2b3          	or	t0,t0,a5
   192ce:	00787833          	and	a6,a6,t2
   192d2:	40737333          	andn	t1,t1,t2
   192d6:	01036333          	or	t1,t1,a6
   192da:	00000393          	li	t2,0
   192de:	41fe8e33          	sub	t3,t4,t6
   192e2:	01feb533          	sltu	a0,t4,t6
   192e6:	407e06b3          	sub	a3,t3,t2
   192ea:	007e33b3          	sltu	t2,t3,t2
   192ee:	00a3e3b3          	or	t2,t2,a0
   192f2:	415f0e33          	sub	t3,t5,s5
   192f6:	015f3533          	sltu	a0,t5,s5
   192fa:	407e0733          	sub	a4,t3,t2
   192fe:	007e33b3          	sltu	t2,t3,t2
   19302:	00a3e3b3          	or	t2,t2,a0
   19306:	41f28e33          	sub	t3,t0,t6
   1930a:	01f2b533          	sltu	a0,t0,t6
   1930e:	407e07b3          	sub	a5,t3,t2
   19312:	007e33b3          	sltu	t2,t3,t2
   19316:	00a3e3b3          	or	t2,t2,a0
   1931a:	41630e33          	sub	t3,t1,s6
   1931e:	01633533          	sltu	a0,t1,s6
   19322:	407e0833          	sub	a6,t3,t2
   19326:	007e33b3          	sltu	t2,t3,t2
   1932a:	00a3e3b3          	or	t2,t2,a0
   1932e:	0013c393          	xori	t2,t2,1
   19332:	407003b3          	neg	t2,t2
   19336:	0076f6b3          	and	a3,a3,t2
   1933a:	407efeb3          	andn	t4,t4,t2
   1933e:	00deeeb3          	or	t4,t4,a3
   19342:	00777733          	and	a4,a4,t2
   19346:	407f7f33          	andn	t5,t5,t2
   1934a:	00ef6f33          	or	t5,t5,a4
   1934e:	0077f7b3          	and	a5,a5,t2
   19352:	4072f2b3          	andn	t0,t0,t2
   19356:	00f2e2b3          	or	t0,t0,a5
   1935a:	00787833          	and	a6,a6,t2
   1935e:	40737333          	andn	t1,t1,t2
   19362:	01036333          	or	t1,t1,a6
   19366:	01da3023          	sd	t4,0(s4)
   1936a:	01ea3423          	sd	t5,8(s4)
   1936e:	005a3823          	sd	t0,16(s4)
   19372:	006a3c23          	sd	t1,24(s4)
   19376:	6402                	ld	s0,0(sp)
   19378:	64a2                	ld	s1,8(sp)
   1937a:	6942                	ld	s2,16(sp)
   1937c:	69e2                	ld	s3,24(sp)
   1937e:	7a02                	ld	s4,32(sp)
   19380:	7aa2                	ld	s5,40(sp)
   19382:	7b42                	ld	s6,48(sp)
   19384:	03810113          	addi	sp,sp,56
   19388:	8082                	ret

000000000001938a <fp_from_mont>:
   1938a:	1101                	addi	sp,sp,-32
   1938c:	e052                	sd	s4,0(sp)
   1938e:	e456                	sd	s5,8(sp)
   19390:	e85a                	sd	s6,16(sp)
   19392:	8a2a                	mv	s4,a0
   19394:	fff00a9b          	addiw	s5,zero,-1
   19398:	1a82                	slli	s5,s5,0x20
   1939a:	fff00b1b          	addiw	s6,zero,-1
   1939e:	1b02                	slli	s6,s6,0x20
   193a0:	1b7d                	addi	s6,s6,-1
   193a2:	0005b283          	ld	t0,0(a1)
   193a6:	0085b303          	ld	t1,8(a1)
   193aa:	0105b383          	ld	t2,16(a1)
   193ae:	0185be03          	ld	t3,24(a1)
   193b2:	00000e93          	li	t4,0
   193b6:	00000f13          	li	t5,0
   193ba:	8f96                	mv	t6,t0
   193bc:	020f9693          	slli	a3,t6,0x20
   193c0:	020fd713          	srli	a4,t6,0x20
   193c4:	01f307b3          	add	a5,t1,t6
   193c8:	0067b833          	sltu	a6,a5,t1
   193cc:	00d7b8b3          	sltu	a7,a5,a3
   193d0:	40d78333          	sub	t1,a5,a3
   193d4:	010387b3          	add	a5,t2,a6
   193d8:	0077b833          	sltu	a6,a5,t2
   193dc:	00e7b533          	sltu	a0,a5,a4
   193e0:	8f99                	sub	a5,a5,a4
   193e2:	0117b5b3          	sltu	a1,a5,a7
   193e6:	411783b3          	sub	t2,a5,a7
   193ea:	00b568b3          	or	a7,a0,a1
   193ee:	010e07b3          	add	a5,t3,a6
   193f2:	01c7b833          	sltu	a6,a5,t3
   193f6:	00d7b533          	sltu	a0,a5,a3
   193fa:	8f95                	sub	a5,a5,a3
   193fc:	0117b5b3          	sltu	a1,a5,a7
   19400:	41178e33          	sub	t3,a5,a7
   19404:	00b568b3          	or	a7,a0,a1
   19408:	01fe87b3          	add	a5,t4,t6
   1940c:	01d7b533          	sltu	a0,a5,t4
   19410:	97c2                	add	a5,a5,a6
   19412:	0107b5b3          	sltu	a1,a5,a6
   19416:	00b56833          	or	a6,a0,a1
   1941a:	00e7b533          	sltu	a0,a5,a4
   1941e:	8f99                	sub	a5,a5,a4
   19420:	0117b5b3          	sltu	a1,a5,a7
   19424:	41178eb3          	sub	t4,a5,a7
   19428:	00b568b3          	or	a7,a0,a1
   1942c:	010f07b3          	add	a5,t5,a6
   19430:	0107b533          	sltu	a0,a5,a6
   19434:	41178f33          	sub	t5,a5,a7
   19438:	0117b5b3          	sltu	a1,a5,a7
   1943c:	00b562b3          	or	t0,a0,a1
   19440:	8f9a                	mv	t6,t1
   19442:	020f9693          	slli	a3,t6,0x20
   19446:	020fd713          	srli	a4,t6,0x20
   1944a:	01f387b3          	add	a5,t2,t6
   1944e:	0077b833          	sltu	a6,a5,t2
   19452:	00d7b8b3          	sltu	a7,a5,a3
   19456:	40d783b3          	sub	t2,a5,a3
   1945a:	010e07b3          	add	a5,t3,a6
   1945e:	01c7b833          	sltu	a6,a5,t3
   19462:	00e7b533          	sltu	a0,a5,a4
   19466:	8f99                	sub	a5,a5,a4
   19468:	0117b5b3          	sltu	a1,a5,a7
   1946c:	41178e33          	sub	t3,a5,a7
   19470:	00b568b3          	or	a7,a0,a1
   19474:	010e87b3          	add	a5,t4,a6
   19478:	01d7b833          	sltu	a6,a5,t4
   1947c:	00d7b533          	sltu	a0,a5,a3
   19480:	8f95                	sub	a5,a5,a3
   19482:	0117b5b3          	sltu	a1,a5,a7
   19486:	41178eb3          	sub	t4,a5,a7
   1948a:	00b568b3          	or	a7,a0,a1
   1948e:	01ff07b3          	add	a5,t5,t6
   19492:	01e7b533          	sltu	a0,a5,t5
   19496:	97c2                	add	a5,a5,a6
   19498:	0107b5b3          	sltu	a1,a5,a6
   1949c:	00b56833          	or	a6,a0,a1
   194a0:	00e7b533          	sltu	a0,a5,a4
   194a4:	8f99                	sub	a5,a5,a4
   194a6:	0117b5b3          	sltu	a1,a5,a7
   194aa:	41178f33          	sub	t5,a5,a7
   194ae:	00b568b3          	or	a7,a0,a1
   194b2:	010287b3          	add	a5,t0,a6
   194b6:	0107b533          	sltu	a0,a5,a6
   194ba:	411782b3          	sub	t0,a5,a7
   194be:	0117b5b3          	sltu	a1,a5,a7
   194c2:	00b56333          	or	t1,a0,a1
   194c6:	8f9e                	mv	t6,t2
   194c8:	020f9693          	slli	a3,t6,0x20
   194cc:	020fd713          	srli	a4,t6,0x20
   194d0:	01fe07b3          	add	a5,t3,t6
   194d4:	01c7b833          	sltu	a6,a5,t3
   194d8:	00d7b8b3          	sltu	a7,a5,a3
   194dc:	40d78e33          	sub	t3,a5,a3
   194e0:	010e87b3          	add	a5,t4,a6
   194e4:	01d7b833          	sltu	a6,a5,t4
   194e8:	00e7b533          	sltu	a0,a5,a4
   194ec:	8f99                	sub	a5,a5,a4
   194ee:	0117b5b3          	sltu	a1,a5,a7
   194f2:	41178eb3          	sub	t4,a5,a7
   194f6:	00b568b3          	or	a7,a0,a1
   194fa:	010f07b3          	add	a5,t5,a6
   194fe:	01e7b833          	sltu	a6,a5,t5
   19502:	00d7b533          	sltu	a0,a5,a3
   19506:	8f95                	sub	a5,a5,a3
   19508:	0117b5b3          	sltu	a1,a5,a7
   1950c:	41178f33          	sub	t5,a5,a7
   19510:	00b568b3          	or	a7,a0,a1
   19514:	01f287b3          	add	a5,t0,t6
   19518:	0057b533          	sltu	a0,a5,t0
   1951c:	97c2                	add	a5,a5,a6
   1951e:	0107b5b3          	sltu	a1,a5,a6
   19522:	00b56833          	or	a6,a0,a1
   19526:	00e7b533          	sltu	a0,a5,a4
   1952a:	8f99                	sub	a5,a5,a4
   1952c:	0117b5b3          	sltu	a1,a5,a7
   19530:	411782b3          	sub	t0,a5,a7
   19534:	00b568b3          	or	a7,a0,a1
   19538:	010307b3          	add	a5,t1,a6
   1953c:	0107b533          	sltu	a0,a5,a6
   19540:	41178333          	sub	t1,a5,a7
   19544:	0117b5b3          	sltu	a1,a5,a7
   19548:	00b563b3          	or	t2,a0,a1
   1954c:	8ff2                	mv	t6,t3
   1954e:	020f9693          	slli	a3,t6,0x20
   19552:	020fd713          	srli	a4,t6,0x20
   19556:	01fe87b3          	add	a5,t4,t6
   1955a:	01d7b833          	sltu	a6,a5,t4
   1955e:	00d7b8b3          	sltu	a7,a5,a3
   19562:	40d78eb3          	sub	t4,a5,a3
   19566:	010f07b3          	add	a5,t5,a6
   1956a:	01e7b833          	sltu	a6,a5,t5
   1956e:	00e7b533          	sltu	a0,a5,a4
   19572:	8f99                	sub	a5,a5,a4
   19574:	0117b5b3          	sltu	a1,a5,a7
   19578:	41178f33          	sub	t5,a5,a7
   1957c:	00b568b3          	or	a7,a0,a1
   19580:	010287b3          	add	a5,t0,a6
   19584:	0057b833          	sltu	a6,a5,t0
   19588:	00d7b533          	sltu	a0,a5,a3
   1958c:	8f95                	sub	a5,a5,a3
   1958e:	0117b5b3          	sltu	a1,a5,a7
   19592:	411782b3          	sub	t0,a5,a7
   19596:	00b568b3          	or	a7,a0,a1
   1959a:	01f307b3          	add	a5,t1,t6
   1959e:	0067b533          	sltu	a0,a5,t1
   195a2:	97c2                	add	a5,a5,a6
   195a4:	0107b5b3          	sltu	a1,a5,a6
   195a8:	00b56833          	or	a6,a0,a1
   195ac:	00e7b533          	sltu	a0,a5,a4
   195b0:	8f99                	sub	a5,a5,a4
   195b2:	0117b5b3          	sltu	a1,a5,a7
   195b6:	41178333          	sub	t1,a5,a7
   195ba:	00b568b3          	or	a7,a0,a1
   195be:	010387b3          	add	a5,t2,a6
   195c2:	0107b533          	sltu	a0,a5,a6
   195c6:	411783b3          	sub	t2,a5,a7
   195ca:	0117b5b3          	sltu	a1,a5,a7
   195ce:	00b56e33          	or	t3,a0,a1
   195d2:	0013f393          	andi	t2,t2,1
   195d6:	407003b3          	neg	t2,t2
   195da:	4685                	li	a3,1
   195dc:	0076f6b3          	and	a3,a3,t2
   195e0:	9eb6                	add	t4,t4,a3
   195e2:	00debe33          	sltu	t3,t4,a3
   195e6:	fffac693          	not	a3,s5
   195ea:	0076f6b3          	and	a3,a3,t2
   195ee:	00df0733          	add	a4,t5,a3
   195f2:	01e737b3          	sltu	a5,a4,t5
   195f6:	01c70f33          	add	t5,a4,t3
   195fa:	01cf3833          	sltu	a6,t5,t3
   195fe:	0107ee33          	or	t3,a5,a6
   19602:	92f2                	add	t0,t0,t3
   19604:	01c2be33          	sltu	t3,t0,t3
   19608:	020ad693          	srli	a3,s5,0x20
   1960c:	0685                	addi	a3,a3,1
   1960e:	0076f6b3          	and	a3,a3,t2
   19612:	00d30733          	add	a4,t1,a3
   19616:	006737b3          	sltu	a5,a4,t1
   1961a:	01c70333          	add	t1,a4,t3
   1961e:	01c33833          	sltu	a6,t1,t3
   19622:	0107ee33          	or	t3,a5,a6
   19626:	00000393          	li	t2,0
   1962a:	fff04f93          	not	t6,zero
   1962e:	41fe8e33          	sub	t3,t4,t6
   19632:	01feb533          	sltu	a0,t4,t6
   19636:	407e06b3          	sub	a3,t3,t2
   1963a:	007e33b3          	sltu	t2,t3,t2
   1963e:	00a3e3b3          	or	t2,t2,a0
   19642:	415f0e33          	sub	t3,t5,s5
   19646:	015f3533          	sltu	a0,t5,s5
   1964a:	407e0733          	sub	a4,t3,t2
   1964e:	007e33b3          	sltu	t2,t3,t2
   19652:	00a3e3b3          	or	t2,t2,a0
   19656:	41f28e33          	sub	t3,t0,t6
   1965a:	01f2b533          	sltu	a0,t0,t6
   1965e:	407e07b3          	sub	a5,t3,t2
   19662:	007e33b3          	sltu	t2,t3,t2
   19666:	00a3e3b3          	or	t2,t2,a0
   1966a:	41630e33          	sub	t3,t1,s6
   1966e:	01633533          	sltu	a0,t1,s6
   19672:	407e0833          	sub	a6,t3,t2
   19676:	007e33b3          	sltu	t2,t3,t2
   1967a:	00a3e3b3          	or	t2,t2,a0
   1967e:	0013c393          	xori	t2,t2,1
   19682:	407003b3          	neg	t2,t2
   19686:	0076f6b3          	and	a3,a3,t2
   1968a:	407efeb3          	andn	t4,t4,t2
   1968e:	00deeeb3          	or	t4,t4,a3
   19692:	00777733          	and	a4,a4,t2
   19696:	407f7f33          	andn	t5,t5,t2
   1969a:	00ef6f33          	or	t5,t5,a4
   1969e:	0077f7b3          	and	a5,a5,t2
   196a2:	4072f2b3          	andn	t0,t0,t2
   196a6:	00f2e2b3          	or	t0,t0,a5
   196aa:	00787833          	and	a6,a6,t2
   196ae:	40737333          	andn	t1,t1,t2
   196b2:	01036333          	or	t1,t1,a6
   196b6:	00000393          	li	t2,0
   196ba:	41fe8e33          	sub	t3,t4,t6
   196be:	01feb533          	sltu	a0,t4,t6
   196c2:	407e06b3          	sub	a3,t3,t2
   196c6:	007e33b3          	sltu	t2,t3,t2
   196ca:	00a3e3b3          	or	t2,t2,a0
   196ce:	415f0e33          	sub	t3,t5,s5
   196d2:	015f3533          	sltu	a0,t5,s5
   196d6:	407e0733          	sub	a4,t3,t2
   196da:	007e33b3          	sltu	t2,t3,t2
   196de:	00a3e3b3          	or	t2,t2,a0
   196e2:	41f28e33          	sub	t3,t0,t6
   196e6:	01f2b533          	sltu	a0,t0,t6
   196ea:	407e07b3          	sub	a5,t3,t2
   196ee:	007e33b3          	sltu	t2,t3,t2
   196f2:	00a3e3b3          	or	t2,t2,a0
   196f6:	41630e33          	sub	t3,t1,s6
   196fa:	01633533          	sltu	a0,t1,s6
   196fe:	407e0833          	sub	a6,t3,t2
   19702:	007e33b3          	sltu	t2,t3,t2
   19706:	00a3e3b3          	or	t2,t2,a0
   1970a:	0013c393          	xori	t2,t2,1
   1970e:	407003b3          	neg	t2,t2
   19712:	0076f6b3          	and	a3,a3,t2
   19716:	407efeb3          	andn	t4,t4,t2
   1971a:	00deeeb3          	or	t4,t4,a3
   1971e:	00777733          	and	a4,a4,t2
   19722:	407f7f33          	andn	t5,t5,t2
   19726:	00ef6f33          	or	t5,t5,a4
   1972a:	0077f7b3          	and	a5,a5,t2
   1972e:	4072f2b3          	andn	t0,t0,t2
   19732:	00f2e2b3          	or	t0,t0,a5
   19736:	00787833          	and	a6,a6,t2
   1973a:	40737333          	andn	t1,t1,t2
   1973e:	01036333          	or	t1,t1,a6
   19742:	01da3023          	sd	t4,0(s4)
   19746:	01ea3423          	sd	t5,8(s4)
   1974a:	005a3823          	sd	t0,16(s4)
   1974e:	006a3c23          	sd	t1,24(s4)
   19752:	6a02                	ld	s4,0(sp)
   19754:	6aa2                	ld	s5,8(sp)
   19756:	6b42                	ld	s6,16(sp)
   19758:	6105                	addi	sp,sp,32
   1975a:	8082                	ret
	...
